(lp1
(VLOW
p2
VFlo Rida ft. T-Pain - Low (ZLwvc5Qywzk)
tp3
a(VBLEEDING LOVE
p4
VLeona Lewis - Bleeding Love (7_weSk0BonM)
tp5
a(VNO ONE
p6
VAlicia Keys - No One (Official Video) (rywUS-ohqeE)
tp7
a(VLOLLIPOP
p8
VLil Wayne - Lollipop ft. Static (2IH8tNQAzSs)
tp9
a(VAPOLOGIZE
p10
VTimbaland - Apologize ft. OneRepublic (ZSM3w1v-A_Y)
tp11
a(VNO AIR
p12
VJordin Sparks, Chris Brown - No Air (Official Video) ft. Chris Brown (WBKnpyoFEBo)
tp13
a(VLOVE SONG
p14
VSara Bareilles - Love Song (qi7Yh16dA0w)
tp15
a(VLOVE IN THIS CLUB
p16
VUsher - Love in This Club ft. Young Jeezy (cB5e0zHRzHc)
tp17
a(VWITH YOU
p18
VChris Brown - With You (nmjdaBaZe8Y)
tp19
a(VFOREVER
p20
VChris Brown - Forever (5sMKX22BHeE)
tp21
a(VSEXY CAN I
p22
VRay J "Sexy Can I" featuring Yung Berg EXPLICIT VERSION (YeVOnHce37Y)
tp23
a(VTAKE A BOW
p24
VRihanna - Take A Bow (J3UjJ4wKLkg)
tp25
a(VVIVA LA VIDA
p26
VColdplay - Viva La Vida (dvgZkm1xWPE)
tp27
a(VI KISSED A GIRL
p28
VKaty Perry - I Kissed A Girl (tAp9BKosZXs)
tp29
a(VWHATEVER YOU LIKE
p30
VT.I. - Whatever You Like [OFFICIAL VIDEO] (nQJACVmankY)
tp31
a(VDISTURBIA
p32
VRihanna - Disturbia (E1mU6h4Xdxc)
tp33
a(VDON'T STOP THE MUSIC
p34
VRihanna - Don't Stop The Music (yd8jh9QYfEs)
tp35
a(VPOCKETFUL OF SUNSHINE
p36
VNatasha Bedingfield - Pocketful Of Sunshine (gte3BoXKwP0)
tp37
a(VKISS KISS
p38
VChris Brown - Kiss Kiss ft. T-Pain (eNII9PDlFJ0)
tp39
a(VCLOSER
p40
VNe-Yo - Closer (z_aC5xPQ2f4)
tp41
a(VBUBBLY
p42
VColbie Caillat - Bubbly (AWGqoCNbsvM)
tp43
a(VTOUCH MY BODY
p44
VMariah Carey - Touch My Body (9b8erWuBA44)
tp45
a(V4 MINUTES
p46
VMadonna - 4 Minutes (bHHUhcV2eVY)
tp47
a(VSO WHAT
p48
VP!nk - So What (FJfFZqTlWrQ)
tp49
a(VPARALYZER
p50
Vfinger eleven - Paralyzer (BJk6gZuPKRE)
tp51
a(VCLUMSY
p52
VFergie - Clumsy (tf_gPZSDIxI)
tp53
a(VI'M YOURS
p54
VJason Mraz - I'm Yours [Official Music Video] (EkHTsc9PU2A)
tp55
a(VLEAVIN'
p56
VJesse McCartney - Leavin' (LYRICS) (vQmEGKOe7Ao)
tp57
a(VDANGEROUS
p58
VKardinal Offishall - Dangerous ft. Akon (Ro7yHf_pU14)
tp59
a(VTATTOO
p60
VJordin Sparks - Tattoo ft. Tor Erik Hermansen, Mikkel S. Eriksen (T4E1s0g3ZMw)
tp61
a(VSEE YOU AGAIN
p62
VMiley Cyrus-See You Again with lyrics (hC8N9WywIqY)
tp63
a(VSHAKE IT
p64
VMetro Station - Shake It (_wjFahULCK8)
tp65
a(VSTOP AND STARE
p66
VOneRepublic - Stop And Stare (HtNS1afUOnE)
tp67
a(VTAKE YOU THERE
p68
VSean Kingston-Take You There (Lyrics).wmv (SpzrLYXw8tY)
tp69
a(VPAPER PLANES
p70
VM.I.A. - Paper Planes (ewRjZoRtu0Y)
tp71
a(VHOT N COLD
p72
VKaty Perry - Hot N Cold (kTHNpusq654)
tp73
a(VLIVE YOUR LIFE
p74
VT.I. - Live Your Life [feat. Rihanna] (Video) (koVHN6eO4Xg)
tp75
a(VBUST IT BABY PART 2
p76
VPlies - Bust It Baby Pt. 2 (Feat. Ne-Yo) (X_yyDbsNUWQ)
tp77
a(VAMERICAN BOY
p78
VEstelle - American Boy [Feat. Kanye West] [Video] (Ic5vxw3eijY)
tp79
a(VGOT MONEY
p80
VLil Wayne - Got Money ft. T-Pain (1ohYsK5Y8Dc)
tp81
a(VOUR SONG
p82
VTaylor Swift - Our Song (Jb2stN7kH28)
tp83
a(VDAMAGED
p84
VDanity Kane - Damaged (Video) (P8IBg0mVJ5Y)
tp85
a(VA MILLI
p86
VLil' Wayne - A Milli (O8Uhn-dU3Gg)
tp87
a(VSORRY
p88
VBuckcherry-Sorry Lyrics (VascyLfpNrI)
tp89
a(VINDEPENDENT
p90
VIndependent Feat. Lil' Boosie and Lil' Phat (video (jCUiGArhW2M)
tp91
a(VCAN'T BELIEVE IT
p92
VT-Pain - Can't Believe It ft. Lil' Wayne (kWBE0sQC5L8)
tp93
a(VLIKE YOU'LL NEVER SEE ME AGAIN
p94
VAlicia Keys - Like You'll Never See Me Again (xPvwDcrT6rU)
tp95
a(VTEARDROPS ON MY GUITAR
p96
VTaylor Swift - Teardrops On My Guitar (xKCek6_dB0M)
tp97
a(VWHEN I GROW UP
p98
VThe Pussycat Dolls - When I Grow Up (K0K46C82v9o)
tp99
a(VSENSUAL SEDUCTION
p100
VSnoop Dogg - Sensual Seduction (Y1PVmANeyAg)
tp101
a(VWHAT YOU GOT
p102
VWhat You Got~Colby O Donis feat. Akon ( with lyrics ) (qORyvN0lD9E)
tp103
a(VIT'S NOT MY TIME
p104
V3 Doors Down - It's Not My Time (qpfhcljJ9bQ)
tp105
a(VBETTER IN TIME
p106
VLeona Lewis - Better In Time (qSxyffSB7wA)
tp107
a(VCRANK THAT (SOULJA BOY)
p108
VSoulja Boy Tell'em - Crank That (Soulja Boy) (8UFIYGkROII)
tp109
a(VSHADOW OF THE DAY
p110
VLinkin Park- Shadow of The Day ( Lyrics) (8H7ZwDawsb4)
tp111
a(VSWEETEST GIRL (DOLLAR BILL)
p112
VWyclef Jean- Sweetest Girl Ft. Akon, Lil' Wayne and Niia With Lyrics (znQbwP51GYQ)
tp113
a(VMISS INDEPENDENT
p114
VNe-Yo - Miss Independent (k6M5C-oKw9k)
tp115
a(VFALL FOR YOU
p116
VFall For You Lyrics [ Secondhand Serenade] (c1O9DyFLIKo)
tp117
a(VIN THE AYER
p118
VFlo Rida - In The Ayer featuring (-DsyZdeFjug)
tp119
a(VSAY
p120
VJohn Mayer - Say (WQtGqmi2O2U)
tp121
a(VONE STEP AT A TIME
p122
VJordin Sparks - One Step at a Time Lyrics (SRUCgpOv9Ck)
tp123
a(VHATE THAT I LOVE YOU
p124
VRihanna - Hate That I Love You ft. Ne-Yo (KMOOr7GEkj8)
tp125
a(VSUPERSTAR
p126
VLupe Fiasco-Superstar ft. Matthew Santos(Lyric Video) (65ztsZvJ89M)
tp127
a(VSUFFOCATE
p128
VJ. Holiday Suffocate Lyrics (kM3dryMR3Lc)
tp129
a(VLET IT ROCK
p130
VKevin Rudolf - Let It Rock ft. Lil Wayne (u0n4eMGXAyk)
tp131
a(VGET LIKE ME
p132
VDavid Banner - Get Like Me ft. Chris Brown, Young Joc (LPz7LCybSNk)
tp133
a(VREALIZE
p134
VColbie Caillat - Realize Lyrics (M-elI3cO4x4)
tp135
a(VPUT ON
p136
VYoung Jeezy - Put On ft. Kanye West (1aEImx74gLA)
tp137
a(VTHE TIME OF MY LIFE
p138
VDavid Cook - Time Of My Life W/Lyrics (dNQrMuL54aQ)
tp139
a(VLOLLI LOLLI (POP THAT BODY)
p140
VThree 6 Mafia - Lolli Lolli (Pop That Body) (feat. Project Pat, Young D, Superpower) - Last 2 Walk (9Y4XZOA7iKA)
tp141
a(VCYCLONE
p142
VBaby Bash - Cyclone ft. T-Pain (y-1575pG-kc)
tp143
a(VLOVE LIKE THIS
p144
VNatasha Bedingfield - Love Like This ft. Sean Kingston (BPTZVmJrIpo)
tp145
a(VBURNIN' UP
p146
VJonas Brothers - Burnin' Up (5KNEZJ6KkLI)
tp147
a(VLOVE LOCKDOWN
p148
VKanye West - Love Lockdown (HZwMX6T5Jhk)
tp149
a(VI LUV YOUR GIRL
p150
VI Love Your Girl- The Dream w/lyrics (UYDfl_hzCTk)
tp151
a(VCRUSH
p152
VDavid Archuleta - Crush (Official Video) (6J1-eYBbspA)
tp153
a(VHYPNOTIZED
p154
VPlies Feat. Akon- Hypnotized (unrated lyrics) (TV50W0vxLz8)
tp155
a(VBIG GIRLS DON'T CRY
p156
VFergie - Big Girls Don't Cry (Personal) (agrXgrAgQ0U)
tp157
a(VGOOD LIFE
p158
VKanye West - Good Life ft. T-Pain (FEKEjpTzB0Q)
tp159
a(VWOMANIZER
p160
VBritney Spears - Womanizer (Director's Cut) (rMqayQ-U74s)
tp161
a(VLOVE STORY
p162
VTaylor Swift - Love Story (8xg3vE8Ie_E)
tp163
a(VJUST FINE
p164
VMary J. Blige - Just Fine (G6ZjBPXSmnE)
tp165
a(VPIECE OF ME
p166
VBritney Spears - Piece Of Me (u4FF6MpcsRw)
tp167
a(VTHE BOSS
p168
VRick Ross-The Boss (Feat. T-Pain) (Iriq2tqhNBk)
tp169
a(VALL SUMMER LONG
p170
VKid Rock - All Summer Long [OFFICIAL MUSIC VIDEO] (uwIGZLjugKA)
tp171
a(VCAN'T HELP BUT WAIT
p172
VTrey Songz - Can't Help But Wait [video] (iF_JBlSh_G8)
tp173
a(VIN LOVE WITH A GIRL
p174
VGavin DeGraw - In Love With A Girl (3of_EN0XpxI)
tp175
a(VMY LIFE
p176
VThe Game - My Life ft. Lil Wayne (udxZ9zkDzpo)
tp177
a(VI REMEMBER
p178
VKeyshia Cole - I Remember (3v3T_KxvFyM)
tp179
a(VFLASHING LIGHTS
p180
VKanye West - Flashing Lights ft. Dwele (ila-hAUXR5U)
tp181
a(VMRS. OFFICER
p182
VLil Wayne ft. Bobby Valentino - Mrs. Officer (With Lyrics) (Y7DgZFurtIQ)
tp183
a(V7 THINGS
p184
VMiley Cyrus - 7 Things (Hr0Wv5DJhuk)
tp185
a(VYOU'RE GONNA MISS THIS
p186
VTrace Adkins - You're Gonna Miss This (lBDN8yWyNYU)
tp187
a(VLOVE REMAINS THE SAME
p188
VGavin Rossdale - Love Remains the Same (with Lyrics) (Soh3r4WRPyY)
tp189
a(VFEELS LIKE TONIGHT
p190
VDaughtry - Feels Like Tonight (2judm5t9Qdo)
tp191
a(VTHE WAY I ARE
p192
VTimbaland - The Way I Are ft. Keri Hilson, D.O.E., Sebastian (U5rLz5AZBIA)
tp193
a(VADDICTED
p194
VSaving Abel - Addicted (zaVhipqTY9I)
tp195
a(VINTO THE NIGHT
p196
VSantana - Into The Night ft. Chad Kroeger (fQ9nQNx0KEs)
tp197
a(VHEAVEN SENT
p198
VKeyshia Cole - Heaven Sent (POkQXeTv7-4)
tp199
a(VSHE GOT IT
p200
V2 Pistols - She Got It ft. T-Pain, Tay Dizm (XDyf1D8vrHQ)
tp201
a.