(lp1
(V"Baby Come Back"
p2
VPlayer - Baby Come Back (Hn-enjcgV1o)
tp3
a(V"Here You Come Again"
p4
VDolly Parton,here you come again (1yyNT7afVSs)
tp5
a(V"Slip Slidin' Away"
p6
VPaul Simon - Slip Slidin' Away + lyrics (5_H-LY4Jb2M)
tp7
a(V"Sentimental Lady"
p8
VSentimental Lady by Bob Welch...with Lyrics (85LSmnSFe1A)
tp9
a(V"You're in My Heart (The Final Acclaim)"
p10
VRod Stewart - You're in My Heart (The Final Acclaim) (jylOeeRDJ78)
tp11
a(V"Hey Deanie"
p12
VShaun Cassidy: Hey Deanie (GO9WnxRlLF8)
tp13
a(V"We Will Rock You" / "We Are the Champions"
p14
VQueen + Adam Lambert - We Will Rock You / We Are The Champions - New Years Eve London 2014 (mwYRU4TTZLs)
tp15
a(V"Come Sail Away"
p16
VCome Sail Away Lyrics Styx (9TcztyNlFx0)
tp17
a(V"Stayin' Alive"
p18
VBee Gees - Stayin' Alive (1977) (I_izvAbhExY)
tp19
a(V"Short People"
p20
VRandy Newman - Short People (1978) (uFmv22ghzQw)
tp21
a(V"(Love Is) Thicker Than Water"
p22
VAndy Gibb - Love Is ( Thicker than Water ) (qAwvUZCgo7o)
tp23
a(V"Just the Way You Are"
p24
VJust the way you are   Billy Joel Lyrics   YouTube (-ynRj0uvzys)
tp25
a(V"Sometimes When We Touch"
p26
VSometimes When We Touch - Dan Hill - Official Video 1994 (IATz8ZVTALo)
tp27
a(V"Emotion"
p28
VSAMANTHA SANG ~ "EMOTION" (with The Bee Gees) highest def. audio/video~ 1977 (zPwpVJ-eIgg)
tp29
a(V"Dance, Dance, Dance (Yowsah, Yowsah, Yowsah)"
p30
VChic  -  Dance Dance Dance...  Yowsah! Yowsah! Yowsah! (faiwblIEvB8)
tp31
a(V"Night Fever"
p32
VBee Gees - Night Fever (1977) (-ihs-vT9T3Q)
tp33
a(V"Lay Down Sally"
p34
VEric Clapton - Lay down Sally (9hQqP6RNnDE)
tp35
a(V"I Go Crazy"
p36
VPaul Davis- I go crazy (THW-5OUTSt8)
tp37
a(V"Can't Smile Without You"
p38
VBarry Manilow - I can't smile without You with Lyrics (Q8uOxBLtdFc)
tp39
a(V"If I Can't Have You"
p40
VYvonne Elliman ~ If I Can't Have You (-pgJByML5xY)
tp41
a(V"Thunder Island"
p42
VJay Ferguson ~ Thunder Island (SEKZJp-x-Dc)
tp43
a(V"Dust in the Wind"
p44
VKansas - Dust in the Wind (Official Video) (tH2w6Oxx0kQ)
tp45
a(V"Jack and Jill"
p46
VJack And Jill - Ray Parker, Jr. & Raydio (1978) (tUpqRrKh2CE)
tp47
a(V"The Closer I Get to You"
p48
VRoberta Flack ft. Donny Hathaway - The Closer I Get To You (_jhYENBxRVo)
tp49
a(V"We'll Never Have to Say Goodbye Again"
p50
VEZListeningWithLizza - WE'LL NEVER HAVE TO SAY GOODBYE AGAIN-England Dan &John Ford Coley (S4mc1TdZJM8)
tp51
a(V"Our Love"
p52
VNatalie Cole - Our Love (yDKyQk8A3Dk)
tp53
a(V"With a Little Luck"
p54
VWith a little luck (Album extended version) - Wings (FSTtR_I4DyY)
tp55
a(V"Too Much, Too Little, Too Late"
p56
VJohnny Mathis  Deniece Williams,  Too Much Too Little Too Late (G3ceb5OVG7k)
tp57
a(V"You're the One That I Want"
p58
VOlivia Newton John   John Travolta - You're The One That I Want High Definition (YH8oJFBr-qY)
tp59
a(V"Count On Me"
p60
VJefferson Starship Count On Me (AOMuK7YYxeg)
tp61
a(V"Imaginary Lover"
p62
VImaginary Lover - Atlanta Rhythm Section (G6Z-DQGqM90)
tp63
a(V"Shadow Dancing"
p64
VAndy Gibb   Shadow Dancing (7j_yGYU_jUU)
tp65
a(V"Feels So Good"
p66
VChuck Mangione - Feels So Good HQ (12" REMASTERED ) (NDSBV0vTfTo)
tp67
a(V"On Broadway"
p68
VGEORGE BENSON - On Broadway (The George Benson Collection) (yF-tpXvh7ks)
tp69
a(V"Take a Chance on Me"
p70
VAbba - Take A Chance On Me (-crgQGdpZR0)
tp71
a(V"This Time I'm in it For Love"
p72
VPlayer - This Time I'm in It for Love (LMaClle-0c8)
tp73
a(V"Baker Street"
p74
VGerry Rafferty - Baker Street (UK) (Fo6aKnRnBxM)
tp75
a(V"It's a Heartache"
p76
VBonnie Tyler - It's A Heartache (VIDEO) (Best Quality!) (nPOy7TPjfkE)
tp77
a(V"You Belong to Me"
p78
VYou Belong To Me - Carly Simon (S6BalhjGfjM)
tp79
a(V"Love Is Like Oxygen"
p80
VSweet - Love Is Like Oxygen - Disco 20.03.1978 (OFFICIAL) (zRgWvvkSvfk)
tp81
a(V"Use ta Be My Girl"
p82
VO'Jays - Use Ta Be My Girl (1978) (164Th7leQxY)
tp83
a(V"Still the Same"
p84
VBob Seger & The Silver Bullet Band - Still the Same (dhU9H8IDDEg)
tp85
a(V"Dance with Me"
p86
VPeter Brown  -  Dance With Me (2wcIWQRlypw)
tp87
a(V"The Groove Line"
p88
VHeatwave - The Groove Line (Extended Version) (1977) (Cr6o88OJ8x8)
tp89
a(V"Miss You"
p90
VThe Rolling Stones- Miss You (KuRxXRuAz-I)
tp91
a(V"Last Dance"
p92
VDonna Summer Last Dance (jOpUfTi1keI)
tp93
a(V"Three Times a Lady"
p94
VTHREE TIMES A LADY  -  THE COMMODORES  -  (1978) (RZgHR4cKaek)
tp95
a(V"Grease"
p96
VFrankie Valli - Grease (BBVB3vHjKhs)
tp97
a(V"Love Will Find a Way"
p98
VPablo Cruise - Love Will Find A Way (H9sbA2gnWHI)
tp99
a(V"Hot Blooded"
p100
VHot Blooded - Foreigner (5c1m2BAg2Sc)
tp101
a(V"Boogie Oogie Oogie"
p102
VBoogie Oogie Oogie - A Taste Of Honey (1978) (cJsr7Yo34tk)
tp103
a(V"An Everlasting Love"
p104
VAndy Gibb   An Everlasting Love (gNr6U1AGSjI)
tp105
a(V"Copacabana (At the Copa)"
p106
VCopacabana (At the Copa) - Barry Manilow (DJTBfbQoTNk)
tp107
a(V"Magnet and Steel"
p108
VWalter Egan w/ Stevie Nicks - Magnet And Steel (Ar5GaTC440M)
tp109
a(V"Hopelessly Devoted to You"
p110
VOlivia Newton-John - Hopelessly Devoted to You (HD) (tzmggUAqePY)
tp111
a(V"Kiss You All Over"
p112
VExile - "Kiss You All Over" - HQ Audio))) (u3hDQZ21AQQ)
tp113
a(V"Shame"
p114
VEvelyn Champagne King - Shame (Best Version & HQ) (JH9YWegGc3I)
tp115
a(V"Summer Nights"
p116
VJohn Travolta & Olivia Newton John - Summer Nights (Grease) (ucU5c9ilIIc)
tp117
a(V"Got to Get You into My Life"
p118
VEARTH WIND & FIRE - Got to Get You Into My Life ( Greatest Hits Album Vol 1) (VJPWXq6b1fA)
tp119
a(V"Don't Look Back"
p120
VBoston - Don't Look Back (3VPLOVJ0u94)
tp121
a(V"Hot Child in the City"
p122
VHot Child in the City - Nick Gilder (o-eVxtuMR0o)
tp123
a(V"Reminiscing"
p124
VREMINISCING, The Little River Band (voQWlL-jj5Q)
tp125
a(V"Love Is in the Air"
p126
VJohn Paul Young - Love Is In The Air \u2665 HD (58T0NlhNweA)
tp127
a(V"You Needed Me"
p128
VYou Needed Me -  Anne Murray ( with lyrics ) (-X79Jko9bBI)
tp129
a(V"Whenever I Call You "Friend""
p130
VWhenever I Call You Friend - Kenny Loggins & Stevie Nicks (lyrics) HD (NWvU84hAriI)
tp131
a(V"MacArthur Park"
p132
VDonna Summer - MacArthur Park [Suite] (Casablanca Records 1977) (VF_o7aSjl_E)
tp133
a(V"Double Vision"
p134
VDouble Vision - Foreigner (oxKCPjcvbys)
tp135
a(V"How Much I Feel"
p136
VAmbrosia - How Much I Feel (with lyrics) (hQB5qpxcixc)
tp137
a(V"Beast of Burden"
p138
VThe Rolling Stones - Beast of Burden (1QT0m3lSMVw)
tp139
a(V"Get Off"
p140
VFoxy - Get Off (Rare 12" Inch Version) (M6lqTTyKeCs)
tp141
a(V"I Just Wanna Stop"
p142
VGino Vannelli - I Just Wanna Stop (From "Brother to Brother" Album) (z8e1SjBHSUM)
tp143
a(V"You Don't Bring Me Flowers"
p144
VNeil Diamond & Barbara Streisand, You Don't Bring Me Flowers (wj10EzNKA2M)
tp145
a(V"You Never Done It Like That"
p146
VCaptain & Tennille - You Never Done It Like That - 1979 (mLGho8jUbbQ)
tp147
a(V"Le Freak"
p148
VChic - Le Freak (h1qQ1SKNlgY)
tp149
a(V"I Love the Nightlife"
p150
VAlicia Bridges - I Love The Nightlife (HQ) (rQlxc-Jn294)
tp151
a(V"Time Passages"
p152
VAL STEWART "Time Passages" (pm6TsYypBpY)
tp153
a(V"(Our Love) Don't Throw it All Away"
p154
VAndy Gibb - Don't Throw it all Away (Our Love) (_ggtZHdmhqY)
tp155
a.