(lp1
(V"The Way You Love Me"
p2
VFaith Hill - "The Way You Love Me" (Official Video) (o8EamHKpdrM)
tp3
a(V"It Wasn't Me"
p4
VIt Wasn't Me, Shaggy ft. Rikrok [lyrics] (Vn6eMODM1zY)
tp5
a(V"Ms. Jackson"
p6
VOutKast - Ms. Jackson (MYxAiK6VnXw)
tp7
a(V"If You're Gone"
p8
VMatchbox Twenty - If You're Gone [OFFICIAL VIDEO] (clKAdQnwJ7A)
tp9
a(V"Dance with Me"
p10
VDebelah Morgan "Dance With Me" (8-4ifzbMqXM)
tp11
a(V"Liquid Dreams"
p12
VO-Town - Liquid Dreams (u7RPvOOjCvE)
tp13
a(V"Again"
p14
VLenny Kravitz - Again (eW2qlKa6oHw)
tp15
a(V"Love Don't Cost a Thing"
p16
VJennifer Lopez - Love Don't Cost a Thing (4kGvlESGvbs)
tp17
a(V"Don't Tell Me"
p18
VMadonna - Don't Tell Me (FRLHro9EPD0)
tp19
a(V"Stutter"
p20
VStutter- Joe ft Mystikal with lyrics (4faCJ0igxbs)
tp21
a(V"Angel"
p22
VShaggy - Angel ft. Rayvon (XWJrPzAUzAs)
tp23
a(V"Put It on Me"
p24
VJa Rule Feat. Lil' Mo & Vita - Put It On Me (HQ) (QM9uL8WG4ZY)
tp25
a(V"Butterfly"
p26
VCrazy Town - Butterfly (Official Video) (6FEDrU85FLE)
tp27
a(V"It's Over Now"
p28
V112 - IT'S OVER NOW **(LYRICS ON SCREEN)** (tUhxvBdIru0)
tp29
a(V"Promise"
p30
VJAGGED EDGE PROMISE LYRICS (MMreSGr7_Zo)
tp31
a(V"All for You"
p32
VJanet Jackson All For You Lyrics (nokGk8h5YDU)
tp33
a(V"Thank You"
p34
VDido - Thank You (1TO48Cnl66w)
tp35
a(V"Survivor"
p36
VDestiny's Child - Survivor (Official Video) ft. Da Brat (Wmc8bQoL-J0)
tp37
a(V"Get Over Yourself" \u25c1
p38
VEden's Crush - Get Over Yourself (mHdCSLeS2rc)
tp39
a(V"Jaded"
p40
VAerosmith - Jaded (qbexOeoH5hg)
tp41
a(V"Missing You"
p42
VCase - Missing You (2bnZTHLxhEo)
tp43
a(V"Stranger in My House"
p44
VTamia - Stranger In My House (diNyoOyTI5g)
tp45
a(V"Hanging by a Moment"
p46
VLifehouse - Hanging By A Moment (tPnK39ax_AM)
tp47
a(V"Ride wit Me"
p48
VRide Wit Me - Nelly ft. City Spud w/ lyrics (zaNcfKz6DeY)
tp49
a(V"Follow Me"
p50
VFollow Me Uncle Kracker Lyrics.wmv (yO9HPRU9AJo)
tp51
a(V"Lady Marmalade"
p52
VChristina Aguilera, Lil' Kim, Mya, Pink - Lady Marmalade (RQa7SvVCdZk)
tp53
a(V"Never Had a Dream Come True"
p54
VNever had a dream come true lyrics - S Club 7 (ehqHoeVG_w4)
tp55
a(V"What Would You Do?"
p56
VCity High - What Would You Do? (LahcSFleKm8)
tp57
a(V"I'm Like a Bird"
p58
VNelly Furtado - I'm Like A Bird (roPQ_M3yJTA)
tp59
a(V"Get Ur Freak On"
p60
VMissy Elliott - Get Ur Freak On [OFFICIAL VIDEO] (FPoKiGQzbSQ)
tp61
a(V"Fiesta"
p62
VR. Kelly & Jay Z "Fiesta " \u200c\u200c - Bohemia After Dark (1AzDWw40oDs)
tp63
a(V"My Baby"
p64
VMy Baby - Lil Romeo (with lyrics) (WPHAVrdEdyU)
tp65
a(V"Drops of Jupiter (Tell Me)"
p66
VTrain - Drops of Jupiter (Official Video) (7Xf-Lesrkuc)
tp67
a(V"Peaches & Cream"
p68
V112 - Peaches & Cream [Explicit] (07sz_7s9LUs)
tp69
a(V"Let Me Blow Ya Mind"
p70
VEve - Let Me Blow Ya Mind ft. Gwen Stefani (Wt88GMJmVk0)
tp71
a(V"There You'll Be"
p72
VFaith Hill - There You'll Be [Official Music Video] (BwyWmqV_RJc)
tp73
a(V"U Remind Me"
p74
VUsher - U Remind Me [Lyrics Video] (dc4Xz4Afw5k)
tp75
a(V"Hit 'Em Up Style (Oops!)"
p76
VBlu Cantrell - Hit 'Em Up Style (Oops!) (LMOKlXfXn50)
tp77
a(V"Bootylicious"
p78
VDestiny's Child - Bootylicious (IyYnnUcgeMc)
tp79
a(V"Drive"
p80
VIncubus - Drive (fgT9zGkiLig)
tp81
a(V"All or Nothing"
p82
VO-Town All or Nothing [lyrics] (X_YiXpG1ql0)
tp83
a(V"Loverboy"
p84
VMariah Carey Feat. Cameo - Loverboy [Music Video] 2001 (Phql0ar-m_0)
tp85
a(V"Fallin'"
p86
VAlicia Keys - Fallin' (Urdlvw0SSEc)
tp87
a(V"I'm Real"
p88
VJennifer Lopez - I'm Real (Remix) ft. Ja Rule (Sjx9oSJDAVQ)
tp89
a(V"Where the Party At"
p90
VJagged Edge featuring Nelly - Where The Party At ft. Nelly (9UCY_U4QwqI)
tp91
a(V"It's Been Awhile"
p92
VStaind - It's Been Awhile (Video) (araU0fZj6oQ)
tp93
a(V"Someone to Call My Lover"
p94
VJanet Jackson - Someone To Call My Lover . Live In Hawaii 2OO2 (wE6LsoHKWGI)
tp95
a(V"Family Affair"
p96
VMary J. Blige - Family Affair (znlFu_lemsU)
tp97
a(V"You Rock My World"
p98
VMichael Jackson - You Rock My World (Extended Version) (1-7ABIM2qjU)
tp99
a(V"Izzo (H.O.V.A.)"
p100
VJAY-Z - Izzo (H.O.V.A.) (1tWmyPMf3wU)
tp101
a(V"Differences"
p102
VGinuwine - Differences (wg2OWNKAbw0)
tp103
a(V"The Star Spangled Banner"
p104
VWhitney Houston - Star Spangled Banner (N_lCmBvYMRs)
tp105
a(V"Hero"
p106
VEnrique Iglesias - Hero (koJlIGDImiU)
tp107
a(V"Turn Off the Light"
p108
VNelly Furtado - Turn Off The Light (kOL7aeIDruA)
tp109
a(V"U Got It Bad"
p110
VUsher - U Got It Bad (o3IWTfcks4k)
tp111
a(V"Livin' It Up"
p112
VJa Rule Feat. Case - Livin' It Up (HD) (2l9GFA1ATEM)
tp113
a(V"Only Time"
p114
VEnya - Only Time (Official Music Video) (7wfYIMyS_dI)
tp115
a(V"How You Remind Me"
p116
VNickelback - How You Remind Me (Video) (p47CgsSz4dE)
tp117
a(V"Emotion"
p118
VDestiny's Child - Emotion (xWKdMmH0B-E)
tp119
a(V"Get the Party Started"
p120
VP!nk - Get The Party Started (MattyBRaps ft Haschak Sisters & Adee Sisters) (NrJ47F0aFOA)
tp121
a(V"Whenever, Wherever"
p122
VShakira - Whenever, Wherever (weRHyjj34ZE)
tp123
a.