(lp1
(V"You're So Vain"
p2
VCarly Simon - You're So Vain (mQZmCJUSC6g)
tp3
a(V"Funny Face"
p4
VDonna Fargo - Funny Face 1972 (NVQQNqorhVA)
tp5
a(V"Rockin' Pneumonia and the Boogie Woogie Flu"
p6
VJOHNNY RIVERS- "ROCKIN' PNEUMONIA AND THE BOOGIE WOOGIE FLU" (ly_KP3WfQ4Y)
tp7
a(V"Your Mama Don't Dance"
p8
VLoggins and Messina: Your Mama don't dance. (2hlMi6PvUDE)
tp9
a(V"Superfly"
p10
VCurtis Mayfield - Superfly (-cmo6MRYf5g)
tp11
a(V"Superstition"
p12
VStevie Wonder Superstition (0CFuCYNx-1g)
tp13
a(V"Crocodile Rock"
p14
VElton John - Crocodile Rock (QS-YZlJLCbM)
tp15
a(V"Keeper of the Castle"
p16
VTHE FOUR TOPS keeper of the castle (3d4UxS5l7iw)
tp17
a(V"Why Can't We Live Together"
p18
VTimmy Thomas - Why can't we live together (cFU-FJzPE80)
tp19
a(V"Oh Babe What Would You Say?"
p20
VHurricane Smith performs  Oh babe what would you say Rare Original Footage  1972 (qnxoTCvklKQ)
tp21
a(V"Trouble Man"
p22
VMarvin Gaye trouble man (NbHeNkqRWtI)
tp23
a(V"The World Is a Ghetto"
p24
VWAR ~ The World Is A Ghetto (oKKMdmPBWRk)
tp25
a(V"Do It Again"
p26
VSteely Dan \u300aDo It Again\u300b (sound from original studio version) (tgYuLsudaJQ)
tp27
a(V"Hi, Hi, Hi"
p28
VPaul McCartney & Wings - Hi, Hi, Hi (BAM55FPpHpU)
tp29
a(V"Could It Be I'm Falling in Love"
p30
VThe Spinners - Could It Be I'm Falling in Love (P3QlVnnfc-Q)
tp31
a(V"Don't Expect Me to Be Your Friend"
p32
VLobo   Don't Expect Me to Be Your Friend with lyrics (966iHzY9vQQ)
tp33
a(V"Killing Me Softly with His Song"
p34
VRoberta Flack - Killing Me Softly With His Song (LQ2t5e7stVM)
tp35
a(V"Dueling Banjos"
p36
VEric Weissberg & Steve Mandell - Dueling Banjos (YchKLJGWJA4)
tp37
a(V"Rocky Mountain High"
p38
VJohn Denver - Rocky Mountain High (eOB4VdlkzO4)
tp39
a(V"Love Train"
p40
VLove train - The O'Jays (HQ) with lyrics (kQvmCzILBfE)
tp41
a(V"Last Song"
p42
VLast Song - Edward Bear (hNowpI2XfVc)
tp43
a(V"Also Sprach Zarathustra (2001)"
p44
VDeodato - Also sprach Zarathustra (RJKsp9_L24Q)
tp45
a(V"The Cover of Rolling Stone"
p46
VDr Hook & The Medicine Show -  "Cover Of The Rolling Stone" (4up6_OphOMY)
tp47
a(V"Daddy's Home"
p48
VJermaine Jackson 5 - Daddy's Home (1972) HQ (IDsrKAb2pgI)
tp49
a(V"Neither One of Us (Wants to Be the First to Say Goodbye)"
p50
VGladys Knight & The Pips - Neither One of Us (Wants to Be the First To Say Goodbye) (eJmplWfWAPU)
tp51
a(V"Danny's Song"
p52
VAnne Murray  "Danny's Song" (9D7ultFfoiM)
tp53
a(V"Ain't No Woman (Like the One I've Got)"
p54
VTHE FOUR TOPS ain't no woman (like the one i've got) (MYY1PPIC5xE)
tp55
a(V"Break Up to Make Up"
p56
VBREAK UP TO MAKE UP - STYLISTICS (j6ez8MeAhpw)
tp57
a(V"The Night the Lights Went Out in Georgia"
p58
VVicki Lawrence  - The Night The Lights Went Out In Georgia.mp4 (vrQvOvu_eRc)
tp59
a(V"Sing"
p60
VThe Carpenters classic : "SING"      (Peacewalker) (iYjcNR7W-Ow)
tp61
a(V"Tie a Yellow Ribbon Round the Ole Oak Tree"
p62
VTony Orlando & Dawn ~ Tie a Yellow Ribbon Round the Ole Oak Tree (wWn1Oj2V7Xw)
tp63
a(V"The Cisco Kid"
p64
VThe Cisco kid- War (nEDB62oKv2M)
tp65
a(V"Call Me (Come Back Home)"
p66
VAl Green - Call Me (Come Back Home)[HQ] (x9dDQUkFG8Y)
tp67
a(V"Little Willy"
p68
Vlittle willy lyrics~sweet (4FguJqN5VQw)
tp69
a(V"Masterpiece"
p70
VMASTERPIECE   THE TEMPTATIONS 1973 (CMzXt4rwVoQ)
tp71
a(V"The Twelfth of Never"
p72
VDonny Osmond - The twelfth of never 1973 (T4NZYHxgpog)
tp73
a(V"You Are the Sunshine of My Life"
p74
VStevie Wonder   You Are The Sunshine Of My Life (3wZ_b_uUAdQ)
tp75
a(V"Stuck in the Middle with You"
p76
VStealers Wheel - Stuck in the middle with you (5ukstws19D4)
tp77
a(V"Frankenstein"
p78
VFrankenstein - The Edgar Winter Group (1972) (NIldF-pGUCU)
tp79
a(V"Drift Away"
p80
VDobie gray- drift away (gr_eVcCAUXo)
tp81
a(V"Daniel"
p82
VElton John- Daniel (UA78e27R_J4)
tp83
a(V"My Love"
p84
VPaul McCartney & Wings - My Love [High Quality] (vx5QxoWCG-I)
tp85
a(V"Pillow Talk"
p86
VSylvia  -  Pillow Talk (NA2X1040_gY)
tp87
a(V"Wildflower"
p88
VWildflower - Skylark  [HD] (YQ8n_Esop5I)
tp89
a(V"Hocus Pocus"
p90
VFocus - Hocus Pocus (RFDW9b_ejfI)
tp91
a(V"Playground In My Mind"
p92
VClint Holmes - Playground In My Mind (7MKWysTzeYA)
tp93
a(V"I'm Gonna Love You Just a Little More Baby"
p94
VI'm Gonna Love You Just A Little Bit More, Baby - Barry White (1973) (2YChL6tQvcY)
tp95
a(V"Long Train Runnin'"
p96
VDoobie Brothers  -  Long Train Running (HP_NE4XZGAc)
tp97
a(V"Give Me Love (Give Me Peace on Earth)"
p98
VGeorge Harrison-Give Me Love (Give Me Peace On Earth) (s-KAvPbO8JY)
tp99
a(V"Will It Go Round in Circles"
p100
VBilly Preston - Will It Go Round in Circles (ghj5V5cUo1s)
tp101
a(V"Kodachrome"
p102
VPaul Simon - Kodachrome + lyrics (pLsDxvAErTU)
tp103
a(V"Right Place, Wrong Time"
p104
VDr. John: Right Place Wrong Time (G5zPqgQ67yo)
tp105
a(V"Shambala"
p106
VTHREE DOG NIGHT- "SHAMBALA" (W/LYRICS) (UmTx9y7ePTg)
tp107
a(V"Bad, Bad Leroy Brown"
p108
VJim Croce - Bad Bad Leroy Brown (QvwDohEEQ1E)
tp109
a(V"Yesterday Once More"
p110
VThe Carpenters - Yesterday Once More (INCLUDES LYRICS) (YTaWayUE5XA)
tp111
a(V"Smoke on the Water"
p112
VDeep Purple - Smoke on the Water (zUwEIt9ez7M)
tp113
a(V"Boogie Woogie Bugle Boy"
p114
VBette Midler as Delores De Lago: "Boogie Woogie Bugle Boy" (xcWR41NpQn4)
tp115
a(V"Natural High"
p116
VBLOODSTONE - NATURAL HIGH (t0KzLo0-6Ro)
tp117
a(V"The Morning After"
p118
VThe Morning After by Maureen McGovern (_KClpLzFftU)
tp119
a(V"Diamond Girl"
p120
VSeals and Crofts Diamond Girl (RC-oP84mRME)
tp121
a(V"Touch Me in the Morning"
p122
VTouch Me In The Morning - Diana Ross (qa-mjjdt24g)
tp123
a(V"Brother Louie"
p124
VStories - Brother Louie ('73) (Wut2P6sgHos)
tp125
a(V"Live and Let Die"
p126
VLive And Let Die - Paul McCartney & Wings (swVoXHVW-jI)
tp127
a(V"Let's Get It On"
p128
VMarvin Gaye - Lets get it on (x6QZn9xiuOE)
tp129
a(V"Uneasy Rider"
p130
VCharlie Daniels Uneasy Rider (952h-AJ3Bcg)
tp131
a(V"Monster Mash"
p132
VMONSTER MASH ~ Bobby "Boris" Pickett & The Crypt-Kickers (1962) (-tHyRQOdqf0)
tp133
a(V"Delta Dawn"
p134
VDelta Dawn Helen Reddy (afsp7MU-nTI)
tp135
a(V"Get Down"
p136
VGet Down - Gilbert O'Sullivan (nXl5P2xO9-o)
tp137
a(V"Feelin' Stronger Every Day"
p138
VChicago Feelin' Stronger Everyday (4PvN7ujfj2w)
tp139
a(V"Say, Has Anybody Seen My Sweet Gypsy Rose"
p140
VTony Orlando & Dawn - Say Has Anybody Seen My Sweet Gypsy Rose ( 1973 ) (3Q-m_CxQacM)
tp141
a(V"Loves Me Like a Rock"
p142
VPaul Simon - Loves Me Like a Rock + lyrics (h3BJl5Zy7HQ)
tp143
a(V"We're an American Band"
p144
VGrand Funk Railroad - We're an American Band (Zc_JcGuH5Z8)
tp145
a(V"Gypsy Man"
p146
VWAR -Gypsy Man 1973 (VTXiVeqnppU)
tp147
a(V"Here I Am (Come and Take Me)"
p148
VAl Green-Here i am baby (come and take me) (l73FkH3v7yg)
tp149
a(V"Half-Breed"
p150
VCher - Half Breed (Z6E98ZRaU1s)
tp151
a(V"Higher Ground"
p152
VHigher Ground - Stevie Wonder (1973) (X00XdLhFLSg)
tp153
a(V"That Lady"
p154
VThe Isley Brothers-Who's That lady (q1DDgNCLD84)
tp155
a(V"Ramblin' Man"
p156
VAllman Brothers Band - Ramblin' Man (6VxoXn-0Ezs)
tp157
a(V"My Maria"
p158
VBW Stevenson - My Maria (JdBvTvxHy7E)
tp159
a(V"Angie"
p160
VRolling Stones - Angie (HQ) (K5_EBAzIPJM)
tp161
a(V"Keep on Truckin'"
p162
VKeep On Truckin' - Eddie Kendricks (1973) (6zIUJFYqVgg)
tp163
a(V"Midnight Train to Georgia"
p164
VMidnight Train To Georgia - Gladys Knight & The Pips with lyrics (meaVNHch96o)
tp165
a(V"Heartbeat (It's a Love Beat)"
p166
VDeFranco Family: Heartbeat, Its A Lovebeat (I3Iw2qYtN8A)
tp167
a(V"Paper Roses"
p168
VMarie Osmond - "Paper Roses" (hRM9ObEUDJ8)
tp169
a(V"Space Race"
p170
VBilly Preston - Space Race (MWgb8ydtM2c)
tp171
a(V"All I Know"
p172
VArt Garfunkel     All I Know (33aoxUeAw0E)
tp173
a(V"Photograph"
p174
VRingo Starr-Photograph (t6CMSuT98-E)
tp175
a(V"Top of the World"
p176
VThe Carpenters - Top Of The World\u2665 (6gRiWWcBKvs)
tp177
a(V"Just You 'n' Me"
p178
VChicago   Just You 'N' Me (0sgenkjmXZ4)
tp179
a(V"I Got a Name"
p180
VJim Croce - Greatest Hits - I Got A Name (hHVBzLGAIbU)
tp181
a(V"Goodbye Yellow Brick Road"
p182
VElton John - Goodbye Yellow Brick Road Lyrics (DDOL7iY8kfo)
tp183
a(V"The Love I Lost"
p184
VHarold Melvin & The Blue Notes The Love I Lost (dhtFzdpudOk)
tp185
a(V"The Most Beautiful Girl"
p186
VCharlie Rich - \u266b The Most Beautiful Girl \u266b (1973) (ew9f-Pq3Wsk)
tp187
a(V"Leave Me Alone (Ruby Red Dress)"
p188
VHelen Reddy-  Leave Me Alone ( Ruby Red Dress )!  The 1973 Hit  Pop Single. (ULKEBJRC0gs)
tp189
a(V"Hello It's Me"
p190
VTodd Rundgren - Hello It's Me  (1972) (lLeCB7Kn-VE)
tp191
a(V"Time in a Bottle"
p192
VJim Croce - Time in a bottle - 1973 (dO1rMeYnOmM)
tp193
a(V"If You're Ready (Come Go with Me)"
p194
VThe Staple Singers - If You're Ready (Come Go with Me) (6blBC9Vo904)
tp195
a.