(lp1
(V"Saturday Night"
p2
VS-A-T-U-R-D-A-Y NIGHT! Bay City Rollers (dBn2ux5vRHk)
tp3
a(V"Theme from Mahogany (Do You Know Where You're Going To)"
p4
VDiana Ross - Theme From Mahogany (Do You Know Where You're Going To) (3DnxTvqOe-I)
tp5
a(V"Love Rollercoaster"
p6
VOhio Players-Love Rollercoaster (Studio Version) HQ (sR9CRxY9Ne0)
tp7
a(V"Fox on the Run"
p8
VSweet - Fox On The Run (HD High Definition) Top Of The Pops 13th March 1975 (wjfZG9UzK7E)
tp9
a(V"I Write the Songs"
p10
VBarry Manilow - I write the songs (w-fev20voMc)
tp11
a(V"Convoy"
p12
VC.W. McCALL - CONVOY 1975 (Audio Enhanced) (xN4XpIbEY-Y)
tp13
a(V"I Love Music"
p14
VThe O'Jays - I Love Music (1975) (e_1s2UFc_z8)
tp15
a(V"Love to Love You Baby"
p16
VDonna Summer --- Love to love you baby (UPXizlnS7go)
tp17
a(V"Times of Your Life"
p18
VTimes Of Your Life with Lyrics - Paul Anka (wtxanSrNdN8)
tp19
a(V"You Sexy Thing"
p20
VHot Chocolate- You Sexy Thing (original) (YUY9Y9RFiHY)
tp21
a(V"Walk Away from Love"
p22
VDavid Ruffin - Walk Away From Love (QmneugiD7Ig)
tp23
a(V"Sing a Song"
p24
VEarth, Wind & Fire - Sing a Song (HBpsOu8jyU8)
tp25
a(V"50 Ways to Leave Your Lover"
p26
VPaul Simon - 50 Ways to Leave Your Lover + lyrics (298nld4Yfds)
tp27
a(V"Theme from S.W.A.T."
p28
VRhythm Heritage - Theme from SWAT (21OCh6Znel4)
tp29
a(V"Breaking Up Is Hard to Do"
p30
VBREAKING UP IS HARD TO DO - NEIL SEDAKA (XQD3At3E7TA)
tp31
a(V"Love Machine"
p32
VThe Miracles - Love Machine (513jP1SUgnQ)
tp33
a(V"Evil Woman"
p34
VElectric Light Orchestra- Evil Woman (R20f-TPKjzc)
tp35
a(V"All by Myself"
p36
VEric Carmen - All By MySelf (HQ) (EzoazPPC7b8)
tp37
a(V"Take It to the Limit"
p38
VTake it to the limit-The Eagles 3.avi (dyLhMgB_hcE)
tp39
a(V"December, 1963 (Oh, What a Night)"
p40
VThe Four Seasons - December, 1963 (Oh, What a Night) (liyiT_DGREA)
tp41
a(V"Dream Weaver"
p42
V\u2665 \u266b \u266a Gary Wright: Dream Weaver, Album/Studio Version HQ \u2665 \u266b \u266a (n-DmAh0dObI)
tp43
a(V"Lonely Night"
p44
VCaptain & Tennille ~ Lonely Night (Angel Face) (OzD6E9-jTWA)
tp45
a(V"Love Hurts"
p46
Vnazareth love hurts (1976) (soDZBW-1P04)
tp47
a(V"Sweet Thing"
p48
VSweet Thing - Rufus & Chaka Khan (bFKXGVtXq8s)
tp49
a(V"Junk Food Junkie"
p50
VLarry Groce - Junk Food Junkie (1976) (jQnIL-XPerQ)
tp51
a(V"Disco Lady"
p52
VJohnnie Taylor - Disco Lady (Long Version) (dDpC5YUhE5Y)
tp53
a(V"Dream On"
p54
VDream On by Aerosmith lyrics (hHRNSeuvzlM)
tp55
a(V"Let Your Love Flow"
p56
VLet Your Love Flow - Bellamy Brothers Lyrics (J4Bl_VQ2inM)
tp57
a(V"Right Back Where We Started From"
p58
VMaxine Nightingale - Right Back Where We Started From (ckCwBAhz4oc)
tp59
a(V"Money Honey"
p60
VBAY CITY ROLLERS- MONEY HONEY (BAupAvfTq2A)
tp61
a(V"Golden Years"
p62
VDavid Bowie - Golden Years (HRD0ghlFSgk)
tp63
a(V"Boogie Fever"
p64
VThe Sylvers - Boogie Fever (Midnight Special 1976) (YHKCHvpYq_8)
tp65
a(V"Sweet Love"
p66
V\u273f THE COMMODORES - Sweet Love (1976) \u273f (OPT3ZzxJlRM)
tp67
a(V"Only Sixteen"
p68
VDr Hook  -  "Only Sixteen" (olQNes_mq8I)
tp69
a(V"Bohemian Rhapsody"
p70
VQueen - Bohemian Rhapsody (Official Video) (fJ9rUzIMcZQ)
tp71
a(V"Show Me the Way"
p72
VPeter Frampton - Show Me The Way (Live Midnight Special 1975).avi (zLgeTtYwQ7o)
tp73
a(V"Welcome Back"
p74
VJohn Sebastian - Welcome Back (GGlY3ubGzUY)
tp75
a(V"Fooled Around and Fell in Love"
p76
V5. Elvin Bishop - Fooled Around and Fell in Love (DyMMEmwFQUE)
tp77
a(V"Love Hangover"
p78
VDiana Ross - Love Hangover (Full Version) (Slayd5000) (niEYaeYa72U)
tp79
a(V"Silly Love Songs"
p80
VSILLY LOVE SONGS   Paul McCartney  Wings   1976 HQ] (WC6_Dgrw5e0)
tp81
a(V"Get Up and Boogie"
p82
VGet up and Boogie that's Right  Silver Convention (7-L31ffPRdk)
tp83
a(V"Happy Days"
p84
VPratt & McClain - Happy Days 1974 - 1984 (-Tqc4FKNzWU)
tp85
a(V"Shannon"
p86
VShannon- Henry Gross (R5Wpn3dFrEs)
tp87
a(V"Misty Blue"
p88
VMISTY BLUE DOROTHY MOORE (RMONGMDEerI)
tp89
a(V"Tryin' to Get the Feeling Again"
p90
VTryin' to Get The Feeling Again - Barry Manilow (live 2000) (wPP4wYhY5xU)
tp91
a(V"Sara Smile"
p92
VHall & Oates-Sara Smile (Red3R17FlUQ)
tp93
a(V"Shop Around"
p94
VCaptain And Tennille - "Shop Around" (Rraiqec67J0)
tp95
a(V"Fool to Cry"
p96
VThe Rolling Stones- Fool to Cry (Teo0LYxjxvI)
tp97
a(V"More, More, More"
p98
VThe Andrea True Connection - More, More, More (Lyrics) (kczErPNrKp4)
tp99
a(V"Afternoon Delight"
p100
VStarland Vocal Band ~ Afternoon Delight  (HQ) (QEupNTQm-lA)
tp101
a(V"I'll Be Good to You"
p102
VThe Brothers Johnson-I'll Be Good To You (x4FCs4p9oqA)
tp103
a(V"Kiss and Say Goodbye"
p104
VKiss and Say Goodbye, Manhattan (Lyrics) (sARlnKk23xw)
tp105
a(V"Love Is Alive"
p106
VGary Wright - Love Is Alive (82DSEkHatpw)
tp107
a(V"Got to Get You into My Life"
p108
VThe Beatles - Got To Get You Into My Life (uWjEQsAYB9A)
tp109
a(V"Moonlight Feels Right"
p110
VMoonlight Feels Right - Starbuck - HQ Audio))) (MD-7ly19vTE)
tp111
a(V"Rock and Roll Music"
p112
VRock and Roll Music- The Beach Boys (vS3h5oGEuqk)
tp113
a(V"Don't Go Breaking My Heart"
p114
VDon't Go Breaking My Heart - Elton John & Kiki Dee (EQmRgFzg0jI)
tp115
a(V"Get Closer"
p116
VSeals & Crofts - Get Closer- with Carolyn Willis Live 1976               Seals & Crofts Fans\u266b\u266b\u266b (vlD3zN_vzrs)
tp117
a(V"Let Her In"
p118
VJohn Travolta  - Let Her In (1976) (fZFM4Zx2JNU)
tp119
a(V"Let 'Em In"
p120
VPaul McCartney & Wings - Let 'Em In (0y0v7zpHJkU)
tp121
a(V"You Should Be Dancing"
p122
VBee Gees- You Should Be Dancing (CaXdTe2TYhs)
tp123
a(V"You'll Never Find Another Love Like Mine"
p124
VYou'll Never Find Another Love Like Mine (XCW1i5HQ0o0)
tp125
a(V"(Shake, Shake, Shake) Shake Your Booty"
p126
V(Shake, Shake, Shake) Shake Your Booty - KC & The Sunshine Band (1976) (N1YXcD0njts)
tp127
a(V"I'd Really Love to See You Tonight"
p128
VEngland Dan & John Ford Coley - I'd Really Love To See You Tonight (tiiPdARuPh8)
tp129
a(V"Turn the Beat Around"
p130
VTURN THE BEAT AROUND / VICKY SUE ROBINSON (TRSzZsQV5fc)
tp131
a(V"Play That Funky Music"
p132
VWild Cherry - Play That Funky Music (qe1ScoePqVA)
tp133
a(V"A Fifth of Beethoven"
p134
VWALTER MURPHY & THE BIG APPLE BAND - A Fifth Of Beethoven (kGQVETVVGf0)
tp135
a(V"This Masquerade"
p136
Vgeorge benson this masquerade (sgl1hQmjITY)
tp137
a(V"Lowdown"
p138
VBoz Scaggs - Lowdown (I-hKBmTAADo)
tp139
a(V"Summer"
p140
VSUMMER (Original Full-Length Album Version) - War (gSQAlfyaKyc)
tp141
a(V"If You Leave Me Now"
p142
VChicago - If You Leave Me Now (OlKaVFqxERk)
tp143
a(V"Devil Woman"
p144
VCliff Richard - Devil Woman [HQ stereo] (7tuAkdlLhTE)
tp145
a(V"Disco Duck"
p146
VRick Dees and his Cast of Idiots - Disco Duck  TOTP ( 1976 ) (ynWhozyOoZQ)
tp147
a(V"Still the One"
p148
VOrleans - Still The One (with lyrics) (S5aMMRes2u4)
tp149
a(V"She's Gone"
p150
VHALL & OATES-She's Gone (The Essential DARYL HALL & JOHN OATES) (jpR8r0D2EyY)
tp151
a(V"Rock'n Me"
p152
VSteve Miller Band - ROCK 'N ME (vUHtJJ1Fgjs)
tp153
a(V"Love So Right"
p154
VThe Bee Gees - Love So Right (GfV51KD1TJQ)
tp155
a(V"The Wreck of the Edmund Fitzgerald"
p156
VThe Wreck of the Edmund Fitzgerald (hgI8bta-7aw)
tp157
a(V"Muskrat Love"
p158
VCaptain & Tennille  MUSKRAT LOVE (xBYV_7a0FQs)
tp159
a(V"Magic Man"
p160
VHeart-Magic Man (3vlAdMeZSfw)
tp161
a(V"Tonight's the Night"
p162
VRod Stewart - Tonight's The Night [Gonna Be Alright] (IZr6AE-u2UM)
tp163
a(V"Just to Be Close to You"
p164
VTHE COMMODORES     Just to be close to you. (28HZKzpIUgw)
tp165
a(V"The Rubberband Man"
p166
VSpinners - Rubberband Man (-tvvQQmi7HY)
tp167
a(V"Do You Feel Like We Do"
p168
VDo you feel like we do Full Version (V9Yq5m9eLIQ)
tp169
a(V"Beth" / "Detroit Rock City"
p170
VKISS - Detroit Rock City (0R5J6dvpujs)
tp171
a(V"More Than a Feeling"
p172
VBoston- More than A Feeling (SSR6ZzjDZ94)
tp173
a(V"Nadia's Theme"
p174
VBarry DeVorzon-Perry Botkin, Jr. - Nadia's Theme (By Request) (jS9ewi3iGnQ)
tp175
a(V"You Are the Woman"
p176
VFirefall - You Are The Woman (HD with lyrics) (mCXdZU-ScuM)
tp177
a(V"Nights Are Forever Without You"
p178
VNights Are Forever Without You - England Dan & John Ford Coley (rR45JW9buOo)
tp179
a(V"Sorry Seems to Be the Hardest Word"
p180
VElton John - Sorry Seems To Be The Hardest Word (c3nScN89Klo)
tp181
a.