(lp1
(V"The Girl Is Mine"
p2
VMichael Jackson - The Girl Is Mine ft. Paul McCartney (rHp0s2wKajw)
tp3
a(V"Dirty Laundry"
p4
VDon Henley - Dirty Laundry (With Lyrics) (MNC4FHR4XLA)
tp5
a(V"Sexual Healing"
p6
VMarvin Gaye - Sexual Healing (rjlSiASsUIs)
tp7
a(V"Down Under"
p8
VMen At Work - Down Under (XfR9iY5y94s)
tp9
a(V"Africa"
p10
VToto - Africa (FTQbiNvZqaY)
tp11
a(V"Baby, Come to Me"
p12
VJames Ingram Feat Patti Austin - Baby Come To Me (31GPyi9WsWY)
tp13
a(V"Rock the Casbah"
p14
VThe Clash - Rock the Casbah (bJ9r8LMU9bQ)
tp15
a(V"Heartbreaker"
p16
VDionne Warwick - HEARTBREAKER (with Lyrics) (8VCuCm6XKeA)
tp17
a(V"Shame on the Moon"
p18
VBob Seger & The Silver Bullet Band - Shame on the moon (UfWnIr_-_SA)
tp19
a(V"You and I"
p20
VEddie Rabbitt & Crystal Gayle - You And I With lyrics (WZ8NWiG3h4Y)
tp21
a(V"You Can't Hurry Love"
p22
VPhil Collins - You Can't Hurry Love [Official Music Video] (sttWmXkYkd8)
tp23
a(V"Stray Cat Strut"
p24
VStray Cats - Stray Cat Strut (mbAyj1h9vI0)
tp25
a(V"Billie Jean"
p26
VMichael Jackson - Billie Jean (Zi_XLOBDo_Y)
tp27
a(V"Do You Really Want to Hurt Me"
p28
VCulture Club - Do You Really Want To Hurt Me (2nXGPZaTKik)
tp29
a(V"Hungry Like the Wolf"
p30
VDuran Duran hungry like the wolf with lyrics (IxW0n5Fe5CY)
tp31
a(V"We've Got Tonight"
p32
VKenny Rogers & Sheena Easton - We've Got Tonight [w/ lyrics] (533wrou5ONw)
tp33
a(V"Pass the Dutchie"
p34
VMusical Youth   Pass the Dutchie (dFtLONl4cNc)
tp35
a(V"Back on the Chain Gang"
p36
VThe Pretenders.- Back on the chain gang (rkwYhp-1LKk)
tp37
a(V"You Are"
p38
VLIONEL RICHIE  -  You Are (Gg6sVDcJdhk)
tp39
a(V"Separate Ways (Worlds Apart)"
p40
VJourney - Separate Ways (Worlds Apart) (LatorN4P9aA)
tp41
a(V"One on One"
p42
VHall & Oates- One on One (qsxa8d9Tp9s)
tp43
a(V"Mr. Roboto"
p44
VMr. Roboto- Styx (3cShYbLkhBc)
tp45
a(V"Twilight Zone"
p46
VGolden Earring-Twilight Zone (Extended Version) (eP05iSzpz94)
tp47
a(V"Come on Eileen"
p48
VDEXY'S MIDNIGHT RUNNERS  - COME ON  EILEEN (HD) (b8ORHVdTxbg)
tp49
a(V"Jeopardy"
p50
VGreg Kihn Band   Jeopardy (yAJNwPWVmNc)
tp51
a(V"Beat It"
p52
VMichael Jackson - Beat It (Digitally Restored Version) (oRdxUFDoQe0)
tp53
a(V"Der Kommissar"
p54
VAfter The Fire - Der Kommissar (vBfFDTPPlaM)
tp55
a(V"Let's Dance"
p56
VDavid Bowie - Let's Dance (Official Video) (B2HWuR2mq5M)
tp57
a(V"She Blinded Me with Science"
p58
VThomas Dolby- She Blinded Me With Science (nMWGXt979yg)
tp59
a(V"Overkill"
p60
VMen At Work - Overkill (RY7S6EgSlCI)
tp61
a(V"Little Red Corvette"
p62
VPrince - Little Red Corvette (PbQDLsVHeH0)
tp63
a(V"I Won't Hold You Back"
p64
Vi wont hold you back by Toto with lyrics (2k1RUGWkf9o)
tp65
a(V"Flashdance... What a Feeling"
p66
VFlashdance What A Feeling - Irene Cara Official Video (ILWSp0m9G2U)
tp67
a(V"Solitaire"
p68
VLaura Branigan (clip) - Solitaire (ztqYW4R53M8)
tp69
a(V"My Love"
p70
VLionel Richie - My Love (with lyrics) (Ge-AaUM7VZQ)
tp71
a(V"Time (Clock of the Heart)"
p72
VCulture Club - Time (Clock Of The Heart) (8tI1_KlO6xI)
tp73
a(V"Straight from the Heart"
p74
VBryan Adams - Straight From The Heart (-ebtjgK8NNU)
tp75
a(V"Always Something There to Remind Me"
p76
VNaked Eyes: Theres Always Something There to Remind Me (v2nUtpv0IAQ)
tp77
a(V"Don't Let It End"
p78
VDon't Let It End With Lyrics By  Styx (CWd-MfzqFgo)
tp79
a(V"Affair of the Heart"
p80
VRick Springfield - Affair of the Heart (-Fn3Ze8xVOE)
tp81
a(V"Electric Avenue"
p82
VEddy Grant-Electric Avenue (IuwxZSIS__4)
tp83
a(V"Family Man"
p84
VFamily Man-John Oates&Dary Hall WITH LYRICS!!! (AYhhTqv-U6c)
tp85
a(V"Every Breath You Take"
p86
VThe Police - Every Breath You Take (OMOGaugKpzs)
tp87
a(V"Never Gonna Let You Go"
p88
VSergio Mendez - Never Gonna Let You Go [w/ lyrics] (xwKxfHK92IM)
tp89
a(V"Too Shy"
p90
VToo Shy - Kajagoogoo (qsjzcT1QKYs)
tp91
a(V"Wanna Be Startin' Somethin'"
p92
VMichael Jackson - Wanna Be Startin' Somethin' (w8DKD0PoRSI)
tp93
a(V"She's a Beauty"
p94
VThe Tubes - She's A Beauty (mQ_k_VG6Syc)
tp95
a(V"Come Dancing"
p96
VCome Dancing - The Kinks (gs2kFrGluKs)
tp97
a(V"Our House"
p98
VMadness - Our House (rXuvdeEC5y8)
tp99
a(V"Is There Something I Should Know?"
p100
VDuran Duran - Is There Something I Should Know? (3M0hogZyRyU)
tp101
a(V"Stand Back"
p102
VStevie Nicks - Stand Back (Music Video) (-gSKeCvSCpw)
tp103
a(V"She Works Hard for the Money"
p104
VDonna Summer She Works Hard For The Money HQ promo version (MX7MbG6MiQs)
tp105
a(V"Sweet Dreams (Are Made of This)"
p106
VEurythmics - Sweet Dreams (Are Made Of This) (Official Video) (qeMFqkcPYcg)
tp107
a(V"Maniac"
p108
VMichael Sembello - Maniac (qvYQ1TNbf2g)
tp109
a(V"It's a Mistake"
p110
VMen At Work - It's a Mistake (I0AxrOUJ62E)
tp111
a(V"(Keep Feeling) Fascination"
p112
VThe Human League - (Keep Feeling) Fascination (QqqBs6kkzHE)
tp113
a(V"Puttin' on the Ritz"
p114
VTaco - Puttin' on the Ritz (Original Uncensored Version) (OG3PnQ3tgzY)
tp115
a(V"I'll Tumble 4 Ya"
p116
VCulture Club - I'll Tumble 4 Ya (kwb9-OlQimc)
tp117
a(V"China Girl"
p118
VDavid Bowie - China Girl (E_8IXx4tsus)
tp119
a(V"The Safety Dance"
p120
VMen Without Hats - The Safety Dance HQ (Music Video) (1982) (T7hHx7gdN68)
tp121
a(V"Tell Her About It"
p122
VBilly Joel - Tell Her About It (p0pM5dm--yQ)
tp123
a(V"Human Nature"
p124
Vhuman nature - michael jackson (tKAh--ss1r0)
tp125
a(V"Total Eclipse of the Heart"
p126
VBonnie Tyler - Total Eclipse of the Heart (lcOxhH8N3Bo)
tp127
a(V"Making Love Out of Nothing at All"
p128
VAir Supply - Making love Out of nothing at all (video lyrics) (qEd6QUbK2Mw)
tp129
a(V"Don't Cry"
p130
VAsia - Don't Cry [HQ] (40nYZbX0uCM)
tp131
a(V"(She's) Sexy + 17"
p132
VStray Cats - (She's) Sexy & 17 (ZynIhCs27Xs)
tp133
a(V"King of Pain"
p134
VKing Of Pain - The Police (HQ Audio + Lyrics) (B3l0kpl5tA4)
tp135
a(V"True"
p136
VSpandau Ballet - True (AR8D2yqgQ1U)
tp137
a(V"Islands in the Stream"
p138
VDolly Parton & Kenny Rogers - Islands in the Stream *LYRICS ON SCREEN* (eI5EQUz1gCg)
tp139
a(V"Far from Over"
p140
VFar From Over-Frank Stallone (zwyLOkbO5nw)
tp141
a(V"One Thing Leads to Another"
p142
VThe Fixx - One Thing Leads To Another (JHYIGy1dyd8)
tp143
a(V"All Night Long (All Night)"
p144
VLionel Richie - All Night Long (All Night) (nqAvFx3NxUM)
tp145
a(V"Delirious"
p146
VDelirious (In the Style of Prince) (Karaoke Version) (5sPwIsK1Ftw)
tp147
a(V"Burning Down the House"
p148
VTalking Heads - Burning Down The House (hATjg5VxJag)
tp149
a(V"Telefone (Long Distance Love Affair)"
p150
VSheena Easton - Telefone (Long Distance Love Affair) (tmZGv8h1cNg)
tp151
a(V"Uptown Girl"
p152
VBilly Joel - Uptown Girl (hCuMWrfXG4E)
tp153
a(V"Say Say Say"
p154
VMichael Jackson & Paul McCartney- Say Say Say (HD 720P Best Print) (QC2Grms55Fw)
tp155
a(V"Cum on Feel the Noize"
p156
VQuiet Riot - Come On Feel The Noize (Haypxj24_Uw)
tp157
a(V"Suddenly Last Summer"
p158
VThe Motels - Suddenly Last Summer (b9Ox-lGm-wA)
tp159
a(V"Love Is a Battlefield"
p160
VPat Benatar - Love Is A Battlefield (IGVZOLV9SPo)
tp161
a(V"Say It Isn't So"
p162
VSay It Isn't So (original version) - Hall & Oates (QQverCSdjh4)
tp163
a(V"Heart and Soul"
p164
VHuey Lewis And The News - Heart And Soul (8TdaXhpjHws)
tp165
a(V"Crumblin' Down"
p166
VJohn Mellencamp - Crumblin' Down (PErUiAyVoGc)
tp167
a(V"P.Y.T. (Pretty Young Thing)"
p168
VMichael Jackson P.Y.T. (Pretty Young Thing) (VYXqwbtkkeM)
tp169
a(V"Church of the Poison Mind"
p170
VCulture Club - Church Of The Poison Mind (HVzAH0FtNwg)
tp171
a(V"Union of the Snake"
p172
VDuran Duran - Union Of The Snake (n6p5Q6_JBes)
tp173
a(V"Undercover of the Night"
p174
VThe Rolling Stones - Undercover Of The Night - OFFICIAL PROMO (EXPLICIT) (DVJkfXeTs9Q)
tp175
a.