(lp1
(V"Wichita Lineman"
p2
VWITCHITA LINEMAN , GLEN CAMPBELL , 1968 VINYL LP (RKeqXyY-9xA)
tp3
a(V"I'm Gonna Make You Love Me"
p4
VDiana Ross & The Supremes with The Temptations - I'm gonna make you love me  (HQ) (-dKioWg-glY)
tp5
a(V"Cloud Nine"
p6
VCloud Nine: The Temptations (7svkki14zbk)
tp7
a(V"Soulful Strut"
p8
VSoulful Strut/Young-Holt Unlimited (yX1XSOzDPik)
tp9
a(V"Hooked on a Feeling"
p10
VB J  Thomas - Hooked on a Feeling (ZIIatdfg99k)
tp11
a(V"Crimson and Clover"
p12
VCrimson and Clover - Tommy James & The Shondells (GpGEeneO-t0)
tp13
a(V"The Worst That Could Happen"
p14
VThe Worst That Could Happen - Brooklyn Bridge (2cTIYd8avmI)
tp15
a(V"Touch Me"
p16
VThe Doors - Touch Me (4UEVyIyibD8)
tp17
a(V"Son of a Preacher Man"
p18
VDusty Springfield Son of a Preacher Man (DjydOI4MEIw)
tp19
a(V"Everyday People"
p20
VSly & The Family Stone - Everyday People (YUUhDoCx8zc)
tp21
a(V"I Started a Joke"
p22
VSuicide Squad - Trailer SONG (Bee Gees - I Started a Joke REMIX) HD (kZ1DL9y9amw)
tp23
a(V"Build Me Up Buttercup"
p24
VThe Foundations - Build Me Up Buttercup (iol0B-clFFM)
tp25
a(V"Can I Change My Mind"
p26
Vtyrone davis can i change my mind (NyxKtz6Z07Q)
tp27
a(V"Hang 'Em High"
p28
VBooker T & The MG's - "Hang 'Em High" (NujxW5dz9D8)
tp29
a(V"You Showed Me"
p30
VThe Turtles -  You Showed Me (Ul3K_e-ZgiE)
tp31
a(V"Proud Mary"
p32
VCreedence Clearwater Revival: Proud Mary (XfyEpmQM7bw)
tp33
a(V"This Magic Moment"
p34
VThis Magic Moment - Jay & The Americans 1969 (pKfASw6qoag)
tp35
a(V"I'm Livin' in Shame"
p36
V\u266a I'm Living In Shame 1969 (e6GEoHKZncM)
tp37
a(V"Dizzy"
p38
VTommy Roe ~ Dizzy  (HQ) (-s_DKiTUty0)
tp39
a(V"Baby, Baby Don't Cry"
p40
VBaby Baby Don't Cry The Miracles (_45gwZ7vXAg)
tp41
a(V"This Girl's in Love with You"
p42
VDionne Warwick - This Girl's In Love With You (Gd2Q8VCk9co)
tp43
a(V"Indian Giver"
p44
VThe 1910 Fruitgum Company - "Indian Giver" (ZDPgmcibK_o)
tp45
a(V"Traces"
p46
VCLASSICS IV- " TRACES "  (VINYL+LYRICS) (3SouQRWXht4)
tp47
a(V"Time of the Season"
p48
VThe Zombies - Time Of The Season (7JM2ghmhGk0)
tp49
a(V"Runaway Child, Running Wild"
p50
VTemptations - Runaway Child, Running wild (long version) (n3uNRGScc3I)
tp51
a(V"Aquarius/Let the Sunshine In"
p52
VAquarius (Let the Sunshine in) (06X5HYynP5E)
tp53
a(V"Galveston"
p54
VGLEN CAMPBELL   GALVESTON (qBLboy3aXA0)
tp55
a(V"Only the Strong Survive"
p56
VJerry Butler Only the Strong Survive (XPkd9ZQOtbI)
tp57
a(V"My Whole World Ended (The Moment You Left Me)"
p58
VDAVID RUFFIN -"MY WHOLE WORLD ENDED (THE MOMENT YOU LEFT ME)"  [1969] (LpUxgahyViI)
tp59
a(V"You've Made Me So Very Happy"
p60
VBlood, Sweat & Tears - You Made Me So Very Happy (with lyrics) (VKuqaZ0DQtk)
tp61
a(V"It's Your Thing"
p62
VThe Isley Brothers - It's Your Thing (MD-9eOWsp8o)
tp63
a(V"Hair"
p64
VThe Cowsills -  Hair 1969 IN COLOR !! (ozQ8qLMKW_s)
tp65
a(V"Twenty-Five Miles"
p66
VEDWIN STARR  (Twenty-five Miles). (Fra9Kqr4o08)
tp67
a(V"Rock Me"
p68
VSteppenwolf - Rock Me ( Lyrics ) (p9oXFNbUdn4)
tp69
a(V"Time Is Tight"
p70
Vbooker t & the mg,s ...time is tight (gtdMhh1jIvw)
tp71
a(V"Sweet Cherry Wine"
p72
VTommy James and the Shondells- "Sweet Cherry Wine" 1969 (rt1gvRKJCms)
tp73
a(V"Hawaii Five-O"
p74
VHawaii Five-O - Ventures 30th Anniversary with Max Weinberg (MxT5sfhP_Y0)
tp75
a(V"The Boxer"
p76
VSimon & Garfunkel - The Boxer (with lyrics) (MYPJOCxSUFc)
tp77
a(V"Get Back" \u2020
p78
VThe Beatles Get Back (With Billy Preston) (u_lpMbwCIQM)
tp79
a(V"Atlantis"
p80
VDonovan / Atlantis (9AUEjzVQwKo)
tp81
a(V"Love (Can Make You Happy)"
p82
VMERCY - "LOVE CAN MAKE YOU HAPPY"  1969  Highest Quality Stereo (j4A9Fffo-jM)
tp83
a(V"These Eyes"
p84
VThe Guess Who - These Eyes [Good Quality] (sw8nXCx5qgo)
tp85
a(V"Gitarzan"
p86
VRay Stevens - Gitarzan (293Irm-vxtE)
tp87
a(V"Oh Happy Day"
p88
VOh Happy Day - The Edwin Hawkins Singers (EfGDvDGE7zk)
tp89
a(V"Grazing in the Grass"
p90
VFriends Of Distinction  -  Grazing In The Grass (cjYrski71II)
tp91
a(V"In the Ghetto"
p92
VElvis Presley - In the Ghetto Lyrics (2En0ZyjQgU4)
tp93
a(V"Love Theme from Romeo and Juliet"
p94
VHenry Mancini - Love Theme from ''Romeo and Juliet'' (PGlUesIu9RI)
tp95
a(V"Bad Moon Rising"
p96
VCreedence Clearwater Revival: Bad Moon Rising (5BmEGm-mraE)
tp97
a(V"Too Busy Thinking About My Baby"
p98
VMARVIN GAYE - TOO BUSY THINKING ABOUT MY BABY (TAMLA) (CdkQRw3kXeE)
tp99
a(V"One"
p100
VOne Is The Loneliest Number - Three Dog Night (Lyrics) (d5ab8BOu4LE)
tp101
a(V"Spinning Wheel"
p102
VBlood Sweat And Tears - Spinning Wheel (1969) (Cb5EBAP6zPY)
tp103
a(V"Good Morning Starshine"
p104
Voliver, good morning starshine (hw3oxJvSRj0)
tp105
a(V"Israelites"
p106
VDesmond Dekker & The Aces - "Israelites" (Official Audio) (mxtfdH3-TQ4)
tp107
a(V"In the Year 2525 (Exordium & Terminus)"
p108
VZager & Evans - In the Year 2525 (Exordium and Terminus) (cBFkXZGZuqs)
tp109
a(V"Crystal Blue Persuasion"
p110
VTommy James & The Shondells - Crystal Blue Persuasion - 1969 (XDl8ZPm3GrU)
tp111
a(V"Color Him Father"
p112
VThe Winstons - Color Him Father (KMx0waxbQ9I)
tp113
a(V"What Does It Take (To Win Your Love)"
p114
VJUNIOR WALKER and the ALLSTARS - "WHAT DOES IT TAKE" (to win your love) 1969 (ub72eylahJg)
tp115
a(V"The Ballad of John and Yoko"
p116
VThe Beatles -  The Ballad of John and Yoko -  (With Subtitles in English) (ai9-I3M9wck)
tp117
a(V"My Cherie Amour"
p118
VStevie Wonder - My Cherie Amour (1969) (b0Gu-CyE-NQ)
tp119
a(V"Baby, I Love You"
p120
VBaby I Love You - Andy Kim (SXpsS3hrZeU)
tp121
a(V"Honky Tonk Women"
p122
VRolling Stones-Honky Tonk Woman (A6M77oHD110)
tp123
a(V"Sweet Caroline"
p124
VSweet Caroline - Neil Diamond (NsLyI1_R01M)
tp125
a(V"Ruby, Don't Take Your Love to Town"
p126
VKenny Rogers & The First Edition - Ruby Don't Take Your Love To Town (xiohkveacxM)
tp127
a(V"A Boy Named Sue"
p128
VA Boy Named Sue: Johnny Cash (_Gbtm-93oqE)
tp129
a(V"Put a Little Love in Your Heart"
p130
VPut A Little Love in Your Heart with Lyrics (acpLe00-0t8)
tp131
a(V"Green River"
p132
VCreedence Clearwater Revival: Green River (JacHyPaEwDc)
tp133
a(V"Get Together"
p134
VGet Together-The Youngbloods (kRAhTY3Dwl0)
tp135
a(V"Polk Salad Annie"
p136
VTony Joe White   Polk Salad Annie Original B&W (MCSsVvlj6YA)
tp137
a(V"Laughing"
p138
VTHE GUESS WHO- " LAUGHING" (W/LYRICS) (Ja9aXTZFwqM)
tp139
a(V"Sugar, Sugar"
p140
VSugar Sugar - The Archies (JywK_5bT8z0)
tp141
a(V"Lay Lady Lay"
p142
VBob Dylan - Lay Lady Lay (N6ODMKSWzT4)
tp143
a(V"Easy to Be Hard"
p144
VEasy To Be Hard -- Three Dog Night (in HD) (jeXcaRYNlSQ)
tp145
a(V"I'll Never Fall in Love Again"
p146
VTom Jones - I'll Never Fall In Love Again 1969 (OGhHfPoY-h8)
tp147
a(V"I Can't Get Next to You"
p148
VCan't Get Next To You - The Temptations (3rP3Hi1f7Og)
tp149
a(V"Jean"
p150
VOliver - "Jean" (HQ Stereo) (z9DXI6iYVDw)
tp151
a(V"Little Woman"
p152
VBobby Sherman - Little Woman (1969) (wiMZjOcaVbQ)
tp153
a(V"Hot Fun in the Summertime"
p154
VSly and the Family Stone - Hot Fun in the Summertime (_NVVe1DkVsQ)
tp155
a(V"Oh, What a Night"
p156
VThe Dells - Oh What A Night (Z1ozQT8yQXA)
tp157
a(V"Everybody's Talkin'"
p158
VHarry Nilsson - Everybody's Talkin' (1969) (2AzEY6ZqkuE)
tp159
a(V"This Girl Is a Woman Now"
p160
VGary Puckett & the Union gap .     This girl is a woman now.1969 (2xw3pjpRpig)
tp161
a(V"Suspicious Minds"
p162
VElvis Presley Suspicious Minds Live in Las Vegas (Official Video) (Wb0Jmy-JYbA)
tp163
a(V"Wedding Bell Blues"
p164
V"Wedding Bell Blues" by The 5th Dimension (cXuyQILJ-yc)
tp165
a(V"That's the Way Love Is"
p166
VMarvin Gaye - That's the Way Love Is (a50sPUKD9vI)
tp167
a(V"Tracy"
p168
VThe Cufflinks - Tracy - (HQ) (Cwv8KNJ0VZg)
tp169
a(V"Baby It's You"
p170
VBO Death Proof: Smith - Baby It's You (08uSz2M-LhI)
tp171
a(V"I'm Gonna Make You Mine"
p172
V"I'm Gonna Make You Mine", Lou Christie (haYvrO5D_Yo)
tp173
a(V"Come Together" / "Something"
p174
VThe Beatles - Come Together / Something / (Vinyl - MFSL) - Sota Sapphire Turntable (PiyLRnqaFeY)
tp175
a(V"And When I Die"
p176
VBlood, Sweat & Tears - And When I Die (vRu1Lk3IK8c)
tp177
a(V"Something"
p178
VThe Beatles- Something (IrW7dlDHH28)
tp179
a(V"Smile a Little Smile For Me"
p180
VThe Flying Machine - Smile A Little Smile For Me (BR3xcZ-osqE)
tp181
a(V"Take a Letter Maria"
p182
VR.B. Greaves -Take A Letter Maria (Z9Y0x1jLkLg)
tp183
a(V"Na Na Hey Hey Kiss Him Goodbye"
p184
VSteam - na na hey hey kiss him goodbye (QaG2Acg8n60)
tp185
a(V"Yester-Me, Yester-You, Yesterday"
p186
VStevie Wonder... Yester me yester you yesterday (LWD9mfLW9xY)
tp187
a(V"Leaving on a Jet Plane"
p188
VPeter, Paul and Mary - Leaving on a Jet Plane. (Qc-7SnMnX78)
tp189
a(V"Down on the Corner" / "Fortunate Son"
p190
VCreedence Clearwater Revival- Fortunate Son / Down on the Corner (qjqlQY9SWqE)
tp191
a(V"Eli's Comin'"
p192
VEli's Coming (1975) - Three Dog Night (0CuNBengxaQ)
tp193
a(V"Someday We'll Be Together"
p194
VDiana Ross & The Supremes - Someday We'll Be Together (HXGz8i0I2L0)
tp195
a(V"Backfield in Motion"
p196
VMel & Tim - Backfield in Motion (M0AU5Mckb3Q)
tp197
a(V"Holly Holy"
p198
VNeil Diamond - Holly Holy (W/Lyrics) (_f5spy3-9XM)
tp199
a.