(lp1
(V"Tell It Like It Is"
p2
VTell It Like It Is Lyrics - Aaron Neville (-_kjR487TwI)
tp3
a(V"Good Thing"
p4
VPaul Revere and the Raiders - Good Thing (HQ Stereo, 1967) (EjGb-ZYQGPA)
tp5
a(V"Words of Love"
p6
VThe Mamas And The Papas ::: Words Of Love. (OouK3QOzW6Q)
tp7
a(V"Standing in the Shadows of Love"
p8
VFour Tops - Standing In The Shadows Of Love (1967) 0815007 (xhtzMwA5gJI)
tp9
a(V"Georgy Girl"
p10
VThe Seekers - Georgy Girl (1967 - Stereo) (wsIbfYEizLk)
tp11
a(V"Nashville Cats"
p12
VThe Lovin' Spoonful - Nashville Cats (ulVQsQBenvs)
tp13
a(V"Tell It to the Rain"
p14
VTell It To The Rain by Frankie Valli And The Four Seasons lyrics (vef5RErWYHo)
tp15
a(V"Kind of a Drag"
p16
VThe Buckinghams - Kind of a Drag (luqF2qL47JE)
tp17
a(V"(We Ain't Got) Nothin' Yet"
p18
VThe Blues Magoos - (We Ain't Got) Nothin' Yet (xJf7_NmgMzs)
tp19
a(V"98.6"
p20
V98.6 - Keith (ykN6Cz05bLM)
tp21
a(V"Ruby Tuesday"
p22
VThe Rolling Stones - Ruby Tuesday -HQ (a00_tPLcE_g)
tp23
a(V"Love Is Here and Now You're Gone"
p24
VThe Supremes - Love Is Here And Now You're Gone with lyrics (X4z2iubQPgo)
tp25
a(V"The Beat Goes On"
p26
VSonny and Cher: The beat goes on (HQ Version) (bS3O5zg290k)
tp27
a(V"Gimme Some Lovin'"
p28
VThe Spencer Davis Group - Gimme Some Lovin'. Stereo (ko3m0NBbq1o)
tp29
a(V"Baby I Need Your Lovin'"
p30
VJohnny Rivers -- Baby, I Need Your Lovin' (gpKhBknigGo)
tp31
a(V"Then You Can Tell Me Goodbye"
p32
VThen You Can Tell Me Goodbye (lyrics - The Casinos (Gy1xlRGwSlk)
tp33
a(V"Sock It to Me-Baby!"
p34
VMitch Ryder and the Detroit Wheels - Sock it to Me, Baby ! (hKdKReioXao)
tp35
a(V"Penny Lane"
p36
VThe Beatles - Penny Lane (1FlQCtg96SQ)
tp37
a(V"Happy Together"
p38
VSo Happy Together - The Turtles (P74YRczb84Q)
tp39
a(V"Dedicated to the One I Love"
p40
VMamas & Papas - Dedicated To The One I Love (4M7gKZqgHn4)
tp41
a(V"My Cup Runneth Over"
p42
VEd Ames - My Cup Runneth Over (1967) (xvaQisHV8jw)
tp43
a(V"There's a Kind of Hush"
p44
VHerman's Hermits - There's A Kind Of Hush (pk5DBwa5wJ8)
tp45
a(V"For What It's Worth"
p46
VFor What It's Worth - Buffalo Springfield (DIoKr9VDg3A)
tp47
a(V"Somethin' Stupid"
p48
VFrank & Nancy Sinatra - Something stupid (HQ) (0f48fpoSEPU)
tp49
a(V"This Is My Song"
p50
VPetula Clark ' This Is My Song'  in Stereo (V8XmLuTmKIM)
tp51
a(V"Bernadette"
p52
VFour Tops   Bernadette 1967 HQ (1g_TVRGWcfk)
tp53
a(V"Western Union"
p54
VFive Americans - Western Union 45rpm (8lN_KC_XnW4)
tp55
a(V"Strawberry Fields Forever"
p56
VTHE BEATLES - Strawberry Fields Forever (nehRB1FTeTo)
tp57
a(V"A Little Bit Me, a Little Bit You"
p58
VTHE MONKEES - A Little Bit Me, A Little Bit You (1967) (KnMuwzm7kw4)
tp59
a(V"I Think We're Alone Now"
p60
VI Think We`re Alone Now - Tommy James & The Shondells (IkMFLUXTEwM)
tp61
a(V"I Never Loved a Man (The Way I Love You)"
p62
VAretha Franklin - I Never Loved a Man the Way I Love You (pxb-9p5hdRY)
tp63
a(V"Jimmy Mack"
p64
VMartha Reeves & the Vandellas - Jimmy Mack (obvSFWvgBhg)
tp65
a(V"Sweet Soul Music"
p66
VArthur Conley - Sweet Soul Music  (HQ) (grE0lwTsSPg)
tp67
a(V"The Happening"
p68
VThe Supremes - The Happening + Lyrics (bEGdvabuTQ0)
tp69
a(V"Don't You Care"
p70
VThe Buckinghams - Don't You Care (HQ Stereo,1967) (rayzU4EOvSo)
tp71
a(V"You Got What It Takes"
p72
VThe Dave Clark Five - You Got What It Takes (U_3E_VFzMvw)
tp73
a(V"Close Your Eyes"
p74
VPeaches and Herb-Close your eyes (W3k-Gae3bos)
tp75
a(V"I'm a Man"
p76
VSpencer Davis Group - I'm a Man (POCUgBSVENQ)
tp77
a(V"Groovin'"
p78
VGroovin' - The Young Rascals (falI0baGhBQ)
tp79
a(V"I Got Rhythm"
p80
VThe Happenings - "I Got Rhythm" - 1967 Smothers Bros. Show (FK62pW35GIw)
tp81
a(V"Respect"
p82
VAretha Franklin - Respect [1967] (Original Version) (6FOUqQt3Kg0)
tp83
a(V"Release Me"
p84
VEngelbert Humperdinck - Release Me (with lyrics) (AZLqZ_H_nZc)
tp85
a(V"Creeque Alley"
p86
VThe Mamas & The Papas ~ Creeque Alley  (HQ) (-xyDFLXNbQE)
tp87
a(V"Him Or Me - What's It Gonna Be?"
p88
VPaul Revere & The Raiders: Him or me (What's it gonna be?) (zjBBziuOni0)
tp89
a(V"Girl, You'll Be a Woman Soon"
p90
VNeil Diamond - Girl You'll Be A Woman Soon (Original Song) (qGvMjgLXBi0)
tp91
a(V"Somebody to Love"
p92
Vsomebody to love-jefferson airplane (JUbMWtUyIIE)
tp93
a(V"All I Need"
p94
VThe Temptations - All I Need (UehwDgancO4)
tp95
a(V"Little Bit O' Soul"
p96
VA LITTLE BIT OF SOUL   THE MUSIC EXPLOSION (CgGjvZcNpKs)
tp97
a(V"She'd Rather Be With Me"
p98
VThe Turtles - She'd Rather Be With Me (WkWDVBAwn_4)
tp99
a(V"Windy"
p100
VThe Association  Windy (bPYT9Vyu62A)
tp101
a(V"Mirage"
p102
VTommy James & the Shondells - Mirage (ZYhruUQpr7k)
tp103
a(V"Can't Take My Eyes Off You"
p104
VCant Take My Eyes Off You - Frankie Valli and The 4 Seasons + lyrics (LcJm1pOswfM)
tp105
a(V"San Francisco (Be Sure to Wear Flowers in Your Hair)"
p106
VSan Francisco - Scott McKenzie (bch1_Ep5M1s)
tp107
a(V"Let's Live for Today"
p108
VGRASS ROOTS- "LET'S LIVE FOR TODAY" (W/LYRICS) (spdSSI2rTKI)
tp109
a(V"Sunday Will Never Be the Same"
p110
VSPANKY and our GANG - "SUNDAY WILL NEVER BE THE SAME"   OUTTAKE    1967 (Z3t9c53w2pg)
tp111
a(V"Don't Sleep in the Subway"
p112
VPetula Clark (8Jda2ivskI8)
tp113
a(V"Come on Down to My Boat"
p114
VEvery Mother's Son - Come On Down To My Boat Baby (rvye4GXgPE0)
tp115
a(V"Up, Up and Away"
p116
VThe 5th Dimension - Up, Up and Away (_ii_WugJEJg)
tp117
a(V"The Tracks of My Tears"
p118
VJohnny Rivers - The Tracks Of My Tears (ArCNJeFuO6o)
tp119
a(V"Light My Fire"
p120
VThe Doors - Light My Fire (deB_u-to-IE)
tp121
a(V"A Whiter Shade of Pale"
p122
VA Whiter Shade Of Pale - Procol Harum (Mb3iPP-tHdA)
tp123
a(V"C'mon Marianne"
p124
VFour Seasons - C'mon Marianne (tqupS8x0i1c)
tp125
a(V"I Was Made to Love Her"
p126
VStevie Wonder - I Was Made To Love Her (9pYux5-d1Es)
tp127
a(V"Mercy, Mercy, Mercy"
p128
VThe Buckinghams - "Mercy, Mercy, Mercy" (fkslGrRExcQ)
tp129
a(V"White Rabbit"
p130
VJefferson Airplane -White Rabbit- (WANNqr-vcx0)
tp131
a(V"All You Need Is Love"
p132
VThe Beatles - All You Need Is Love (x9_vhYpR9xo)
tp133
a(V"Pleasant Valley Sunday"
p134
VThe Monkees - "Pleasant Valley Sunday" - ORIGINAL VIDEO - HQ (sUzs5dlLrm0)
tp135
a(V"Carrie Anne"
p136
VThe Hollies - Carrie Anne (sgA4-bLcoN8)
tp137
a(V"A Girl Like You"
p138
VTHE RASCALS- "A GIRL LIKE YOU"  (W/LYRICS) (q0npvaKsOsA)
tp139
a(V"Ode to Billie Joe"
p140
VOde to Billie Joe - Bobbie Gentry (BBC Live 1968) (HaRacIzZSPo)
tp141
a(V"Baby I Love You"
p142
VAretha Franklin - Baby I love you HQ (Xoagkpi5B4Q)
tp143
a(V"Cold Sweat"
p144
VJames Brown - "Cold Sweat" (part 1 & 2) (8bztE5IbQOo)
tp145
a(V"Reflections"
p146
VDiana Ross and The Supremes: Reflections (nV72YrB1454)
tp147
a(V"You're My Everything"
p148
VThe Temptations - You're My Everything (Wp05C4q9SsE)
tp149
a(V"Come Back When You Grow Up"
p150
VBobby Vee - Come Back When You Grow Up Girl (OJBcNmQUCXw)
tp151
a(V"The Letter"
p152
VThe Box Tops - The Letter (BQaUs5J2wdI)
tp153
a(V"Apples, Peaches, Pumpkin Pie"
p154
VApples Peaches Pumpkin Pie - Jay & The Techniques (5njDmUMhfa0)
tp155
a(V"San Franciscan Nights"
p156
VEric Burdon & The Animals : San Franciscan Nights (Live 1967) (y4G3KPP1Nts)
tp157
a(V"Funky Broadway"
p158
VWilson pickett.  Funky Broadway. (yIuJH3qroDY)
tp159
a(V"Never My Love"
p160
VThe Association  Never My Love  Lyrics (munErg-ykYU)
tp161
a(V"(Your Love Keeps Lifting Me) Higher and Higher"
p162
VJackie Wilson (Your Love Keeps Lifting Me) Higher and Higher lyrics (GcwqCmEi9Jc)
tp163
a(V"I Dig Rock and Roll Music"
p164
VPeter,Paul & Mary  I Dig Rock & Roll Music (1968) (iqY35SYsyfQ)
tp165
a(V"Brown Eyed Girl"
p166
VVan Morrison Brown Eyed Girl lyrics (TG8Ect3Xn7w)
tp167
a(V"Little Ole Man (Uptight, Everything's Alright)"
p168
VBILL COSBY  Little Ole Man (Uptight everything's alright) (K3T2J9bLKww)
tp169
a(V"How Can I Be Sure"
p170
VYoung Rascals - How Can I Be Sure  (1967) (TuKeSUUK-A4)
tp171
a(V"Gimme Little Sign"
p172
Vbrenton wood- gimme little sign (mRBPwWHvgvg)
tp173
a(V"To Sir, with Love"
p174
VLulu - To Sir With Love (JOVQ4vAmM7Y)
tp175
a(V"Soul Man"
p176
VSAM and DAVE  -  'Soul Man' (1967) (ZVx2i6jGzf8)
tp177
a(V"It Must Be Him"
p178
VIt must be him - vikki carr (nqXtqLhujwg)
tp179
a(V"Expressway to Your Heart"
p180
VExpressway To Your Heart The Soul Survivors In Stereo by Tom Moulton original rotation StevenB (4EBYMl-f-wo)
tp181
a(V"Your Precious Love"
p182
VYour Precious Love - Marvin Gaye & Tammi Terrell (BTvupngKy6A)
tp183
a(V"Incense and Peppermints"
p184
VStrawberry Alarm Clock - Incense and Peppermints (RghL1rViX34)
tp185
a(V"(You Make Me Feel Like) A Natural Woman"
p186
VAretha Franklin - (You Make Me Feel Like) A Natural Woman  (HQ) (eCqdrbiRxds)
tp187
a(V"The Rain, The Park & Other Things"
p188
Vthe Cowsills - the Rain,the Park & Other Things (edited from 2 performances)(1966) (BiMCTjO_dHI)
tp189
a(V"Please Love Me Forever"
p190
V"Please Love Me Forever"  Bobby Vinton (lXCl3no_uSE)
tp191
a(V"I Say a Little Prayer"
p192
VI say a little prayer - Dionne Warwick (TVwtZYoqXHE)
tp193
a(V"I Can See for Miles"
p194
VThe Who- I Can See For Miles (kb5mRBMZbYo)
tp195
a(V"Daydream Believer"
p196
VMonkees - Daydream Believer - Music Video From TV - Clear HD (nU615FaODCg)
tp197
a(V"I Heard It Through the Grapevine"
p198
VI Heard It Through The Grapevine - Gladys Knight & The Pips '1967 (BQRcUxNJEbs)
tp199
a(V"An Open Letter To My Teenage Son"
p200
VVictor Lundberg - AN OPEN LETTER TO MY TEENAGE SON (gBU6GkseD1w)
tp201
a(V"Hello, Goodbye"
p202
VThe Beatles-Hello Goodbye (Remastered) (zkH3PdDZZuA)
tp203
a(V"I Second That Emotion"
p204
V"I Second That Emotion" by Smokey Robinson & The Miracles (sti_tuBiv5g)
tp205
a(V"In and out of Love"
p206
VDiana Ross And The Supremes ~ In And Out Of Love (s1oW-c9SbEQ)
tp207
a(V"Boogaloo Down Broadway"
p208
VTHE FANTASTIC JOHNNY C   BOOGALOO DOWN BROADWAY (2ng3p3Tlc0I)
tp209
a(V"You Better Sit Down Kids"
p210
VCher - You Better Sit Down Kids (osVCIlTto2Q)
tp211
a(V"Skinny Legs and All"
p212
VJoe Tex - "Skinny Legs And All" (lSt6PmQoNn8)
tp213
a.