(lp1
(V"That's What Friends Are For"
p2
VDionne Warwick - That's What Friends Are For (HyTpu6BmE88)
tp3
a(V"Tonight She Comes"
p4
VTonight she comes - The Cars (ltoo2YLMri8)
tp5
a(V"Talk to Me"[1]
p6
VTalk to Me- Stevie Nicks Demo (YwTJTU0xYf4)
tp7
a(V"Walk of Life"
p8
VDire Straits - Walk Of Life + lyrics (k9_VOy7VipQ)
tp9
a(V"Burning Heart"
p10
VSurvivor - Burning Heart (Kc71KZG87X4)
tp11
a(V"I'm Your Man"
p12
VWham! - I'm Your Man (kAGl8RWTSqc)
tp13
a(V"My Hometown"
p14
VBruce Springsteen - My Hometown (77gKSp8WoRg)
tp15
a(V"Spies Like Us"
p16
VPaul McCartney - Spies Like Us (27ATt3FXAUY)
tp17
a(V"When the Going Gets Tough, the Tough Get Going"
p18
VWhen the Going Gets Tough the Tough Get Going - Billy Ocean - LYRICS (opMNboyz5Ng)
tp19
a(V"Go Home"
p20
VStevie Wonder - Go Home Music Video (1985) (jmp6TItntdw)
tp21
a(V"How Will I Know"
p22
VWhitney Houston - How Will I Know (m3-hY-hlhBg)
tp23
a(V"Kyrie"
p24
VMr. Mister - Kyrie (9NDjt4FzFWY)
tp25
a(V"Living in America"
p26
VJames Brown - Living in America (c5BL4RNFr58)
tp27
a(V"Conga"
p28
VGloria Estefan & Miami Sound Machine - Conga (HD,1080) (RBM3RlgjhQQ)
tp29
a(V"The Sweetest Taboo"
p30
VSade - The Sweetest Taboo (kcPc18SG6uA)
tp31
a(V"Sara"
p32
VStarship - Sara (32ScTb6_KHg)
tp33
a(V"Life in a Northern Town"
p34
VThe Dream Academy Life In A Northern Town Lyrics (GsIRt0bge1Y)
tp35
a(V"Silent Running"
p36
VMike & The Mechanics - Silent running (ep7W89I_V_g)
tp37
a(V"Secret Lovers"
p38
VAtlantic Starr - Secret Lovers (lyrics) 80's Throwback (Ud7eKyPfW3s)
tp39
a(V"These Dreams"
p40
VHeart - These Dreams (41P8UxneDJE)
tp41
a(V"King for a Day"
p42
VThompson Twins - King For A Day (b9ygIvMtcdw)
tp43
a(V"R.O.C.K. in the U.S.A. (A Salute to 60's Rock)"
p44
VR.O.C.K. In The U.S.A. (A Salute To 60's Rock) (SgtmStUrXMQ)
tp45
a(V"Rock Me Amadeus"
p46
VFalco - Rock Me Amadeus (cVikZ8Oe_XA)
tp47
a(V"Nikita"
p48
VElton John - Nikita (Album Version) HD 16:9 (porkY6I0LLc)
tp49
a(V"What You Need"
p50
VINXS - What You Need (FoEPrbdfmT4)
tp51
a(V"Kiss"
p52
VPrince - Kiss (Freeform Dance Practice) (L9HPxT1E7VQ)
tp53
a(V"Let's Go All the Way"
p54
VSly Fox - Let's Go All The Way (bQiGqGMT8i4)
tp55
a(V"This Could Be the Night"
p56
VLoverboy - This Could Be the Night (4qa2Ol6BHd8)
tp57
a(V"Manic Monday"
p58
VThe Bangles - Manic Monday (SsmVgoXDq2w)
tp59
a(V"Addicted to Love"
p60
VRobert Palmer - Addicted To Love (XcATvu5f9vE)
tp61
a(V"West End Girls"
p62
VPet Shop Boys - West End Girls (2003 Digital Remaster) (fVkN0VhOuZ0)
tp63
a(V"Harlem Shuffle"
p64
VThe Rolling Stones - Harlem Shuffle - OFFICIAL PROMO (nAkMTu6q2pY)
tp65
a(V"Tender Love"
p66
VTender Love - The Force M.D.'s (gdLB_kFhr6c)
tp67
a(V"Why Can't This Be Love"
p68
VVan Halen - Why Can't This Be Love (1VaEdKwXJhM)
tp69
a(V"What Have You Done for Me Lately"
p70
VJanet Jackson - What Have You Done For Me Lately (r9uizdKZAGE)
tp71
a(V"Your Love"
p72
VThe Outfield - Your Love (4N1iwQxiHrs)
tp73
a(V"Take Me Home"
p74
VPhil Collins - Take Me Home (Official Music Video) (sRY1NG1P_kw)
tp75
a(V"Greatest Love of All"
p76
VWhitney Houston - Greatest Love Of All (IYzlVDlE72w)
tp77
a(V"Bad Boy"
p78
VMiami Sound Machine - Bad Boy (1985) (iF_dFVqVyJI)
tp79
a(V"If You Leave"
p80
VOrchestral Manoeuvres In The Dark - If You Leave (EPmTGFg06zA)
tp81
a(V"Live to Tell"
p82
VMadonna - Live To Tell (IzAO9A9GjgI)
tp83
a(V"On My Own"
p84
VPatti LaBelle - On My Own ft. Michael McDonald (KsH63qJlIMM)
tp85
a(V"I Can't Wait"
p86
VNu Shooz I Can't Wait (v_Yx0X-eHn8)
tp87
a(V"All I Need Is a Miracle"
p88
VMike + The Mechanics - "All I Need Is A Miracle" (Ivd6I-L8s2E)
tp89
a(V"Something About You"
p90
VLevel 42 - Something About You (E-zP66eSLto)
tp91
a(V"Is It Love"
p92
VMr. Mister - Is It Love (nWxxRlVNM30)
tp93
a(V"Be Good to Yourself"
p94
VBe Good To Yourself - Journey (Kao8H6bpAHw)
tp95
a(V"Crush on You"
p96
VThe Jets - Crush on You (Oy10rRJ0Cuk)
tp97
a(V"There'll Be Sad Songs (To Make You Cry)"
p98
VBilly Ocean - There'll Be Sad Songs (To Make You Cry) (KLjpJZbxkAU)
tp99
a(V"A Different Corner"
p100
VGeorge Michael - A Different Corner (IPWHkK-_a_A)
tp101
a(V"No One Is to Blame"
p102
VHoward Jones - No One Is To Blame (V-A6WH1kQLc)
tp103
a(V"Holding Back the Years"
p104
VSimply Red - Holding Back The Years (yG07WSu7Q9w)
tp105
a(V"Who's Johnny"
p106
VEl DeBarge - Who's Johnny (High Quality) (yA9WhYnsD_4)
tp107
a(V"Nothin' at All"
p108
VHeart - Nothin' At All (Y2lXKZ9Zksg)
tp109
a(V"Invisible Touch"
p110
VGenesis - Invisible Touch (HQ) (pN60DR5GQpg)
tp111
a(V"Nasty"
p112
VJanet Jackson - Nasty (Original, full HD, HQ) (KmTd1fky3AQ)
tp113
a(V"Sledgehammer"
p114
VPeter Gabriel - Sledgehammer HD (1080p) (OJWJE0x7T4Q)
tp115
a(V"Danger Zone"
p116
VKenny Loggins - Danger Zone (yK0P1Bk8Cx4)
tp117
a(V"Your Wildest Dreams"
p118
VThe Moody Blues - Your Wildest Dreams (kmmPFrkuPq0)
tp119
a(V"Tuff Enuff"
p120
VThe Fabulous Thunderbirds - Tuff Enuff (EcXT1clXc04)
tp121
a(V"Glory of Love"
p122
VPeter Cetera ~ The Glory Of LOVE (XWHOF_0-6Hg)
tp123
a(V"Love Touch"
p124
VRod Stewart - Love Touch (b0m5JoZCkzc)
tp125
a(V"Papa Don't Preach"
p126
VMadonna - Papa Don't Preach (G333Is7VPOg)
tp127
a(V"Mad About You"
p128
VBelinda Carlisle - Mad About You (XmdtJWmR9zQ)
tp129
a(V"Modern Woman"
p130
VBilly Joel - Modern Woman (Audio) (yDjFI3kbxuo)
tp131
a(V"We Don't Have to Take Our Clothes Off"
p132
VJermaine Stewart - We Don't Have To Take Our Clothes Off (HWZisnZ-RGE)
tp133
a(V"Opportunities (Let's Make Lots of Money)"
p134
VPet Shop Boys - Opportunities (Let's Make Lots of Money) (Version 2) (HD) (PyeWRd7ZEBs)
tp135
a(V"Higher Love"
p136
VSteve Winwood - Higher Love (k9olaIio3l8)
tp137
a(V"Venus"
p138
VBananarama - Venus (OFFICIAL MUSIC VIDEO) (NkcU2_Vs7Xw)
tp139
a(V"Rumors"
p140
VTimex Social Club - Rumors (KVtcp8XHhOo)
tp141
a(V"Dancing on the Ceiling"
p142
VLionel Richie - Dancing On The Ceiling (OdQDXs75Ulo)
tp143
a(V"Take My Breath Away"
p144
VBerlin - Take My Breath Away (Bx51eegLTY8)
tp145
a(V"The Edge of Heaven"
p146
VWham! - The Edge Of Heaven (3m-UhrvwQrI)
tp147
a(V"Friends and Lovers"
p148
VGloria Loring and Carl Anderson - Friends and Lovers (i9CtUkJcH1Y)
tp149
a(V"Sweet Freedom"
p150
VMichael McDonald  - Sweet Freedom (U-xetxYwyak)
tp151
a(V"Stuck with You"
p152
VHuey Lewis And The News - Stuck With You (J08ZwySCoJ8)
tp153
a(V"Words Get in the Way"
p154
VGloria Estefan and Miami Sound Machine - Words Get In The Way. (wl62dOEupb4)
tp155
a(V"Walk This Way"
p156
VRUN-DMC - Walk This Way (4B_UYYPb-Gk)
tp157
a(V"Baby Love"
p158
VRegina Baby Love (MEOrfKfyYCc)
tp159
a(V"Don't Forget Me (When I'm Gone)"
p160
VGlass Tiger - Don't Forget Me (When I'm Gone) (Jx6_-urg5fo)
tp161
a(V"Dreamtime"
p162
VDaryl Hall - Dreamtime (oed8rUV_wdY)
tp163
a(V"When I Think of You"
p164
VJanet Jackson - When I Think Of You (EaleKN9GQ54)
tp165
a(V"Two of Hearts"
p166
VTwo of Hearts By Stacey Q (HQ) (kWBs-b7Rx6s)
tp167
a(V"Love Zone"
p168
VBilly Ocean - Love Zone (hYAmSbg-uE0)
tp169
a(V"Throwing It All Away"
p170
VGenesis - Throwing It All Away (Invisible Touch Tour) (1d7B00rmBRE)
tp171
a(V"Typical Male"
p172
VTina Turner - Typical Male [Official Music Video] (x9iwonrgDMY)
tp173
a(V"Heartbeat"
p174
VDon Johnson - Heartbeat (5CR4lSORZ_Q)
tp175
a(V"True Colors"
p176
VCyndi Lauper - True Colors (LPn0KFlbqX8)
tp177
a(V"I Didn't Mean to Turn You On"
p178
VRobert Palmer - I Didn't Mean To Turn You On (1987) (mGrQTRcxdTo)
tp179
a(V"All Cried Out"
p180
VLisa Lisa _ Cult Jam All Cried Out (rErBPw7pk2o)
tp181
a(V"A Matter of Trust"
p182
VBilly Joel - A Matter Of Trust (6yYchgX1fMw)
tp183
a(V"Amanda"
p184
VBoston - Amanda (video/audio edited & remastered) HQ (F96lemYryXo)
tp185
a(V"Human"
p186
VThe Human League - Human (s1ysoohV_zA)
tp187
a(V"Sweet Love"
p188
VAnita Baker- Sweet Love Lyrical Video (2v6uPKMUgnE)
tp189
a(V"True Blue"
p190
VMadonna - True Blue (P51LunEV3Sk)
tp191
a(V"Take Me Home Tonight"
p192
VEddie Money - Take Me Home Tonight/Be My Baby (3aJvIFK9-xk)
tp193
a(V"You Give Love a Bad Name"
p194
VBon Jovi - You Give Love A Bad Name (KrZHPOeOxQQ)
tp195
a(V"Word Up!"
p196
VCameo - Word Up (MZjAantupsA)
tp197
a(V"The Rain"
p198
VOran "Juice" Jones - The Rain (9dZW1C3neao)
tp199
a(V"The Next Time I Fall"
p200
VPETER CETERA & AMY GRANT - The Next Time I Fall (WQKqp_rZbVk)
tp201
a(V"Hip to Be Square"
p202
VHuey Lewis And The News - Hip To Be Square (LB5YkmjalDg)
tp203
a(V"The Way It Is"
p204
VBruce Hornsby & the Range - The Way It Is (cOeKidp-iWo)
tp205
a(V"Love Will Conquer All"
p206
VLionel Richie - Love Will Conquer All (1i45qDsId1E)
tp207
a(V"Walk Like an Egyptian"
p208
VWalk Like An Egyptian - The Bangles (Lyrics) (gzeOWnnSNjg)
tp209
a(V"Everybody Have Fun Tonight"
p210
VWang Chung - Everybody Have Fun Tonight (BoXu6QmxpJE)
tp211
a(V"To Be a Lover"
p212
VBilly Idol - To Be A Lover (_L9epO3tJT4)
tp213
a(V"Stand by Me"
p214
VStand By Me, Ben E King, 1961 (hwZNL7QVJjE)
tp215
a(V"War"
p216
V10 - War - Bruce Springsteen and the E-Street Band (MO4BdYpWWwU)
tp217
a(V"Don't Get Me Wrong"
p218
VThe Pretenders - Don't Get Me Wrong (P6u9C_SH3mQ)
tp219
a.