(lp1
(VHey Jude
p2
VThe Beatles-Hey Jude (eDdI7GhZSQA)
tp3
a(VLove is Blue
p4
VPaul Mauriat ~ Love is Blue (HQ) (rjsNNcsUNzE)
tp5
a(VHoney
p6
VBobby Goldsboro - Honey - HQ Audio))) (HW1GpxB0LH8)
tp7
a(V(Sittin' On) The Dock of the Bay
p8
VOtis Redding-Sittin' on the dock of the bay (lyrics) (PyxLaHmOaYM)
tp9
a(VPeople Got to Be Free
p10
V"People Got to be Free" by The Young Rascals (1ntcMjYL7hc)
tp11
a(VSunshine of Your Love
p12
VCream - Sunshine of your love (vyftaay-pFA)
tp13
a(VThis Guy's in Love With You
p14
VHerb Alpert    This Guy's in Love with You (GWjbUAYcxII)
tp15
a(VThe Good, the Bad and the Ugly
p16
V"The Good, The Bad and The Ugly" by Hugo Montenegro and His Orchestra (qd_7Bnxblo4)
tp17
a(VMrs. Robinson
p18
VSimon & Garfunkel - Mrs. Robinson (Audio) (9C1BCAgu2I8)
tp19
a(VTighten Up
p20
VArchie Bell & The Drells - Tighten up (1968) (Wro3bqi4Eb8)
tp21
a(VHarper Valley PTA
p22
VHarper Valley P.T.A. movie clip / singer  Jeannie C. Riley (4ivUOnnstpg)
tp23
a(VLittle Green Apples
p24
VO.C. Smith - Little Green Apples (B6UJOb4oVfU)
tp25
a(VMony Mony
p26
VMony Mony by Tommy James & The Shondells (pkMgs3lFwkQ)
tp27
a(VHello, I Love You
p28
VThe Doors - Hello, I Love You (Remastered HD) (-qUZf4Wz7gM)
tp29
a(VYoung Girl
p30
VGary Puckett & The Union Gap - Young Girl - HQ (qJFVPxBpezk)
tp31
a(VCry Like a Baby
p32
VThe Box Tops - Cry Like A Baby (_WoD8yZkvuI)
tp33
a(VStoned Soul Picnic
p34
VFifth Dimension - Stone Soul Picnic - Bubblerock Promo HD (hgPGDRc7_kM)
tp35
a(VGrazing in the Grass
p36
VHugh Masekela-Grazing In The Grass (UKcGCObEb28)
tp37
a(VMidnight Confessions
p38
VThe Grass Roots - Midnight Confessions (5nZnqtDdsws)
tp39
a(VDance to the Music
p40
VSly & The Family Stone - Dance To The Music (Audio) (Jn2PNlhvy8E)
tp41
a(VThe Horse
p42
VCliff Nobles & Co. - "The Horse" (McFSX8LkOqU)
tp43
a(VI Wish It Would Rain
p44
VThe Temptations - I wish it would rain (Z-es4Q8AJaU)
tp45
a(VLa-La (Means I Love You)
p46
VLa La Means I Love You: The Delfonics (baNbyst7aW0)
tp47
a(VTurn Around, Look at Me
p48
VThe Vogues   Turn Around Look At Me 02 HQ  avi (8VtEs-vS7ik)
tp49
a(VJudy in Disguise (With Glasses)
p50
VJohn Fred and his playboy band - Judy in disguise (Biu95fyvmLI)
tp51
a(VSpooky
p52
VClassics IV - Spooky (studio version) (i5IUxtiweLw)
tp53
a(VLove Child
p54
VThe Supremes , Love Child 1968 (JdmGO-GvHyo)
tp55
a(VAngel of the Morning
p56
VMerrilee Rush - Angel Of The Morning (stereo w/o vocal overdubs) (0mJfzv7YK0E)
tp57
a(VThe Ballad of Bonnie and Clyde
p58
VGeorgie Fame - The Ballad Of Bonnie & Clyde (GgjCHR3ikKQ)
tp59
a(VThose Were the Days
p60
VMary Hopkin - Those Were The Days - 1968 (y3KEhWTnWvE)
tp61
a(VBorn to Be Wild
p62
VSteppenwolf - Born To Be Wild (rMbATaj7Il8)
tp63
a(VCowboys to Girls
p64
VCowboys to Girls - The Intruders (PFbLzqFaykU)
tp65
a(VSimon Says
p66
V1910 FRUITGUM CO.- "SIMON SAYS" (gvzHGYSv8kw)
tp67
a(VLady Willpower
p68
V"LADY WILLPOWER" ~ Gary Puckett and the Union Gap ~ 6/68 (PYW3rfX66KU)
tp69
a(VA Beautiful Morning
p70
VA Beautiful Morning. The Rascals. (1968) (64uikGn-q3k)
tp71
a(VThe Look of Love
p72
VThe Look Of Love - Sergio Mendes & Brasil '66 (HAFYlBg_1u0)
tp73
a(VHold Me Tight
p74
VJohnny Nash - Hold Me Tight (HD) (x79a2qB5L-Q)
tp75
a(VYummy Yummy Yummy
p76
VOhio Express ~ Yummy Yummy Yummy  (HQ) (3pCxlZHDNGU)
tp77
a(VFire
p78
VFire - The Crazy World Of Arthur Brown @ TOTP 1968 (en1uwIzI3SE)
tp79
a(VLove Is All Around
p80
VThe Troggs - Love Is All Around (m_HnBac5jWs)
tp81
a(VPlayboy
p82
VGene & Debbe Playboy (eDlxq0pCiCc)
tp83
a(V(Theme from) Valley of the Dolls
p84
VDionne Warwick (Theme From) Valley of the Dolls 1968 Million Seller (9xKkSSKmjbk)
tp85
a(VClassical Gas
p86
VMason Williams - Classical Gas - ORIGINAL STEREO VERSION (mREi_Bb85Sk)
tp87
a(VSlip Away
p88
VSlip Away- Clarence Carter (tj8eAHn_2YM)
tp89
a(V(I'm A) Girl Watcher
p90
VI'm a girl watcher - O'Kaysons (dz1dpvE7wv4)
tp91
a(V(Sweet Sweet Baby) Since You've Been Gone
p92
VAretha Franklin - (Sweet Sweet Baby)Since you've been gone (LHVJU4Spe7c)
tp93
a(VGreen Tambourine
p94
VLEMON PIPERS  -  Green Tambourine  (1967) (bI1EOxwnpvk)
tp95
a(V1, 2, 3, Red Light
p96
V1910 Fruitgum Co   1- 2- 3 Red Light  (1968) (ACHBnbktFJs)
tp97
a(VReach out of the Darkness
p98
VFriend & Lover - Reach Out Of The Darkness (dqLRd4neGGE)
tp99
a(VJumpin' Jack Flash
p100
VThe Rolling Stones - Jumpin Jack Flash-HQ (eQSGw0hMd_I)
tp101
a(VMacArthur Park
p102
VRichard Harris   MacArthur Park (tRwYQgk05DY)
tp103
a(VLight My Fire
p104
VJose Feliciano  Light My Fire  with LYRICS (Fnf9PJWwPZ0)
tp105
a(VI Love You
p106
VPeople - I LOVE YOU (xO5rKF2w_ro)
tp107
a(VTake Time to Know Her
p108
VPercy Sledge - Take Time To Know Her (vFxnUMdQsPw)
tp109
a(VPictures of Matchstick Men
p110
VStatus Quo:  Pictures Of Matchstick Men ( 1968 ) (GEV55fCkW80)
tp111
a(VSummertime Blues
p112
VBlue Cheer - Summertime Blues (YXcYZsqkZ-g)
tp113
a(VAin't Nothing Like the Real Thing
p114
VMarvin Gaye & Tammi Terrell - Ain't Nothing Like the Real Thing (Jz_D-greh8Q)
tp115
a(VI Got the Feelin'
p116
VJames Brown - I Got The Feelin' (t5CAQU6KsMI)
tp117
a(VI've Gotta Get a Message to You
p118
VThe Bee Gees- I've Gotta Get a Message to You (6RUjnqH3kMw)
tp119
a(VLady Madonna
p120
VThe Beatles - Lady Madonna (gNyHymEhZmg)
tp121
a(VHurdy Gurdy Man
p122
VDonovan - Hurdy Gurdy Man (1968) Original Video 16:9 HD (dHV8Wzldlck)
tp123
a(VMagic Carpet Ride
p124
VSteppenwolf - Magic Carpet Ride (EEEzbFxEbB8)
tp125
a(VBottle of Wine
p126
VThe Fireballs - Bottle of Wine (Official Audio) (FZynyHW2hfw)
tp127
a(VStay in My Corner
p128
VStay In My Corner (BaH7YeLm8U0)
tp129
a(VSoul Serenade
p130
VWillie Mitchell - Soul Serenade (PZN10KhuKec)
tp131
a(VDelilah
p132
VTom Jones - Delilah (1968) HD and HQ (67BFvgOio58)
tp133
a(VNobody but Me
p134
VNobody but me - The Human Beinz (6mEMfxFEaXw)
tp135
a(VI Thank You
p136
VSam & Dave "I Thank You" (OLKiyo48VJI)
tp137
a(VThe Fool on the Hill
p138
VSergio Mendes & Brasil 66 - Fool On The Hill (1968) A&M Records // Complete Album (k3GShEKOg6I)
tp139
a(VSky Pilot
p140
VERIC BURDON & THE ANIMALS- "SKY PILOT" (LONG VERSION) (69zvFnVa03g)
tp141
a(VIndian Lake
p142
VTHE COWSILLS- INDIAN LAKE"  (W/LYRICS) (Qw7ubMgByYQ)
tp143
a(VI Wonder What She's Doing Tonight
p144
VTommy Boyce and Bobby Hart - I Wonder What She's Doing Tonight (mfnlBXLHd08)
tp145
a(VOver You
p146
VGary Puckett and The Union Gap Over You (QPDEV13DlIs)
tp147
a(VGoin' Out of My Head/Can't Take My Eyes Off You
p148
VMedley: Goin' Out Of My Head/Can't Take My Eyes Off Of You (9IR-Tbc73Ik)
tp149
a(VShoo-Be-Doo-Be-Doo-Da-Day
p150
VStevie Wonder - Shoo Be Doo Be Doo Da Day (rSxbMm40KzM)
tp151
a(VThe Unicorn
p152
VThe Irish Rovers - The Unicorn Song (_EPsuOEH1fY)
tp153
a(VYou Keep Me Hangin' On
p154
VVanilla Fudge - You Keep Me Hanging On (Vinyl) (LdLRoOYk50o)
tp155
a(VRevolution
p156
VRevolution - The Beatles (KrkwgTBrW78)
tp157
a(VWoman, Woman
p158
VGary Puckett and The Union Gap  "Woman,Woman" (_nNXi66N2oc)
tp159
a(VElenore
p160
VThe Turtles - Elenore lyrics (JeAtre3Bxg8)
tp161
a(VWhite Room
p162
VCream - White Room (pkae0-TgrRU)
tp163
a(VYou're All I Need to Get By
p164
VMarvin Gaye with Tammi Terrell   You're all I need to get by (gdqtmnd2T0U)
tp165
a(VBaby, Now That I've Found You
p166
VBaby Now That I've Found You- The Foundations- 1967. (EWdeWITHb6c)
tp167
a(VSweet Inspiration
p168
V"Sweet Inspiration" by the Sweet Inspirations (HjvkJTLdR28)
tp169
a(VIf You Can Want
p170
VThe Miracles - If you can want (DrSeHad3QPg)
tp171
a(VCab Driver
p172
VThe Mills Brothers Cab Driver 1981 (bKT6qDMAky0)
tp173
a(VTime Has Come Today
p174
VThe Chambers Brothers - Time Has Come Today (uHfB63ln1Ig)
tp175
a(VDo You Know the Way to San Jose
p176
VDo You KNow the Way to San Jose by Dionne Warwick (jqWt49o7R-k)
tp177
a(VScarborough Fair/Canticle
p178
VSimon & Garfunkel - Scarborough Fair/Canticle (Audio) (-Jj4s9I-53g)
tp179
a(VSay It Loud \u2013 I'm Black and I'm Proud
p180
VSay It Loud, I'm Black & I'm Proud-James Brown (j0A_N-wmiMo)
tp181
a(VThe Mighty Quinn
p182
VManfred Mann - Mighty Quinn (K13hH0pJx5s)
tp183
a(VHere Comes the Judge
p184
VShorty Long 1968 - "Here Comes The Judge" MOTOWN-121 (IQi546UqfT4)
tp185
a(VI Say a Little Prayer
p186
VAretha Franklin - I say a little prayer ( Official song ) HQ version , Photos / Photoshoots (KtBbyglq37E)
tp187
a(VThink
p188
VAretha Franklin - Think (The Blues Brothers Version) (HqYnevHibaI)
tp189
a(VSealed with a Kiss
p190
VSealed With A Kiss - Gary Lewis & The Playboys (-DtkCL6Z89A)
tp191
a(VPiece of My Heart
p192
VBig Brother And The Holding Company - Piece Of My Heart (qA78eLqHLkM)
tp193
a(VSuzie Q.
p194
VCreedence Clearwater Revival: Suzie Q (1mxaA-bJ35s)
tp195
a(VBend Me, Shape Me
p196
VAmerican Breed - Bend Me Shape Me (zarsqZCXO8Y)
tp197
a(VHey, Western Union Man
p198
VJerry Butler / Hey, Western Union Man (UrlCaXd49AA)
tp199
a(VNever Give You Up
p200
VJerry Butler - Never Give You Up (T7WJLPGKOwM)
tp201
a.