(lp1
(VWe Belong Together
p2
VMariah Carey - We Belong Together (0habxsuXW4g)
tp3
a(VHollaback Girl
p4
VGwen Stefani - Hollaback Girl (Kgjkth6BRRY)
tp5
a(VLet Me Love You
p6
VMario - Let Me Love You (H64QG4UsrGI)
tp7
a(VSince U Been Gone
p8
VKelly Clarkson - Since U Been Gone (R7UrFYvl5TE)
tp9
a(V1, 2 Step
p10
VCiara - 1, 2 Step ft. Missy Elliott (iBHNgV6_znU)
tp11
a(VGold Digger
p12
VKanye West - Gold Digger ft. Jamie Foxx (6vwNcNOTVzY)
tp13
a(VBoulevard of Broken Dreams
p14
VGreen Day: "Boulevard Of Broken Dreams" - [Official Video] (Soa3gO7tL-c)
tp15
a(VCandy Shop
p16
V50 Cent - Candy Shop ft. Olivia (SRcnnId15BA)
tp17
a(VDon't Cha
p18
VThe Pussycat Dolls - Don't Cha ft. Busta Rhymes (YNSxNsr4wmA)
tp19
a(VBehind These Hazel Eyes
p20
VKelly Clarkson - Behind These Hazel Eyes (yipoOY56MbM)
tp21
a(VDisco Inferno
p22
V50 Cent - Disco Inferno (GNqYWkiBHHw)
tp23
a(VYou and Me
p24
VLifehouse - You And Me (ac3HkriqdGQ)
tp25
a(VDon't Phunk with My Heart
p26
VThe Black Eyed Peas - Don't Phunk With My Heart (P4Bda6_usuc)
tp27
a(VLose Control
p28
VLose Control - Missy Elliott ft. Ciara and Fat man Scoop (HD) (x6o_SDIgSZ8)
tp29
a(VShake It Off
p30
VMariah Carey - Shake It Off (jZVdDl_asYY)
tp31
a(VMr. Brightside
p32
VThe Killers - Mr. Brightside (gGdGFtwCNBE)
tp33
a(VJust a Lil Bit
p34
V50 Cent - Just A Lil Bit (GllEDACUbNo)
tp35
a(VPon de Replay
p36
VRihanna - Pon de Replay (Internet Version) (oEauWw9ZGrA)
tp37
a(VHow We Do
p38
VThe Game - How We Do (Feat. 50 Cent) (K65gJEsqegE)
tp39
a(VBeverly Hills
p40
VWeezer - Beverly Hills (HL_WvOly7mY)
tp41
a(VOh
p42
VCiara - Oh ft. Ludacris (Hr4wz4-27PY)
tp43
a(VLonely No More
p44
VRob Thomas - Lonely No More (Video) (7spBU4Yv8fE)
tp45
a(VDrop It Like It's Hot
p46
VSnoop Dogg - Drop It Like It's Hot ft. Pharrell Williams (GtUVQei3nX4)
tp47
a(VHate It or Love It
p48
VThe Game, 50 Cent - Hate It Or Love It (BuMBmK5uksg)
tp49
a(VLovers & Friends
p50
Vlovers and friends (RZ6AteOOsU8)
tp51
a(VSoldier
p52
VDestiny's Child - Soldier ft. T.I., Lil' Wayne (qFJ3VKnwmJw)
tp53
a(VBreakaway
p54
VKelly Clarkson - Breakaway (c-3vPxKdj6o)
tp55
a(VSwitch
p56
VWill Smith - Switch (uzUozo1628U)
tp57
a(VLet Me Hold You
p58
VBow Wow - Let Me Hold You ft. Omarion (CX2Acz35XWY)
tp59
a(VLike You
p60
VBow Wow - Like You ft. Ciara (b-EqP0BLy1Q)
tp61
a(VRich Girl
p62
VGwen Stefani - Rich Girl ft. Eve (9rlNpWYQunY)
tp63
a(VMy Humps
p64
VThe Black Eyed Peas - My Humps (iEe_eraFWWs)
tp65
a(VObsession (No Es Amor)
p66
VFrankie J - Obsesion (No Es Amor) (hY73MQOpg-0)
tp67
a(VCaught Up
p68
VUsher - Caught Up (cFkZDhwqoHg)
tp69
a(VListen to Your Heart
p70
VD.H.T Feat Edmee - Listen To Your Heart (HD) (GxDZRk6jVIc)
tp71
a(VScars
p72
VPapa Roach-Scars (lyrics) (rORPLLZzIwA)
tp73
a(VFeel Good Inc.
p74
VGorillaz - Feel Good Inc. (Remastered) (H8Qp38qT-xI)
tp75
a(VLet Me Go
p76
V3 Doors Down - Let Me Go (thc1MtNagC8)
tp77
a(VHoliday
p78
Vgreen day - holiday - lyrics (9iJayMaUGrk)
tp79
a(VSugar, We're Goin Down
p80
VFall Out Boy - Sugar, We're Goin Down (Concept Version) (uhG-vLZrb-g)
tp81
a(VGrind with Me
p82
VPretty Ricky - Grind With Me (music video) (AdJtw7vS1E8)
tp83
a(VRun It!
p84
VChris Brown feat. Juelz Santana - Run it (+Lyrics) (e-Lx68TfRXI)
tp85
a(VPhotograph
p86
VNickelback - Photograph [OFFICIAL VIDEO] (T3rXdeOvhNE)
tp87
a(VLonely
p88
VAkon - Lonely (6EEW-9NDM5k)
tp89
a(VCollide
p90
VHowie Day- Collide- With Lyrics (Yk9G7OyKwLM)
tp91
a(VWake Me Up When September Ends
p92
VGreen Day - Wake Me Up When September Ends (with lyrics on screen) (ci5D5r6ZjXA)
tp93
a(VSlow Down
p94
VBobby V. - Slow Down (Z6NzwMif0fA)
tp95
a(VOver and Over
p96
VNelly - Over And Over ft. Tim McGraw (n3htOCjafTc)
tp97
a(VSome Cut
p98
VTrillville- Some Cut [Explicit Version] (mnYMYG6xTOE)
tp99
a(VGet It Poppin'
p100
VFat Joe ft. Nelly - Get it Poppin (dRtG6fOS-N8)
tp101
a(VPlay
p102
VDavid Banner - Play lyrics HQ (nYXWhCTxHKo)
tp103
a(VSoul Survivor
p104
VYoung Jeezy - Soul Survivor ft. Akon (gczBgNB-p1w)
tp105
a(VPimpin' All Over the World
p106
VLudacris - Pimpin' All Over The World (Golden Palace Version) ft. Bobby V. (HXLCOIcb41Y)
tp107
a(VMy Boo
p108
VUsher & Alicia Keys - My Boo (fPgf2meEX1w)
tp109
a(VSugar (Gimme Some)
p110
VTrick Daddy - Sugar (Gimme Some) (feat. Cee-Lo Green:Lil Kim) (ryAQEK4IyG8)
tp111
a(VKarma
p112
VAlicia Keys - Karma (EUMC_raxpSc)
tp113
a(VSpeed of Sound
p114
VColdplay - Speed Of Sound (0k_1kvDh2UA)
tp115
a(VI Don't Want to Be
p116
VGavin DeGraw - I Don't Want To Be (8gFCW3PHBws)
tp117
a(VMockingbird
p118
VEminem - Mockingbird (S9bCLPwzSC0)
tp119
a(VLa Tortura
p120
VShakira - La Tortura ft. Alejandro Sanz (Dsp_8Lm1eSk)
tp121
a(VShe Will Be Loved
p122
VMaroon 5 - She Will Be Loved (nIjVuRTm-dc)
tp123
a(VBaby I'm Back
p124
VBaby Bash - Baby, I'm Back ft. Akon (mEqDKq_GkJE)
tp125
a(VWait (The Whisper Song)
p126
VYing Yang Twins - Wait (The Whisper Song) (HQ / Dirty) (rPC6328ulVM)
tp127
a(VIncomplete
p128
VBackstreet Boys - Incomplete (WVe80iZtlYU)
tp129
a(VBring Em Out
p130
VT.I.- Bring Em Out (High Quality) (vuyxX5P5Xug)
tp131
a(VCater 2 U
p132
VDestiny's Child - Cater 2 U (juqws1LIH-I)
tp133
a(V1 Thing
p134
VAmerie - 1 Thing (bbqVg_23otg)
tp135
a(VBest of You
p136
VFoo Fighters - Best Of You (h_L4Rixya64)
tp137
a(VIt's Like That
p138
VMariah Carey, Fatman Scoop, Jermaine Dupri - It's Like That (uI2cwfluyNo)
tp139
a(VGoin' Crazy
p140
VGoing Crazy--Natalie (dTo3q9PQPK4)
tp141
a(VInside Your Heaven
p142
VCarrie Underwood Inside Your Heaven Lyrics(HD) (QIuOCfvzk-s)
tp143
a(VBecause of You
p144
VKelly Clarkson - Because Of You (Ra-Om7UMSJc)
tp145
a(VTruth Is
p146
VFantasia - Truth Is (e265_NvKvRQ)
tp147
a(VYour Body
p148
VPretty Ricky - Your Body Lyrics [HQ] (vi_jWIkY8dU)
tp149
a(VBeautiful Soul
p150
VJesse McCartney - Beautiful Soul [ Lyrics ] (fQLKHXhSHno)
tp151
a(VCool
p152
VGwen Stefani - Cool (TGwZ7MNtBFU)
tp153
a(VGet Back
p154
VLudacris - Get Back (Uncensored) (QMDgAevEJds)
tp155
a(VOutta Control
p156
V50 Cent - Outta Control ft. Mobb Deep (Z3Oux1lN__4)
tp157
a(VU Don't Know Me
p158
VT.I. - U Don't Know Me (Official Video) (z9H5_zDoBrU)
tp159
a(VThese Words
p160
VNatasha Bedingfield - These Words (e5RuGj0g1tk)
tp161
a(VDon't Lie
p162
VThe Black Eyed Peas - Don't Lie (WbJNkH-pDd8)
tp163
a(VGet Right
p164
VJennifer Lopez - Get Right (1WIsnC-h1d0)
tp165
a(VDaughters
p166
VJohn Mayer - Daughters (rZLbUIa7exE)
tp167
a(VAs Good as I Once Was
p168
VToby Keith - As Good As I Once Was (ldQrapQ4d0Y)
tp169
a(VGirlfight
p170
VBrooke Valentine - Girlfight (MhBM7H-ggvY)
tp171
a(VLose My Breath
p172
VDestiny's Child - Lose My Breath (AqeIiF0DlTg)
tp173
a(VOrdinary People
p174
VJohn Legend - Ordinary People (PIh07c_P4hc)
tp175
a(VWe Be Burnin'
p176
VWe Be Burning - Sean Paul (Official Video) (uUGFhVWPOFs)
tp177
a(VJust the Girl
p178
VThe Click Five - Just The Girl (video) (uQBu5whSgC4)
tp179
a(VTrue
p180
V~\u2665 True Ryan Cabrera Lyrics \u2665~ (5f3S2NDK8Jg)
tp181
a(VO
VOmarion - O (BZfgJsNwmjM)
tp182
a(VBack Then
p183
VMike Jones - Back Then (Video) (Sd0S0LwhEDU)
tp184
a(VNumb/Encore
p185
VJay-Z/Linkin Park - Numb/Encore *lyrics* (3METMAHEnvk)
tp186
a(VWonderful
p187
VJa Rule - Wonderful ft. R. Kelly, Ashanti (QVXE1EzMrfw)
tp188
a(VI'm Sprung
p189
VI'm Sprung T Pain ft Akon with lyrics (zWDDBN5X6Bw)
tp190
a(VChariot
p191
VGavin DeGraw - Chariot (JkUnBPdR9RU)
tp192
a(VU Already Know
p193
V112 ft. Foxy Brown - You Already Know (Remix) (2004) (Ax1NMY_ooxE)
tp194
a(VMississippi Girl
p195
VFaith Hill - Mississippi Girl (Video) (3nxN3HLRbbs)
tp196
a(VNumber One Spot
p197
VNumber One Spot-Ludacris (yi9_ygOYwLM)
tp198
a(VGive Me That
p199
VWebbie Ft. Bun B - Give me that [HQ] (new 2009) (Urp5qQYv5II)
tp200
a.