(lp1
(VWooly Bully
p2
VSam the Sham the Pharaos  -  Wooly Bully (uE_MpQhgtQ8)
tp3
a(VI Can't Help Myself (Sugar Pie Honey Bunch)
p4
VThe Four Tops-I Can't Help Myself (Sugar Pie, Honey Bunch) (s3bksUSPB4c)
tp5
a(V(I Can't Get No) Satisfaction
p6
VThe Rolling Stones - (I Can't Get No) Satisfaction - Lyrics (h7pb1iGcmc4)
tp7
a(VYou Were on My Mind
p8
VWe Five - You Were On My Mind (Live On Hollywood Palace) (8_f16t1JGHo)
tp9
a(VYou've Lost That Lovin' Feelin'
p10
VTHE RIGHTEOUS BROTHERS YOU`VE LOST THAT LOVIN` FEELIN` (xEkB-VQviLI)
tp11
a(VDowntown
p12
VPetula Clark   Downtown. original version (Zx06XNfDvk0)
tp13
a(VHelp!
p14
VThe Beatles "Help" Live 1965 (Reelin' In The Years Archives) (yWP6Qki8mWc)
tp15
a(VCan't You Hear My Heart Beat
p16
VHerman's Hermits - Can't You Hear My Heartbeat (O1Qw4Un4JNk)
tp17
a(VCrying in the Chapel
p18
VCrying in the Chapel - Elvis Presley (00eUebsh68M)
tp19
a(VMy Girl
p20
VThe Temptations - My Girl (6IUG-9jZD-g)
tp21
a(VHelp Me, Rhonda
p22
VHelp Me Rhonda-The Beach Boys (QSCibaH9AvU)
tp23
a(VKing of the Road
p24
VRoger Miller King Of the Road (OmOe27SJ3Yc)
tp25
a(VThe Birds and the Bees
p26
VJewel Akens-The Birds and the Bees (i0ZF543HQ9Y)
tp27
a(VHold Me, Thrill Me, Kiss Me
p28
VHold Me Thrill Me Kiss Me  ***  Mel Carter (uKturN4Beyg)
tp29
a(VShotgun
p30
VJr. Walker & The All-Stars - Shotgun (FI7CtxlisCk)
tp31
a(VI Got You Babe
p32
VSonny & Cher - I got you babe (HQ) (80QHRTQ3Kmw)
tp33
a(VThis Diamond Ring
p34
VGary Lewis & The Playboys - This Diamond Ring (stereo) (ZeuYdkxS7DA)
tp35
a(VThe 'In' Crowd
p36
VThe "In" Crowd - Ramsey Lewis Trio (1965)  (HD Quality) (et8bJy9CSzk)
tp37
a(VMrs. Brown, You've Got a Lovely Daughter
p38
VHermans Hermits - Mrs. Brown you've got a lovely daughter 1965 (lv8k0VI9tBc)
tp39
a(VStop! In the Name of Love
p40
VDiana Ross & The Supremes - Stop! In The Name Of Love (UGJQPkfwlAc)
tp41
a(VUnchained Melody
p42
VRighteous Brothers - Unchained Melody (High Quality) (qiiyq2xrSI0)
tp43
a(VSilhouettes
p44
VTwo Silhouettes (on the shade) ::: Hermans Hermits (UrBYFFDTwio)
tp45
a(VI'll Never Find Another You
p46
VThe Seekers - I'll Never find another you (MsgXbSUMzR4)
tp47
a(VCara Mia
p48
VJay & The Americans - Cara Mia (1sFy5_kmEi4)
tp49
a(VMr. Tambourine Man
p50
VThe Byrds   Mr Tambourine Man Remastered (NyOzGPbn2tg)
tp51
a(VCast Your Fate to the Wind
p52
VSounds Orchestral Cast Your Fate To The Wind (4Sdfwan5tMw)
tp53
a(VYes, I'm Ready
p54
VBarbara Mason-Yes I'm Ready (2JGPcOkebXc)
tp55
a(VWhat's New Pussycat?
p56
VTom Jones - What's New Pussycat (VBdSqk78nHw)
tp57
a(VEve of Destruction
p58
VBarry McGuire - Eve of Destruction (ntLsElbW9Xo)
tp59
a(VHang On Sloopy
p60
VMaCoys - Hang on sloopy.mpg (TlTKhPkZSJo)
tp61
a(VTicket to Ride
p62
VThe Beatles Ticket to Ride Lyrics (YFGnNs_xndo)
tp63
a(VRed Roses for a Blue Lady
p64
VRed Roses For A Blue Lady -  Bert Kaempfert and His Orchestra - (zt6WdnrAvpE)
tp65
a(VPapa's Got a Brand New Bag
p66
VJames Brown - Papa's got a brand new bag (HQ) (QE5D2hJhacU)
tp67
a(VGame of Love
p68
VWayne Fontana & The Mindbenders - Game Of Love / Original 45Single 1965 / HD 720p (7RgXQSd9ojA)
tp69
a(VThe Name Game
p70
VTHE NAME GAME SHIRLEY ELLIS (NeF7jqf0GU4)
tp71
a(VI Know a Place
p72
VPetula Clark -  I Know a Place (PGXRqzQJFzQ)
tp73
a(VBack in My Arms Again
p74
V"BACK IN MY ARMS AGAIN"  THE SUPREMES ~ 1965  HQ AUDIO (X-iNQ-E_b6Y)
tp75
a(VBaby I'm Yours
p76
VBarbara Lewis -- Baby, Im Yours (xKZ7o7EXHFM)
tp77
a(VThe Jolly Green Giant
p78
VThe Kingsmen "Jolly green giant" (oSlUq2dCOEA)
tp79
a(VHush, Hush, Sweet Charlotte
p80
VPatti Page - "Hush, Hush, Sweet Charlotte" (OyYMXjmzjwQ)
tp81
a(VLike a Rolling Stone
p82
VLike a Rolling Stone (syNLBJ_Lq9E)
tp83
a(VI'm Telling You Now
p84
VFREDDIE & THE DREAMERS - I'm Telling You Now (1966) (1LjJ4WlaZpY)
tp85
a(VFerry Cross the Mersey
p86
VGerry & The Pacemakers - Ferry Cross The Mersey (1965) (08083BNaYcA)
tp87
a(VJust Once in My Life
p88
VThe Righteous Brothers - Just Once In My Life (Z2vMp0kJHyo)
tp89
a(VThe Seventh Son
p90
Vjohnny rivers   seventh son (Kg-sS28Qnsc)
tp91
a(VI'm Henery the Eighth, I Am
p92
VHERMAN'S HERMITS-"I'M HENRY VIII, I AM" (ORIGINAL) ( W / LYRICS) (y2fbpCUmrTE)
tp93
a(VA Walk in the Black Forest
p94
VHORST JANKOWSKI - A WALK IN THE BLACK FOREST (zQqHCb16MNg)
tp95
a(VFor Your Love
p96
VFor Your Love - Yardbirds (Z2LSSgQMc2E)
tp97
a(VCalifornia Girls
p98
VBeach Boys California Girls (fmIsdMWzdaE)
tp99
a(VGo Now
p100
VMoody Blues - Go Now (h42kzEA9l8Q)
tp101
a(VGoldfinger
p102
VGoldfinger - Shirley Bassey (With lyrics) (eSnbaPW1Cfw)
tp103
a(VDown in the Boondocks
p104
VDown In The Boondocks by Billy Joe Royal Lyrics (dWw9-iygCfM)
tp105
a(VBaby the Rain Must Fall
p106
VGlenn Yarbrough - "Baby The Rain Must Fall" (PsLqL8lDN80)
tp107
a(VCatch Us If You Can
p108
VThe Dave Clark Five, Catch us if you can, true stereo (8zGvtBCgKeY)
tp109
a(VEight Days a Week
p110
VThe Beatles - Eight Days A Week (VadngOGKlP0)
tp111
a(VJust a Little
p112
VThe Beau Brummels - Just A Little (dYneeXVOAyA)
tp113
a(VYou Turn Me On
p114
VIan Whitcomb - You Turn Me On 45 rpm! (b73qiNDWZHw)
tp115
a(VI'll Be Doggone
p116
VMarvin Gaye - I'll Be Doggone (qpLi_gZPPzY)
tp117
a(VSave Your Heart for Me
p118
VGARY LEWIS & THE PLAYBOYS - Save Your Heart For Me 1965 (vIerAVD2gyo)
tp119
a(VTired of Waiting for You
p120
Vthe kinks Tired Of Waiting For You (QkBvsBpgGbo)
tp121
a(VCount Me In
p122
VGary Lewis & The Playboys - Count Me In (stereo) (LQrZzUs2MbM)
tp123
a(VAll Day and All of the Night
p124
VThe Kinks - All Day And All Of The Night (Official Audio) (fOGMRnKl5co)
tp125
a(VWhat the World Needs Now Is Love
p126
VJackie Deshannon ~ What the World Needs Now is Love  (HQ) (8c2g9RYriZ4)
tp127
a(VIt's Not Unusual
p128
VTom Jones It's Not Unusual (yca2BCwAnBQ)
tp129
a(VShe's About a Mover
p130
VSir Douglas Quintet - She's About A Mover (XboE3_7KZ3Y)
tp131
a(VShake
p132
V"Shake" by Sam Cooke (Ps_yYp5ZoHA)
tp133
a(VWonderful World
p134
VHERMAN'S HERMITS (what a) wonderful world (XNwE02gBBXI)
tp135
a(VNowhere to Run
p136
VMartha Reeves & The Vandellas - Nowhere To Run (1965) HD 0815007 (17yfqxoSTFM)
tp137
a(VHeart Full of Soul
p138
VThe Yardbirds - Heart Full Of Soul (pM1qZBFiOLU)
tp139
a(VLove Potion No. 9
p140
VThe Searchers - Love Potion No. 9 (36WVirpAieM)
tp141
a(VLaurie (Strange Things Happen)
p142
VLaurie ( Strange Things Happen )- Dickey Lee -1965 (M0N4nyYS5aA)
tp143
a(VBaby Don't Go
p144
V"SONNY and CHER" ~ "BABY DON'T GO"     1965 (BjHSOzVU5j0)
tp145
a(VIt Ain't Me Babe
p146
VThe Turtles - It Ain't Me Babe - 1965 (kYMuVeJSlwg)
tp147
a(VTell Her No
p148
VTell Her No - The Zombies (43on86AmOw8)
tp149
a(VI Go to Pieces
p150
VPeter and Gordon   I Go to Pieces (UBeKPJ4rpSo)
tp151
a(VRed Roses for a Blue Lady
p152
VVic Dana - Red roses for a blue lady (kB_67zLhbEs)
tp153
a(VDon't Just Stand There
p154
VPatty Duke - Don't Just Stand There (EUd1DXaKji8)
tp155
a(VThe Tracks of My Tears
p156
VSmokey Robinson & the Miracles The Tracks of My Tears lyrics (d03Oo8jHoTA)
tp157
a(VToo Many Rivers
p158
VToo many Rivers by Brenda Lee (LN38Xaaxuh4)
tp159
a(VI Like It Like That
p160
VThe Dave Clark Five - I Like It Like That (ln7_1TsVyvs)
tp161
a(VLittle Things
p162
VBobby Goldsboro - Little Things (Original Recording) (MDerxPB7OPA)
tp163
a(VTrue Love Ways
p164
VPeter & Gordon True Love Ways (YPf2Xe-GVqc)
tp165
a(VIt's the Same Old Song
p166
VFour Tops - It's The Same Old Song (1966) HQ 0815007 (uS2nWLz-AbE)
tp167
a(VYou've Got Your Troubles
p168
VThe Fortunes -  You've Got Your Troubles (IC42ZHJcJWg)
tp169
a(VHold What You've Got
p170
VJoe Tex - Hold On To What You've Got (_GFq-FT1rZM)
tp171
a(VWe Gotta Get out of This Place
p172
VThe Animals - We Gotta Get Out Of This Place (wJVpihgwE18)
tp173
a(VLaugh, Laugh
p174
VThe Beau Brummels - Laugh, Laugh - 1965 (DXblt-PLPzc)
tp175
a(VThe Last Time
p176
VRolling Stones The Last Time (eM2b9CcH1KM)
tp177
a(VDo You Believe in Magic
p178
VDo You Believe In Magic - The Lovin' Spoonful (mDYNuD4CwlI)
tp179
a(VAll I Really Want to Do
p180
VAll I Really Want To Do By, Cher (4YZZGfAC9dY)
tp181
a(VTake Me Back
p182
VLittle Anthony & the Imperials  "Take Me Back" (i5NL9vX01Ic)
tp183
a(VI Want Candy
p184
VThe Strangeloves - I Want Candy [HQ] original (G6Vw9RGm1tM)
tp185
a(VOoo Baby Baby
p186
VSmokey Robinson and The Miracles: "Ooo Baby Baby" (xLOB6B6vMTY)
tp187
a(VLaugh at Me
p188
VSonny Bono - Laugh At Me (1965) (berHdguUts0)
tp189
a(VTreat Her Right
p190
VRoy Head - Treat Her Right  - clean audio (Xj43dafq0r0)
tp191
a(VThe Race Is On
p192
VJack Jones - The Race Is On (2KxGwtQxQIg)
tp193
a(VI'm a Fool
p194
VDino, Desi & Billy - I'm A Fool (M_wh9Mc8GUQ)
tp195
a(VThe Boy from New York City
p196
VThe Ad Libs - The Boy From New York City (with lyrics) (3TPYmeSqLjc)
tp197
a(VKeep Searchin' (We'll Follow the Sun)
p198
VDEL SHANNON- " KEEP SEARCHIN' " (W/LYRICS) (bnSpWU8utw4)
tp199
a(VHow Sweet It Is (To Be Loved by You)
p200
VMarvin Gaye - How Sweet It Is (To Be Loved by You) (NhK18vlIjzg)
tp201
a.