(lp1
(VSilly Love Songs
p2
VSILLY LOVE SONGS   Paul McCartney  Wings   1976 HQ] (WC6_Dgrw5e0)
tp3
a(VDon't Go Breaking My Heart
p4
VDon't Go Breaking My Heart - Elton John & Kiki Dee (EQmRgFzg0jI)
tp5
a(VDisco Lady
p6
VJohnnie Taylor - Disco Lady (Long Version) (dDpC5YUhE5Y)
tp7
a(VDecember, 1963 (Oh, What a Night)
p8
VThe Four Seasons - December, 1963 (Oh, What a Night) [with lyrics] (nDxhugRKZ8g)
tp9
a(VPlay That Funky Music
p10
VWild Cherry - Play That Funky Music (qe1ScoePqVA)
tp11
a(VKiss and Say Goodbye
p12
VThe Manhattan-Lets just kiss and say goodbye. (Tj96QFzOL5Y)
tp13
a(VLove Machine
p14
VThe Miracles - Love Machine (513jP1SUgnQ)
tp15
a(V50 Ways to Leave Your Lover
p16
VPaul Simon - 50 Ways to Leave Your Lover + lyrics (298nld4Yfds)
tp17
a(VLove Is Alive
p18
VGary Wright - Love Is Alive (82DSEkHatpw)
tp19
a(VA Fifth of Beethoven
p20
VA Fifth Of Beethoven - Walter Murphy & The Big Apple Band (1976) (VAQKFNrL-o0)
tp21
a(VSara Smile
p22
VHall & Oates-Sara Smile (Red3R17FlUQ)
tp23
a(VAfternoon Delight
p24
VStarland Vocal Band ~ Afternoon Delight  (HQ) (QEupNTQm-lA)
tp25
a(VI Write the Songs
p26
VI write the songs by Barry Manilow (rMBycZq66ks)
tp27
a(VFly, Robin, Fly
p28
VSilver Convention - Fly, Robin, Fly (1975) HD 0815007 (oUPdG4DA42g)
tp29
a(VLove Hangover
p30
VDiana Ross - Love Hangover (Full Version) (Slayd5000) (niEYaeYa72U)
tp31
a(VGet Closer
p32
VSeals & Croft Get closer (pXTawaNMBGE)
tp33
a(VMore, More, More
p34
VMore, More More - Andrea True Connection (HQ Audio) (RlJGrIyt-X8)
tp35
a(VBohemian Rhapsody
p36
VQueen - Bohemian Rhapsody (Official Video) (fJ9rUzIMcZQ)
tp37
a(VMisty Blue
p38
VMISTY BLUE DOROTHY MOORE (RMONGMDEerI)
tp39
a(VBoogie Fever
p40
VThe Sylvers - Boogie Fever (Midnight Special 1976) (YHKCHvpYq_8)
tp41
a(VI'd Really Love to See You Tonight
p42
VEngland Dan & John Ford Coley - I'd Really Love To See You Tonight (tiiPdARuPh8)
tp43
a(VYou Sexy Thing
p44
VHot Chocolate- You Sexy Thing (original) (YUY9Y9RFiHY)
tp45
a(VLove Hurts
p46
Vnazareth love hurts (1976) (soDZBW-1P04)
tp47
a(VGet Up and Boogie
p48
VGet Up & Boogie - Silver Convention | Full HD | (vhblDyGtRNs)
tp49
a(VTake It to the Limit
p50
VEagles - Take It To The Limit (Live at The Capital Centre 1977) (O7hmF_IX9Ic)
tp51
a(V(Shake, Shake, Shake) Shake Your Booty
p52
V(Shake, Shake, Shake) Shake Your Booty - KC & The Sunshine Band (1976) (N1YXcD0njts)
tp53
a(VSweet Love
p54
V\u273f THE COMMODORES - Sweet Love (1976) \u273f (OPT3ZzxJlRM)
tp55
a(VRight Back Where We Started From
p56
VMaxine Nightingale - Right Back Where We Started From (ckCwBAhz4oc)
tp57
a(VTheme from S.W.A.T.
p58
VTheme From S W A T Rhythm Heritage (LHDg96-ZN_U)
tp59
a(VLove Rollercoaster
p60
VOhio Players-Love Rollercoaster (Studio Version) HQ (sR9CRxY9Ne0)
tp61
a(VYou Should Be Dancing
p62
VBee Gees - You Should Be Dancing (_JoZS6LgqYI)
tp63
a(VYou'll Never Find Another Love Like Mine
p64
VYou'll Never Find Another Love Like Mine (XCW1i5HQ0o0)
tp65
a(VGolden Years
p66
VDavid Bowie - Golden Years (HRD0ghlFSgk)
tp67
a(VMoonlight Feels Right
p68
VMoonlight Feels Right - Starbuck - HQ Audio))) (MD-7ly19vTE)
tp69
a(VOnly Sixteen
p70
VDr Hook  -  "Only Sixteen" (olQNes_mq8I)
tp71
a(VLet Your Love Flow
p72
VLet Your Love Flow - Bellamy Brothers Lyrics (J4Bl_VQ2inM)
tp73
a(VDream Weaver
p74
VGary Wright - DreamWeaver Official Video (xZKuzwPOefs)
tp75
a(VTurn the Beat Around
p76
VTURN THE BEAT AROUND / VICKY SUE ROBINSON (TRSzZsQV5fc)
tp77
a(VLonely Night (Angel Face)
p78
VCaptain & Tennille ~ Lonely Night (Angel Face) (OzD6E9-jTWA)
tp79
a(VAll by Myself
p80
VEric Carmen - All By MySelf (HQ) (EzoazPPC7b8)
tp81
a(VLove to Love You Baby
p82
VDonna Summer Love To Love You Baby original long version (Disco 70s) (V5AztWseIdU)
tp83
a(VDeep Purple
p84
VDonny & Marie Osmond - "Deep Purple" (ROOFYmpvHYM)
tp85
a(VTheme from Mahogany (Do You Know Where You're Going To)
p86
VDiana Ross - Theme From Mahogany (Do You Know Where You're Going To) (3DnxTvqOe-I)
tp87
a(VSweet Thing
p88
VSweet Thing - Rufus & Chaka Khan (bFKXGVtXq8s)
tp89
a(VThat's the Way (I Like It)
p90
VK.C & THE SUNSHINE BAND - That's the way I like it (1975) (83I9El6C47A)
tp91
a(VA Little Bit More
p92
VDr Hook - A Little Bit More (O2MsndyW33Q)
tp93
a(VShannon
p94
VShannon- Henry Gross (R5Wpn3dFrEs)
tp95
a(VIf You Leave Me Now
p96
VChicago - If You Leave Me Now (OlKaVFqxERk)
tp97
a(VLowdown
p98
VBoz Scaggs - Lowdown (I-hKBmTAADo)
tp99
a(VShow Me the Way (live)
p100
VPeter Frampton - Show Me The Way - 7/2/1977 - Oakland Coliseum Stadium (Official) (-6ZGIBfSF-k)
tp101
a(VDream On
p102
VDream On by Aerosmith lyrics (hHRNSeuvzlM)
tp103
a(VI Love Music
p104
VThe O'Jays - I Love Music (1975) (e_1s2UFc_z8)
tp105
a(VSay You Love Me
p106
VFleetwood Mac - Say You Love Me [Single Version] (3k4vTRIR5VQ)
tp107
a(VTimes of Your Life
p108
VTimes Of Your Life with Lyrics - Paul Anka (wtxanSrNdN8)
tp109
a(VDevil Woman
p110
VCliff Richard - Devil Woman [HQ stereo] (7tuAkdlLhTE)
tp111
a(VFooled Around and Fell in Love
p112
V5. Elvin Bishop - Fooled Around and Fell in Love (DyMMEmwFQUE)
tp113
a(VConvoy
p114
VC.W. McCALL - CONVOY 1975 (Audio Enhanced) (xN4XpIbEY-Y)
tp115
a(VWelcome Back
p116
VJohn Sebastian - Welcome Back (GGlY3ubGzUY)
tp117
a(VSing a Song
p118
VEarth, Wind & Fire - Sing a Song (HBpsOu8jyU8)
tp119
a(VHeaven Must Be Missing an Angel
p120
VHEAVEN MUST BE MISSING AN ANGEL !!! TAVARES (6wcixnwEiik)
tp121
a(VI'll Be Good to You
p122
VBROTHERS JOHNSON - I'll Be Good to You (20th Century Masters Edition) (_6gzwVinPAM)
tp123
a(VRock and Roll Music
p124
VRock and Roll Music- The Beach Boys (vS3h5oGEuqk)
tp125
a(VShop Around
p126
VCaptain And Tennille - "Shop Around" (Rraiqec67J0)
tp127
a(VSaturday Night
p128
VS-A-T-U-R-D-A-Y NIGHT! Bay City Rollers (dBn2ux5vRHk)
tp129
a(VIsland Girl
p130
VElton John - Island Girl (1975) With Lyrics! (IdUpUu9-Oko)
tp131
a(VLet's Do It Again
p132
VStaple Singers - Let's Do It Again (NIS4P8xbPtg)
tp133
a(VLet 'Em In
p134
VPaul McCartney & Wings - Let 'Em In (0y0v7zpHJkU)
tp135
a(VBaby Face
p136
VThe Wing And A Prayer Fife And Drum Corps - Baby Face (dFgOdlrIwZw)
tp137
a(VThis Masquerade
p138
Vgeorge benson this masquerade (sgl1hQmjITY)
tp139
a(VEvil Woman
p140
VElectric Light Orchestra- Evil Woman (R20f-TPKjzc)
tp141
a(VWham Bam
p142
VSilver - Wham Bam (zB5dsglj25o)
tp143
a(VI'm Easy
p144
VKeith Carradine - I'm Easy [From The Movie 'Nashville'] (Fj6bvtylW9I)
tp145
a(VWake Up Everybody
p146
VHarold Melvin & The Blue Notes-Wake Up Everybody (2HhV3Slqtvw)
tp147
a(VSummer
p148
VSUMMER (Original Full-Length Album Version) - War (gSQAlfyaKyc)
tp149
a(VLet Her In
p150
VJohn Travolta  - Let Her In (1976) (fZFM4Zx2JNU)
tp151
a(VFox on the Run
p152
VFox On The Run -Sweet (2k1-kh6HbHQ)
tp153
a(VRhiannon
p154
VFleetwood Mac - Rhiannon (mDkKyBU7GCs)
tp155
a(VGot to Get You into My Life
p156
VThe Beatles - Got To Get You Into My Life (bxhhFOnXs2M)
tp157
a(VFanny (Be Tender with My Love)
p158
VBee Gees - Fanny (Be Tender With My Love) (G4qrEOCNr3g)
tp159
a(VGetaway
p160
VEarth Wind And Fire - Getaway (vE2zx4lr-h8)
tp161
a(VShe's Gone
p162
VHALL & OATES-She's Gone (The Essential DARYL HALL & JOHN OATES) (jpR8r0D2EyY)
tp163
a(VStill the One
p164
VOrleans - Still The One (with lyrics) (S5aMMRes2u4)
tp165
a(VYou're My Best Friend
p166
VQueen - You're My Best Friend (Official Video) (HaZpZQG2z10)
tp167
a(VWith Your Love
p168
VJefferson Starship: With Your Love (Gyp0f8L5nd4)
tp169
a(VSlow Ride
p170
VSlow Ride- Foghat (Full Version) (GcCNcgoyG_0)
tp171
a(VWho'd She Coo?
p172
VOhio Players - Who'd She Coo? (XTBXz41nkwM)
tp173
a(VThe Boys Are Back in Town
p174
VBoys Are Back In Town Thin Lizzy (hQo1HIcSVtg)
tp175
a(VWalk Away from Love
p176
VDavid Ruffin - Walk Away From Love (QmneugiD7Ig)
tp177
a(VBaby, I Love Your Way (live)
p178
VPeter Frampton - Baby I Love Your Way (FCA! 35 Tour - An Evening With Peter Frampton) (HN0fneIQhJk)
tp179
a(VYoung Hearts Run Free
p180
VCandi Staton - Young Hearts Run Free (HPAd4kNqe-s)
tp181
a(VBreaking Up Is Hard to Do
p182
VBREAKING UP IS HARD TO DO - NEIL SEDAKA (XQD3At3E7TA)
tp183
a(VMoney Honey
p184
VBAY CITY ROLLERS- MONEY HONEY (BAupAvfTq2A)
tp185
a(VGive Up the Funk (Tear the Roof off the Sucker)
p186
VParliament - Give Up The Funk (Tear The Roof Off The Sucker) (ImI78s638hQ)
tp187
a(VJunk Food Junkie
p188
VLarry Groce - Junk Food Junkie (1976) (jQnIL-XPerQ)
tp189
a(VTryin' to Get the Feeling Again
p190
VTryin' to Get the Feeling Again (cgKbT_AIV0Y)
tp191
a(VRock and Roll All Nite (live)
p192
VKISS - "Rock And Roll All Nite" Live At Fashion Rocks 2014 (gYRvQ0E_Ppg)
tp193
a(VDisco Duck
p194
VRick Dees and his Cast of Idiots - Disco Duck  TOTP ( 1976 ) (ynWhozyOoZQ)
tp195
a(VTake the Money and Run
p196
VTake The Money And Run - The Steve Miller Band (Lyrics + HQ) (-WCFUGCOLLU)
tp197
a(VSqueeze Box
p198
VSqueeze Box The Who (49H0IfoILwQ)
tp199
a(VCountry Boy (You Got Your Feet in L.A.)
p200
VCountry Boy You Got Your Feet in L A   GLEN CAMPBELL (oSP_qZY7i1Q)
tp201
a.