(lp1
(VBridge over Troubled Water
p2
VSimon & Garfunkel, Bridge Over Troubled Water, Central Park (C-PNun-Pfb4)
tp3
a(V(They Long to Be) Close to You
p4
VCarpenters - (They Long To Be) Close To You (HD) (ANZ1sUwg_Fg)
tp5
a(VAmerican Woman
p6
VAmerican Woman - The Guess Who (_FUo2oZsXbc)
tp7
a(VRaindrops Keep Fallin' on My Head
p8
VB.J.Thomas - Raindrops Keep Fallin' On My Head (hziG9Nr6KHU)
tp9
a(VWar
p10
VEdwin Starr- War (HQ) (dQHUAJTZqF0)
tp11
a(VAin't No Mountain High Enough
p12
VDiana Ross: Ain't No Mountain High Enough (Ashford / Simpson), 1967 - Lyrics-\u0422\u0435\u043a\u0441\u0442\u0438-Paroles (5_pmKPWLBrE)
tp13
a(VI'll Be There
p14
VJackson 5-I'll Be There (W-apaIOOoAo)
tp15
a(VGet Ready
p16
VRare Earth - Preparate (Get Ready) FULL VERSION!! (IyAwY2Q96Ps)
tp17
a(VLet It Be
p18
VThe Beatles - Let It Be Lyrics (WcBnJw-H2wQ)
tp19
a(VBand of Gold
p20
VBand Of Gold , Freda Payne , 1970 Vinyl (daxiMb0rITA)
tp21
a(VMama Told Me (Not to Come)
p22
VThree Dog Night - Mama Told Me (Not To Come) (wkM7uWBjUrI)
tp23
a(VEverything Is Beautiful
p24
VRay Stevens - Everything Is Beautiful (0a45z_HG3WU)
tp25
a(VMake It with You
p26
VBread - Make it with you (1970) (s0KXV0gB0dw)
tp27
a(VHitchin' a Ride
p28
VHitchin` A Ride - Vanity Fare (TIwnAs4iwaE)
tp29
a(VABC
p30
VThe Jackson 5 - ABC (ho7796-au8U)
tp31
a(VThe Love You Save
p32
VJackson 5 - The Love You Save (QR-X4pCwL_o)
tp33
a(VCracklin' Rosie
p34
VNeil Diamond - Cracklin' Rosie (YhumCu3fzMI)
tp35
a(VCandida
p36
VCandida - Dawn (B6krs-w4DQg)
tp37
a(VThank You (Falettinme Be Mice Elf Agin)
p38
VThank You (Falettinme Be Mice Elf Agin) - Sly & The Family Stone (N5BP2KlPD4U)
tp39
a(VSpill the Wine
p40
VEric Burdon & War - Spill The Wine (3i0DMbCKnAg)
tp41
a(VO-o-h Child
p42
V11. The Five Stairsteps - O-O-H Child (kmpU_73CXxU)
tp43
a(VSpirit in the Sky
p44
VSpirit In The Sky Norman Greenbaum (AZQxH_8raCI)
tp45
a(VLay Down (Candles in the Rain)
p46
VMelanie - Lay Down (Candles in the Rain (1970) (hlp3wmE4bbI)
tp47
a(VBall of Confusion (That's What the World Is Today)
p48
VThe Temptations - Ball of Confusion (-9poCAuYT-s)
tp49
a(VLove on a Two-Way Street
p50
VThe Moments - Love On a two Way Street (kwUsIMJPlYk)
tp51
a(VWhich Way You Goin' Billy?
p52
VWhich Way You Goin' Billy- The Poppy Family with Lyrics (PL-qLX_vQy0)
tp53
a(VAll Right Now
p54
VFree - All Right Now (siMFORx8uO8)
tp55
a(VI Want You Back
p56
VI Want You Back - The Jackson 5 (s3Q80mk7bxE)
tp57
a(VJulie (Do Ya Love Me)
p58
VBobby Sherman - Julie Do Ya Love Me (Lvluf32HT1E)
tp59
a(VGreen-Eyed Lady
p60
VSugarloaf - Green-Eyed Lady (Original Song HQ) 1970 (i_i7PKdQJU4)
tp61
a(VSigned, Sealed, Delivered I'm Yours
p62
VStevie Wonder - Signed, Sealed, Delivered I'm Yours (WvRwR-hZDVY)
tp63
a(VRide Captain Ride
p64
VBlues Image-Ride Captain Ride (r8lf7RLYIww)
tp65
a(VVenus
p66
VShocking Blue - Venus (Official Video) (aPEhQugz-Ew)
tp67
a(VInstant Karma!
p68
VInstant Karma - John lennon (EqP3wT5lpa4)
tp69
a(VPatches
p70
VClarence Carter - Patches  (High Quality) (IvfsfS6NVUc)
tp71
a(VLookin' out My Back Door
p72
VCreedence Clearwater Revival - Lookin' Out My Back Door (Aae_RHRptRg)
tp73
a(VRainy Night in Georgia
p74
VBrook Benton - Rainy Night in Georgia (bDRbF80NKDU)
tp75
a(VSomething's Burning
p76
VKenny Rogers & The First Edition (Something's Burning). (WD-bnNcFNBc)
tp77
a(VGive Me Just a Little More Time
p78
VGive Me Just A Little More Time - The Chairmen of the Board (gzIAiyxS-nk)
tp79
a(VLove Grows (Where My Rosemary Goes)
p80
Vedison lighthouse - Love grows where my rosemary goes (tr6H1a7YUac)
tp81
a(VThe Long and Winding Road
p82
VThe Beatles - The Long And Winding Road [w/ lyrics] (Xqu9qhBHWNs)
tp83
a(VSnowbird
p84
VAnne Murray - Snowbird (with lyrics) (pq9bHd58-LA)
tp85
a(VReflections of My Life
p86
V"REFLECTIONS OF MY LIFE"   THE MARMALADE  ~ 1969 - original recording ~ HQ AUDIO (xTeI65yrhGw)
tp87
a(VHey There Lonely Girl
p88
V"Hey There Lonely Girl" Live! (3lscp1GCjUQ)
tp89
a(VThe Rapper
p90
VThe Jaggerz - 'The Rapper' (-fYV3dJp-k4)
tp91
a(VHe Ain't Heavy, He's My Brother
p92
VTHE HOLLIES - He Ain't Heavy He's My Brother ( TOTP ) 1970 (iPDl9yKSnDE)
tp93
a(VTighter, Tighter
p94
VAlive And Kicking - Tighter, Tighter (1970) (mjG9wK-Cn-o)
tp95
a(VCome and Get It
p96
VBadfinger - Come and get it (1969) (N3TOcw7taBo)
tp97
a(VCecilia
p98
VSimon & Garfunkel - Cecilia (a5_QV97eYqM)
tp99
a(VLove Land
p100
VCharles Wright & The Watts 103rd Street Rhythm Band   Love Land (sZ0yX05h3IQ)
tp101
a(VTurn Back the Hands of Time
p102
VTyrone Davis - If I Could Turn Back The Hands Of Time (Best Version) (j-opxZJvIZ0)
tp103
a(VLola
p104
VThe Kinks - Lola (Official Audio) (LemG0cvc4oU)
tp105
a(VIn the Summertime
p106
VMungo Jerry - In The Summertime ORIGINAL 1970 (wvUQcnfwUUM)
tp107
a(VIndiana Wants Me
p108
VR Dean Taylor - Indiana Wants Me 1970 (fZL_tZxyBDo)
tp109
a(V(I Know) I'm Losing You
p110
VRare Earth - I Know I'm Losing You (full version) (F28X8--2dFU)
tp111
a(VEasy Come, Easy Go
p112
VEasy Come, Easy Go - Bobby Sherman (QJOuTr0BXb4)
tp113
a(VExpress Yourself
p114
VCharles Wright & The Watts 103rd Street Rhythm Band - Express Yourself (HRJK4z2Y6d0)
tp115
a(VStill Water (Love)
p116
VFour Tops - Still Water (Love) - Live (g6TyCo5mXk8)
tp117
a(VMake Me Smile
p118
VChicago- Make Me Smile (NifeiFF2Ufo)
tp119
a(VThe House of the Rising Sun
p120
VFrijid Pink - House of the Rising Sun (t40INnb6DnY)
tp121
a(V25 or 6 to 4
p122
VChicago - 25 or 6 to 4 - 7/21/1970 - Tanglewood (Official) (7uAUoz7jimg)
tp123
a(VMy Baby Loves Lovin'
p124
VWhite Plains - My Baby Loves Lovin - ( TOTP ) (GTcN4Mm4ZDI)
tp125
a(VLove or Let Me Be Lonely
p126
VThe Friends Of Distinction - Love Or Let Me Be Lonely (WqjWWH0mQBQ)
tp127
a(VUnited We Stand
p128
VBrotherhood Of Man - United We Stand - *T*O*T*P*1970 (RZB96cvBjy8)
tp129
a(VWe've Only Just Begun
p130
VThe Carpenters  "We've Only Just Begun" (8JgEptmz_eE)
tp131
a(VArizona
p132
VMARK LINDSAY  (Arizona). (cE6Dn0n-Zbs)
tp133
a(VFire and Rain
p134
VFire And Rain - James Taylor with lyrics (C3uaXCJcRrE)
tp135
a(VGroovy Situation
p136
VGene Chandler - Groovy Situation (QFOnZAzjeoU)
tp137
a(VEvil Ways
p138
VSantana - Evil Ways 1969 "Woodstock" Live Video Sound HQ (nPauXWjY4T8)
tp139
a(VNo Time
p140
VThe Guess Who - No Time (oqeSUAlI5uI)
tp141
a(VDidn't I (Blow Your Mind This Time)
p142
VThe Delfonics - Didn't I (Blow Your Mind This Time) - 1970 (l153atE72OA)
tp143
a(VThe Wonder of You
p144
VElvis Presley-The Wonder of You (bcvvRYYoGxg)
tp145
a(VUp Around the Bend
p146
VCreedence Clearwater Revival: Up Around The Bend (BnRsaHXHznQ)
tp147
a(V(If You Let Me Make Love To You Then) Why Can't I Touch You?
p148
VRonnie Dyson "If You Let Me Make Love To You"  (ThenYou Why Can't I Touch You" (YucP1lfEiEs)
tp149
a(VI Just Can't Help Believing
p150
VB.J. THOMAS- " I JUST CAN'T HELP BELIEVING " (EGqgW07lnuU)
tp151
a(VIt's a Shame
p152
VThe Spinners - Its A Shame (DE0EOIqwiQI)
tp153
a(VFor the Love of Him
p154
VFor The Love Of Him - Bobbi Martin (CrxpD1bPDC8)
tp155
a(VMississippi Queen
p156
VMountain - Mississippi Queen (qFhM1XZsh6o)
tp157
a(VI Want to Take You Higher
p158
VI Want to Take Higher   -   Ike & Tina Turner (Up5GGnPagBI)
tp159
a(VThe Letter
p160
VJoe Cocker "The Letter" in live 1970 (MAD DOGS & ENGLISHMEN) (4RnjWLVyMps)
tp161
a(VMa Belle Amie
p162
VTEE-SET - MA BELLE AMIE (Bioah3q7JOk)
tp163
a(VThe Bells
p164
VThe Bells - The Originals (RZ5ZWEKiEJk)
tp165
a(VYellow River
p166
VChristie - Yellow River - 1970 (zGoHQ7c5I2I)
tp167
a(VSomebody's Been Sleeping
p168
VSomebodys Been Sleeping - 100 Proof Aged In Soul (3_QkrzaxR0Q)
tp169
a(VVehicle
p170
VThe Ides Of March - "Vehicle" (sxJFjO4Skgo)
tp171
a(VGimme Dat Ding
p172
VThe Pipkins - Gimme Dat Ding (YEEy615Jzg4)
tp173
a(VLay a Little Lovin' On Me
p174
VROBIN MCNAMARA- "LAY A LITTLE LOVIN' ON ME" (bk9wH9Tx-_c)
tp175
a(VUp the Ladder to the Roof
p176
VThe Supremes "Up The Ladder To The Roof" (9v1S-ypz5a4)
tp177
a(VTravelin' Band
p178
VCreedence Clearwater Revival: Travellin' Band (VwcJ5WQSamQ)
tp179
a(VCome Saturday Morning
p180
V"Come Saturday Morning" by the Sandpipers (8nIdGutgymY)
tp181
a(VPsychedelic Shack
p182
VTHE TEMPTATIONS - "Psychedelic Shack" (1970).wmv (s_A3zQw-yEY)
tp183
a(VWithout Love (There Is Nothing)
p184
VTom Jones - Without love ( There is nothing ) (HvA1DlqamME)
tp185
a(VAre You Ready?
p186
VPacific Gas & Electric - Are You Ready (20HmSomEHZ0)
tp187
a(VWoodstock
p188
VCrosby, Stills, Nash & Young - Woodstock (TrWNTqbLFFE)
tp189
a(VI'll Never Fall in Love Again
p190
VI'll never fall in love again - Dionne Warwick (FzQBOBoPg04)
tp191
a(VLook What They've Done to My Song Ma
p192
VThe New Seekers - "Look What They've Done To My Song Ma" (JthgsbcUY2Q)
tp193
a(VWalk A Mile In My Shoes
p194
VWalk A Mile In My Shoes (1970) Joe South (Remastered Stereo)  & Lyrics (x_IRzJDGiHU)
tp195
a(VThe Thrill Is Gone
p196
VB. B. King - The Thrill Is Gone (Live at Montreux 1993) (4fk2prKnYnI)
tp197
a(VIt's Only Make Believe
p198
VGlen Campbell - It's Only Make Believe (ORIGINAL) (064JXXk2Hrs)
tp199
a(VCall Me
p200
VCall Me - Aretha Franklin: Very Best Of Aretha Franklin, Vol. 1 CD (A1fdQ29WQ1Y)
tp201
a.