(lp1
(VTonight's the Night (Gonna Be Alright)
p2
VRod Stewart - Tonight's The Night [Gonna Be Alright] (IZr6AE-u2UM)
tp3
a(VI Just Want to Be Your Everything
p4
VAndy Gibb - I Just Want to Be Your Everything (HQ with lyrics) (tA6L8-lxaA8)
tp5
a(VBest of My Love
p6
VEmotions - Best Of My Love (HQ with lyrics) (WPefERS7EZs)
tp7
a(VEvergreen (Love Theme from A Star Is Born)
p8
VBARBRA STREISAND - EVERGREEN (LOVE THEME FROM "A STAR IS BORN") (zOPBlGj1huI)
tp9
a(VAngel in Your Arms
p10
VHot -Angel In Your Arms (bku5VetnNvc)
tp11
a(VI Like Dreamin'
p12
VI Like Dreamin' - Kenny Nolan  w/Lyrics (yb2OweNMQvo)
tp13
a(VDon't Leave Me This Way
p14
VTHELMA HOUSTON Don't Leave Me This Way Original Album Version (yioNn7XS-bw)
tp15
a(V(Your Love Has Lifted Me) Higher and Higher
p16
VRita Coolidge - (Your Love Has Lifted Me)Higher & Higher (mC6l7ypNqKA)
tp17
a(VUndercover Angel
p18
VAlan O'Day -1977- Undercover Angel (G-xRMw0NyW0)
tp19
a(VTorn Between Two Lovers
p20
VTORN BETWEEN TWO LOVERS by MARY MACGREGOR WITH LYRICS (TzGbvTl4mpg)
tp21
a(VI'm Your Boogie Man
p22
VKC and the Sunshine Band - I'm your Boogie Man (Full version) (CaPcKtLioww)
tp23
a(VDancing Queen
p24
VAbba - Dancing Queen (xFrGuyw1V8s)
tp25
a(VYou Make Me Feel Like Dancing
p26
VLeo Sayer - You make me feel like dancing (HhSjwU8gEsI)
tp27
a(VMargaritaville
p28
VJimmy Buffett - Margaritaville (with lyrics) (ue2-ZVxpVjc)
tp29
a(VTelephone Line
p30
VElectric Light Orchestra - Telephone Line (Audio) (77R1Wp6Y_5Y)
tp31
a(VWhatcha Gonna Do?
p32
VPablo Cruise | Watcha Gonna Do (NPWqe7l6JK8)
tp33
a(VDo You Wanna Make Love
p34
VPeter McCann - Do You Wanna Make Love (9Kj-tdp7reE)
tp35
a(VSir Duke
p36
VStevie Wonder - Sir Duke [HD] (s6fPN5aQVDI)
tp37
a(VHotel California
p38
VEagles Hotel California (mpAkMk0phOs)
tp39
a(VGot to Give It Up
p40
VGOT TO GIVE IT UP - MARVIN GAYE (fp7Q1OAzITM)
tp41
a(VGonna Fly Now
p42
VGonna Fly Now - \ufeff\ufeff\ufeffDeEtta Little & Nelson Pigford (r3Hll8SwWiM)
tp43
a(VSouthern Nights
p44
VSouthern Nights - Glen Campbell (7wOUFo4Lwf8)
tp45
a(VRich Girl
p46
VRich Girl-Hall & Oates (7mdIWaRi-7c)
tp47
a(VWhen I Need You
p48
VWhen I need you - Leo Sayer (With lyrics) [HQ] (KoXcRw9gJCA)
tp49
a(VHot Line
p50
VThe Sylvers - Hot Line - [original single - STEREO] (lxlZWrac-bQ)
tp51
a(VCar Wash
p52
VRose Royce - Car Wash (PkxaunLybuM)
tp53
a(VYou Don't Have to Be a Star (To Be in My Show)
p54
VMarilyn McCoo & Billy Davis Jr.- You Don't Have to Be a Star (-nb9jJg_wIU)
tp55
a(VFly Like an Eagle
p56
VSteve Miller Band-Fly Like An Eagle (c1f7eZ8cHpM)
tp57
a(VDon't Give Up on Us
p58
V"Don't Give Up On Us Baby" by David Soul {w/lyrics} (8aH3H1auHcA)
tp59
a(VOn and On
p60
VStephen Bishop : On And On (ljuJnUYozUg)
tp61
a(VFeels Like the First Time
p62
VForeigner   Feels Like The First Time (QNm_LihEsn0)
tp63
a(VCouldn't Get It Right
p64
VCouldn't Get It Right - Climax Blues Band (1976) (iwnC_8_ZeYE)
tp65
a(VEasy
p66
VEasy - The Commodores (7XcTyEKSnYg)
tp67
a(VRight Time of the Night
p68
VJENNIFER WARNES Right Time of the Night (xa4nRJCEz28)
tp69
a(VI've Got Love on My Mind
p70
VNatalie Cole  I've Got Love On My Mind (nWYevR0Z-7w)
tp71
a(VBlinded by the Light
p72
VBlinded by the Light ~ Manfred Mann's Earth Band with lyrics (OlBifX0H3yg)
tp73
a(VLooks Like We Made It
p74
VLooks Like We Made It by Barry Manilow (cIcqUokPiTw)
tp75
a(VSo In to You
p76
VAtlanta Rhythm Section - So Into You (original) (QyIZ3pYKOQM)
tp77
a(VDreams
p78
VFleetwood Mac - Dreams [with lyrics] (mrZRURcb1cM)
tp79
a(VEnjoy Yourself
p80
VThe Jacksons - Enjoy Yourself (Michael Jackson's Vision) (4WILbxhnlSQ)
tp81
a(VDazz
p82
VBrick - Dazz (1976) (kpr9qvuodVA)
tp83
a(VI'm in You
p84
VI'm in you -Peter Frampton 1976 (EH0dq02TOPQ)
tp85
a(VLucille
p86
VKenny Rogers - Lucille (with lyrics) (4SDVkdcO8ts)
tp87
a(VThe Things We Do for Love
p88
V10cc - The Things We Do for Love (cgptvsHHYK4)
tp89
a(VDa Doo Ron Ron
p90
VSHAUN CASSIDY Da Doo Ron Ron (KGIyCf_DFug)
tp91
a(VHandy Man
p92
VJames Taylor - Handy Man [w/ lyrics] (kGdWA93e-Ls)
tp93
a(VJust a Song Before I Go
p94
VCrosby, Stills & Nash - Just A Song Before I Go (0YGTPvDoJyM)
tp95
a(VYou and Me
p96
VAlice Cooper - You And Me (Album Version) HQ (y9q8dTZ9PHo)
tp97
a(VSwayin' to the Music (Slow Dancing)
p98
VJohnny Rivers ~ "Swayin' To The Music" Slow Dancin' 1977 HQ audio (A2zX_ScsOSs)
tp99
a(VLonely Boy
p100
VLonely Boy - Andrew Gold (boAv-Bu4MrI)
tp101
a(VI Wish
p102
VStevie Wonder - I Wish (the original version) (hYKYka-PNt0)
tp103
a(VDon't Stop
p104
VFleetwood Mac-Don't Stop (DmbQx5u5i7w)
tp105
a(VBarracuda
p106
VBarracuda- Heart (s4nWy8pmIM4)
tp107
a(VStrawberry Letter 23
p108
VStrawberry Letter 23 - The Brothers Johnson ( 12" Extended ) (q-ipH9Ws-zs)
tp109
a(VNight Moves
p110
VBob Seger & The Silver Bullet Band - Night moves (album version) (bgOA24hAe60)
tp111
a(VYou're My World
p112
VHELEN REDDY You're My World (kS4MluqQaoM)
tp113
a(VHeard It in a Love Song
p114
VMarshall Tucker Band - Heard it in a Love Song (MUL68ZeclcA)
tp115
a(VCarry On Wayward Son
p116
VKansas - Carry On Wayward Son (2X_2IdybTV0)
tp117
a(VNew Kid in Town
p118
VEagles - New Kid in Town (Live) (QtmAHq0TKHI)
tp119
a(VMy Heart Belongs to Me
p120
VBarbra Streisand My Heart Belongs To Me (with lyrics) (X9gyGaNysB4)
tp121
a(VAfter the Lovin'
p122
VENGELBERT HUMPERDINCK - AFTER THE LOVIN' 1976 (fkstdb32Gmw)
tp123
a(VJet Airliner
p124
VSteve Miller Band - Jet Airliner (mGF_0AcHaGs)
tp125
a(VStand Tall
p126
VBurton Cummings - Stand Tall     1976 (QewlA7_b5p0)
tp127
a(VWay Down
p128
VWay Down ~ Elvis Presley (AcLiwsjvj04)
tp129
a(VWeekend in New England
p130
VBarry Manilow - Weekend In New England (Lyrics) (RRWMixC5jpQ)
tp131
a(VIt Was Almost Like a Song
p132
VRonnie Milsap - "Almost Like A Song" - LIVE (pVi3yVPnRus)
tp133
a(VSmoke from a Distant Fire
p134
VSanford Townsend Band - Smoke From a Distant Fire (wCWVuCCWqzQ)
tp135
a(VCold as Ice
p136
VFOREIGNER - COLD AS ICE (lMqfWoFjgto)
tp137
a(VAriel
p138
VAriel - Dean Friedman . (ONXQbbJJLuM)
tp139
a(VLost Without Your Love
p140
VLost Without Your Love by Bread,  David Gates...with Lyrics (L-D_jFuUGzI)
tp141
a(VStar Wars Theme/Cantina Band
p142
VMeco - Star Wars Theme/Cantina Band (WFcmuhTTqoY)
tp143
a(VFloat On
p144
VThe Floaters - Float On  -  HQ (HZklwTGZutc)
tp145
a(VJeans On
p146
VDavid Dundas - Jeans on (vwGlhKcEBjY)
tp147
a(VLido Shuffle
p148
VBoz Scaggs - Lido Shuffle (HQZBaJAngH8)
tp149
a(VKeep It Comin' Love
p150
VKC & THE SUNSHINE BAND - Keep It Coming Love (The Best Of) (Zw08wUJLGpo)
tp151
a(VYou Made Me Believe in Magic
p152
VBay City Rollers - You made me believe in magic 1977 (SmWN1H3XASI)
tp153
a(VLivin' Thing
p154
VElectric Light Orchestra - Livin' Thing (i2d45tOgBl0)
tp155
a(VGive a Little Bit
p156
VGive A Little Bit (YzktQty-sbU)
tp157
a(VThat's Rock 'n' Roll
p158
VShaun Cassidy: That's Rock 'N' Roll (CxxVE2FGzFY)
tp159
a(VLove So Right
p160
VThe Bee Gees - Love So Right (GfV51KD1TJQ)
tp161
a(VThe Rubberband Man
p162
VSpinners - Rubberband Man (-tvvQQmi7HY)
tp163
a(VI Never Cry
p164
VI Never Cry - Alice Cooper tribute - Lyrics (vFjew9c5Fak)
tp165
a(VNobody Does It Better
p166
VNobody Does It Better - Carly Simon ( Theme from the Bond movie The Spy Who Loved Me ) (4TZXw45V9CE)
tp167
a(VHigh School Dance
p168
VSylvers - High School Dance (teHrwBImzuY)
tp169
a(VLove's Grown Deep
p170
VLoves Grown Deep (FMYK47chaP8)
tp171
a(VAin't Gonna Bump No More (With No Big Fat Woman)
p172
VJoe Tex-Ain't Gonna Bump No More (With No Big Fat Woman) 1982 (e0bWMD0coas)
tp173
a(VI Wanna Get Next to You
p174
VRose Royce - I Wanna Get Next To You (5EO1nfSCKrU)
tp175
a(VSomebody to Love
p176
VQueen - Somebody To Love (Official Video) (kijpcUv-b8M)
tp177
a(VMuskrat Love
p178
VCaptain & Tennille  MUSKRAT LOVE (xBYV_7a0FQs)
tp179
a(VWalk This Way
p180
VAerosmith Walk This Way Lyrics (5UFFa1HbFfA)
tp181
a(VCherchez La Femme
p182
VDr. Buzzard's Original Savannah Band - Cherchez La Femme (jrzxW0rsD1Q)
tp183
a(VYear of the Cat
p184
VAl Stewart - Year Of The Cat (cqZc7ZQURMs)
tp185
a(VBoogie Nights
p186
VHeatwave-Boogie Nights (Album Version) (vAClAa1MaqM)
tp187
a(VGo Your Own Way
p188
VFleetwood Mac - Go Your Own Way (HQ) (6ul-cZyuYq4)
tp189
a(VSorry Seems to Be the Hardest Word
p190
VElton John - Sorry Seems To Be The Hardest Word (c3nScN89Klo)
tp191
a(VDon't Worry Baby
p192
VB. J. Thomas -  Don't Worry Baby (H9BOm34Kblk)
tp193
a(VKnowing Me, Knowing You
p194
VAbba - Knowing Me, Knowing You (iUrzicaiRLU)
tp195
a(VHow Much Love
p196
VLeo Sayer ~ How Much Love (XE48UHN8SCQ)
tp197
a(VStar Wars (Main Title)
p198
VJohn Williams - Main Title from Star Wars | London Symphony Orchestra (YtyrRpGAg34)
tp199
a(VDevil's Gun
p200
V"Devil's Gun" C.J & Co. (1977) (MoH9v-EvmnE)
tp201
a.