(lp1
(VThat's What Friends are For
p2
VDionne Warwick, Elton John, Gladys Knight ,Stevie Wonder - Thats What Friends Are For (pK6mUJZYcVU)
tp3
a(VSay You, Say Me
p4
VLionel Richie - Say You Say Me (_7Mi77iqMjA)
tp5
a(VI Miss You
p6
VKlymaxx - I Miss You (gvlhHJNppQg)
tp7
a(VOn My Own
p8
VPatti LaBelle - On My Own ft. Michael McDonald (KsH63qJlIMM)
tp9
a(VBroken Wings
p10
VMr. Mister - Broken Wings (nKhN1t_7PEY)
tp11
a(VHow Will I Know
p12
VWhitney Houston - How Will I Know (m3-hY-hlhBg)
tp13
a(VParty All the Time
p14
VParty All The Time  -  Eddie Murphy  (HQ Audio) (bDbpzjbXUZI)
tp15
a(VBurning Heart
p16
VSurvivor - Burning Heart (Kc71KZG87X4)
tp17
a(VKyrie
p18
VMr. Mister - Kyrie (9NDjt4FzFWY)
tp19
a(VAddicted to Love
p20
VRobert Palmer - Addicted To Love (XcATvu5f9vE)
tp21
a(VGreatest Love of All
p22
VWhitney Houston - Greatest Love Of All (IYzlVDlE72w)
tp23
a(VSecret Lovers
p24
VAtlantic Starr - Secret Lovers (lyrics) 80's Throwback (Ud7eKyPfW3s)
tp25
a(VFriends and Lovers
p26
VGloria Loring and Carl Anderson - Friends and Lovers (i9CtUkJcH1Y)
tp27
a(VGlory of Love
p28
VPeter Cetera ~ The Glory Of LOVE (XWHOF_0-6Hg)
tp29
a(VWest End Girls
p30
VPet Shop Boys - West End Girls (2003 Digital Remaster) (fVkN0VhOuZ0)
tp31
a(VThere'll Be Sad Songs (To Make You Cry)
p32
VBilly Ocean - There'll Be Sad Songs (To Make You Cry) (KLjpJZbxkAU)
tp33
a(VAlive and Kicking
p34
VSimple Minds - Alive And Kicking (ljIQo1OHkTI)
tp35
a(VNever
p36
VHeart - Never (zWzy5q_M5Ho)
tp37
a(VKiss
p38
VPrince - Kiss (Freeform Dance Practice) (L9HPxT1E7VQ)
tp39
a(VHigher Love
p40
VSteve Winwood - Higher Love (k9olaIio3l8)
tp41
a(VStuck with You
p42
VHuey Lewis And The News - Stuck With You (J08ZwySCoJ8)
tp43
a(VHolding Back the Years
p44
VSimply Red - Holding Back The Years (yG07WSu7Q9w)
tp45
a(VSledgehammer
p46
VPeter Gabriel - Sledgehammer HD (1080p) (OJWJE0x7T4Q)
tp47
a(VSara
p48
VStarship - Sara (32ScTb6_KHg)
tp49
a(VHuman
p50
VThe Human League - Human (s1ysoohV_zA)
tp51
a(VI Can't Wait
p52
VNu Shooz I Can't Wait (v_Yx0X-eHn8)
tp53
a(VTake My Breath Away
p54
VBerlin - Take My Breathe Away theme from Top Gun with Lyrics (fUis9yny_lI)
tp55
a(VRock Me Amadeus
p56
VFalco - Rock Me Amadeus (cVikZ8Oe_XA)
tp57
a(VPapa Don't Preach
p58
VMadonna - Papa Don't Preach (G333Is7VPOg)
tp59
a(VYou Give Love a Bad Name
p60
VBon Jovi - You Give Love A Bad Name (KrZHPOeOxQQ)
tp61
a(VWhen the Going Gets Tough, the Tough Get Going
p62
VBilly Ocean - When the Going Gets Tough, the Tough Get Going (Version 2) (lIxUKbV0UEM)
tp63
a(VWhen I Think of You
p64
VJanet Jackson - When I Think Of You (EaleKN9GQ54)
tp65
a(VThese Dreams
p66
VHeart - These Dreams (41P8UxneDJE)
tp67
a(VDon't Forget Me (When I'm Gone)
p68
VGlass Tiger - Don't Forget Me (When I'm Gone) (Jx6_-urg5fo)
tp69
a(VLive to Tell
p70
VMadonna - Live To Tell (IzAO9A9GjgI)
tp71
a(VMad About You
p72
VBelinda Carlisle - Mad About You (XmdtJWmR9zQ)
tp73
a(VSomething About You
p74
VLevel 42 - Something About You (E-zP66eSLto)
tp75
a(VVenus
p76
VBananarama - Venus (OFFICIAL MUSIC VIDEO) (NkcU2_Vs7Xw)
tp77
a(VDancing on the Ceiling
p78
VLionel Richie - Dancing On The Ceiling (OdQDXs75Ulo)
tp79
a(VConga
p80
VGloria Estefan & Miami Sound Machine - Conga (HD,1080) (RBM3RlgjhQQ)
tp81
a(VTrue Colors
p82
VCyndi Lauper - True Colors (LPn0KFlbqX8)
tp83
a(VDanger Zone
p84
VKenny Loggins - Danger Zone (yK0P1Bk8Cx4)
tp85
a(VWhat Have You Done For Me Lately
p86
VJanet Jackson - What Have You Done For Me Lately (r9uizdKZAGE)
tp87
a(VNo One Is to Blame
p88
VHoward Jones - No One Is To Blame (a2V3SNrkpp0)
tp89
a(VLet's Go All the Way
p90
VSly Fox - Let's Go All The Way (bQiGqGMT8i4)
tp91
a(VI Didn't Mean to Turn You On
p92
VRobert Palmer - I Didn't  Mean To Turn You On (ORIGINAL SONG) (2YO0WyOGHjU)
tp93
a(VWords Get in the Way
p94
VGloria Estefan and Miami Sound Machine - Words Get In The Way. (wl62dOEupb4)
tp95
a(VManic Monday
p96
VThe Bangles - Manic Monday (SsmVgoXDq2w)
tp97
a(VWalk of Life
p98
VDire Straits - Walk Of Life (kd9TlGDZGkI)
tp99
a(VAmanda
p100
VBoston - Amanda (video/audio edited & remastered) HQ (F96lemYryXo)
tp101
a(VTwo of Hearts
p102
VTwo of Hearts By Stacey Q (HQ) (kWBs-b7Rx6s)
tp103
a(VCrush on You
p104
VThe Jets - Crush on You (1986) (Nm_QilrHkh8)
tp105
a(VIf You Leave
p106
VOrchestral Manoeuvres In The Dark - If You Leave (EPmTGFg06zA)
tp107
a(VInvisible Touch
p108
VGenesis - Invisible Touch (HQ) (pN60DR5GQpg)
tp109
a(VThe Sweetest Taboo
p110
VSade - The Sweetest Taboo (kcPc18SG6uA)
tp111
a(VWhat You Need
p112
VINXS - What You Need (FoEPrbdfmT4)
tp113
a(VTalk to Me
p114
VStevie Nicks - Talk To Me [Official Music Video] (tiqJGG6zcrg)
tp115
a(VNasty
p116
VJanet Jackson - Nasty (Original, full HD, HQ) (KmTd1fky3AQ)
tp117
a(VTake Me Home Tonight
p118
VEddie Money - Take Me Home Tonight/Be My Baby (3aJvIFK9-xk)
tp119
a(VWe Don't Have to Take Our Clothes Off
p120
VJermaine Stewart - We Don't Have To Take Our Clothes Off (HWZisnZ-RGE)
tp121
a(VAll Cried Out
p122
VLisa Lisa _ Cult Jam All Cried Out (rErBPw7pk2o)
tp123
a(VYour Love
p124
VThe Outfield - Your Love (4N1iwQxiHrs)
tp125
a(VI'm Your Man
p126
VWham! - I'm Your Man (kAGl8RWTSqc)
tp127
a(VPerfect Way
p128
VScritti Politti - "Perfect Way" (Official Video) (_gjZSVOELbI)
tp129
a(VLiving in America
p130
VJames Brown - Living in America (c5BL4RNFr58)
tp131
a(VR.O.C.K. in the U.S.A.
p132
VJohn Mellencamp- R.O.C.K in The U.S.A (NhUou9pKgR4)
tp133
a(VWho's Johnny
p134
VEl DeBarge - Who's Johnny (High Quality) (yA9WhYnsD_4)
tp135
a(VWord Up!
p136
VCameo - Word Up (MZjAantupsA)
tp137
a(VWhy Can't This Be Love
p138
VVan Halen - Why Can't This Be Love (1VaEdKwXJhM)
tp139
a(VSilent Running (On Dangerous Ground)
p140
VMike & The Mechanics - Silent running (ep7W89I_V_g)
tp141
a(VTypical Male
p142
VTina Turner - Typical Male [Official Music Video] (x9iwonrgDMY)
tp143
a(VSmall Town
p144
VJohn Mellencamp - Small Town (0CVLVaBECuc)
tp145
a(VTarzan Boy
p146
VBaltimora - Tarzan Boy (_r0n9Dv6XnY)
tp147
a(VAll I Need Is a Miracle
p148
VMike & The Mechanics - All I Need Is A Miracle (cAMLa5ZC-B4)
tp149
a(VSweet Freedom
p150
VMichael McDonald  - Sweet Freedom (U-xetxYwyak)
tp151
a(VTrue Blue
p152
VMadonna - True Blue (P51LunEV3Sk)
tp153
a(VRumors
p154
VTimex Social Club - Rumors (KVtcp8XHhOo)
tp155
a(VLife in a Northern Town
p156
V[HD] Dream Academy - Life In A Northern Town (X5uxQElYu68)
tp157
a(VBad Boy
p158
VMiami Sound Machine - Bad Boy (1985) (iF_dFVqVyJI)
tp159
a(VSleeping Bag
p160
VZZ Top - Sleeping Bag (OFFICIAL MUSIC VIDEO) (TKJymx2KDWo)
tp161
a(VTonight She Comes
p162
VTonight she comes - The Cars (ltoo2YLMri8)
tp163
a(VLove Touch
p164
VRod Stewart - Love Touch (b0m5JoZCkzc)
tp165
a(VA Love Bizarre
p166
VSheila E - A Love Bizarre (1986) \u266b (56gpwl6cohc)
tp167
a(VThrowing It All Away
p168
VGenesis - Throwing It All Away + lyrics (45ZdlFKYd84)
tp169
a(VBaby Love
p170
VRegina Baby Love (MEOrfKfyYCc)
tp171
a(VElection Day
p172
VArcadia (Duran Duran)-Election Day (Long Video) HQ (I3Yy6c0Tlvk)
tp173
a(VNikita
p174
VElton John - Nikita (Album Version) HD 16:9 (porkY6I0LLc)
tp175
a(VTake Me Home
p176
VPhil Collins - Take Me Home (Official Music Video) (sRY1NG1P_kw)
tp177
a(VWalk This Way
p178
VRUN-DMC - Walk This Way (4B_UYYPb-Gk)
tp179
a(VSweet Love
p180
VAnita Baker- Sweet Love Lyrical Video (2v6uPKMUgnE)
tp181
a(VYour Wildest Dreams
p182
VThe Moody Blues - Your Wildest Dreams (kmmPFrkuPq0)
tp183
a(VSpies Like Us
p184
VPaul McCartney - Spies Like Us (27ATt3FXAUY)
tp185
a(VObject of My Desire
p186
VStarpoint - Object Of My Desire (TPAaWPcKoYI)
tp187
a(VDreamtime
p188
VDaryl Hall - Dreamtime (oed8rUV_wdY)
tp189
a(VTender Love
p190
VTender Love - The Force M.D.'s (gdLB_kFhr6c)
tp191
a(VKing for a Day
p192
VThompson Twins - King For A Day (b9ygIvMtcdw)
tp193
a(VLove Will Conquer All
p194
VLionel Richie - Love Will Conquer All (1i45qDsId1E)
tp195
a(VA Different Corner
p196
VGeorge Michael - A Different Corner (IPWHkK-_a_A)
tp197
a(VI'll Be Over You
p198
VI'll be Over You (with lyrics)... by Toto (aA6CghcObTE)
tp199
a(VGo Home
p200
VStevie Wonder - Go Home Music Video (1985) (jmp6TItntdw)
tp201
a.