(lp1
(VShadow Dancing
p2
VAndy Gibb   Shadow Dancing (7j_yGYU_jUU)
tp3
a(VNight Fever
p4
VBee Gees - Night Fever (1977) (-ihs-vT9T3Q)
tp5
a(VYou Light Up My Life
p6
VDebby Boone - You light up my Life (lnk8SKD9zcA)
tp7
a(VStayin' Alive
p8
VBee Gees - Stayin' Alive (1977) (I_izvAbhExY)
tp9
a(VKiss You All Over
p10
VExile - "Kiss You All Over" - HQ Audio))) (u3hDQZ21AQQ)
tp11
a(VHow Deep Is Your Love
p12
VBee Gees - How Deep Is Your Love (1977) (XpqqjU7u5Yc)
tp13
a(VBaby Come Back
p14
VPlayer - Baby Come Back (Hn-enjcgV1o)
tp15
a(V(Love Is) Thicker Than Water
p16
VAndy Gibb - Love Is ( Thicker than Water ) (qAwvUZCgo7o)
tp17
a(VBoogie Oogie Oogie
p18
VBoogie Oogie Oogie - A Taste Of Honey (1978) (cJsr7Yo34tk)
tp19
a(VThree Times a Lady
p20
VThe Commodores - Three Times A Lady - Long Version (5jLvnuf10uU)
tp21
a(VGrease
p22
VFrankie Valli - Grease (BBVB3vHjKhs)
tp23
a(VI Go Crazy
p24
VPaul Davis- I go crazy (THW-5OUTSt8)
tp25
a(VYou're the One That I Want
p26
VGrease- You're the one that I want [HQ+lyrics] (7oKPYe53h78)
tp27
a(VEmotion
p28
VSAMANTHA SANG ~ "EMOTION" (with The Bee Gees) highest def. audio/video~ 1977 (zPwpVJ-eIgg)
tp29
a(VLay Down Sally
p30
VEric Clapton - Lay down Sally (9hQqP6RNnDE)
tp31
a(VMiss You
p32
VThe Rolling Stones- Miss You (KuRxXRuAz-I)
tp33
a(VJust the Way You Are
p34
VBilly Joel - Just The Way You Are (Audio) (HaA3YZ6QdJU)
tp35
a(VWith a Little Luck
p36
VPaul McCartney and Wings..  With A Little Luck 1978) Lyrics included (KzH-2NgtaZk)
tp37
a(VIf I Can't Have You
p38
VYvonne Elliman ~ If I Can't Have You (-pgJByML5xY)
tp39
a(VDance, Dance, Dance (Yowsah, Yowsah, Yowsah)
p40
VChic  -  Dance Dance Dance...  Yowsah! Yowsah! Yowsah! (faiwblIEvB8)
tp41
a(VFeels So Good
p42
VChuck Mangione - Feels So Good HQ (12" REMASTERED ) (NDSBV0vTfTo)
tp43
a(VHot Child in the City
p44
VHot Child in the City - Nick Gilder (o-eVxtuMR0o)
tp45
a(VLove Is Like Oxygen
p46
VSweet - Love is like Oxygen (kRVwcPTnug8)
tp47
a(VIt's a Heartache
p48
VBonnie Tyler - It's A Heartache (VIDEO) (Best Quality!) (nPOy7TPjfkE)
tp49
a(VWe Will Rock You/We Are the Champions
p50
Vqueen we will rock you we are the champions (VNWvNEPsilI)
tp51
a(VBaker Street
p52
VGerry Rafferty - Baker Street (UK) (Fo6aKnRnBxM)
tp53
a(VCan't Smile Without You
p54
VBarry Manilow - I can't smile without You with Lyrics (Q8uOxBLtdFc)
tp55
a(VToo Much, Too Little, Too Late
p56
VJohnny Mathis  Deniece Williams,  Too Much Too Little Too Late (G3ceb5OVG7k)
tp57
a(VDance With Me
p58
VPeter Brown  -  Dance With Me (2wcIWQRlypw)
tp59
a(VTwo Out of Three Ain't Bad
p60
VMeat Loaf - Two Out Of Three Ain't Bad (k5hWWe-ts2s)
tp61
a(VJack And Jill
p62
VJack And Jill - Ray Parker, Jr. & Raydio (1978) (tUpqRrKh2CE)
tp63
a(VTake a Chance on Me
p64
VAbba - Take A Chance On Me (-crgQGdpZR0)
tp65
a(VSometimes When We Touch
p66
VSometimes When We Touch - Dan Hill - Official Video 1994 (IATz8ZVTALo)
tp67
a(VLast Dance
p68
VDonna Summer Last Dance (jOpUfTi1keI)
tp69
a(VHopelessly Devoted to You
p70
VOlivia Newton-John - Hopelessly Devoted to You (HD) (tzmggUAqePY)
tp71
a(VHot Blooded
p72
VHot Blooded - Foreigner (5c1m2BAg2Sc)
tp73
a(VYou're in My Heart (The Final Acclaim)
p74
VRod Stewart - You're in My Heart (The Final Acclaim) (jylOeeRDJ78)
tp75
a(VThe Closer I Get to You
p76
VRoberta Flack ft. Donny Hathaway - The Closer I Get To You (_jhYENBxRVo)
tp77
a(VDust in the Wind
p78
VKansas - Dust in the Wind (Official Video) (tH2w6Oxx0kQ)
tp79
a(VMagnet and Steel
p80
VWalter Egan - Magnet and Steel (B7DAHi_Cks8)
tp81
a(VShort People
p82
VRandy Newman - Short People (1978) (uFmv22ghzQw)
tp83
a(VUse ta Be My Girl
p84
VThe O'Jays - Use Ta Be My Girl (fj8SBcGNRWc)
tp85
a(VOur Love
p86
VNatalie Cole - Our Love (yDKyQk8A3Dk)
tp87
a(VLove Will Find a Way
p88
VPablo Cruise - Love Will Find A Way (H9sbA2gnWHI)
tp89
a(VAn Everlasting Love
p90
VAndy Gibb   An Everlasting Love (gNr6U1AGSjI)
tp91
a(VLove Is in the Air
p92
VJohn Paul Young - Love Is In The Air (1978) (NNC0kIzM1Fo)
tp93
a(VGoodbye Girl
p94
VDavid Gates  -  Bread  -  Goodbye Girl  -   Lyrics (_MaczkqNPBI)
tp95
a(VSlip Slidin' Away
p96
VPaul Simon - Slip Slidin' Away + lyrics (5_H-LY4Jb2M)
tp97
a(VThe Groove Line
p98
VHeatwave - The Groove Line (Extended Version) (1977) (Cr6o88OJ8x8)
tp99
a(VThunder Island
p100
VJay Ferguson ~ Thunder Island (SEKZJp-x-Dc)
tp101
a(VImaginary Lover
p102
VImaginary Lover - Atlanta Rhythm Section (G6Z-DQGqM90)
tp103
a(VStill the Same
p104
VBob Seger & The Silver Bullet Band - Still the Same (dhU9H8IDDEg)
tp105
a(VMy Angel Baby
p106
VToby Beau - My Angel Baby (VBdDbXoKKjk)
tp107
a(VDisco Inferno
p108
VThe Trammps - Disco Inferno (A_sY2rjxq6M)
tp109
a(VOn Broadway
p110
VGEORGE BENSON On Broadway Album Version (ok__l1Acuwg)
tp111
a(VCome Sail Away
p112
VCome Sail Away Lyrics Styx (9TcztyNlFx0)
tp113
a(V(Every Time I Turn Around) Back in Love Again
p114
V(Every Time I Turn Around) Back In Love  Again - L.T.D. (1977). (uqacuYcKV-c)
tp115
a(VThis Time I'm In It For Love
p116
VPlayer - This Time I'm in It for Love (LMaClle-0c8)
tp117
a(VYou Belong to Me
p118
VYou Belong To Me (Single Version) (4qSKOKZtIJo)
tp119
a(VHere You Come Again
p120
VDolly Parton,here you come again (1yyNT7afVSs)
tp121
a(VBlue Bayou
p122
VLinda Ronstadt - Blue Bayou (_qqvdOwoN-Y)
tp123
a(VPeg
p124
VSteely Dan - Peg (LI7NDDQLvbo)
tp125
a(VYou Needed Me
p126
VYou Needed Me -  Anne Murray ( with lyrics ) (-X79Jko9bBI)
tp127
a(VShame
p128
VEvelyn Champagne King - Shame (Best Version & HQ) (JH9YWegGc3I)
tp129
a(VReminiscing
p130
VREMINISCING, The Little River Band (voQWlL-jj5Q)
tp131
a(VCount On Me
p132
VJefferson Starship    Count On Me w Lyrics   YouTube (5Z2y8MuI2EU)
tp133
a(VBaby Hold On
p134
VEddie Money - Baby Hold On (YTE12zOHuFI)
tp135
a(VHey Deanie
p136
VShaun Cassidy: Hey Deanie (GO9WnxRlLF8)
tp137
a(VSummer Nights
p138
VJohn Travolta & Olivia Newton John - Summer Nights (Grease) (ucU5c9ilIIc)
tp139
a(VWhat's Your Name
p140
VLynyrd Skynyrd - What's Your Name (lyrics) (D4-mLbODxI4)
tp141
a(VDon't It Make My Brown Eyes Blue
p142
VCrystal Gayle   Don't It Make My Brown Eyes Blue 1977 HQ (udEZ_JjNz4E)
tp143
a(VBecause the Night
p144
VPatti Smith Group - Because the night 1978 (xACZHv-sLCg)
tp145
a(VEvery Kinda People
p146
VRobert Palmer - Every Kinda People (Reproduction Extended) (pcowVi2AP-8)
tp147
a(VCopacabana
p148
VCopacabana (At the Copa) - Barry Manilow (DJTBfbQoTNk)
tp149
a(VAlways and Forever
p150
VAlways & Forever - Heat wave (v0fBACHaBck)
tp151
a(VYou and I
p152
VRick James - You and I (dWZkxYamLUs)
tp153
a(VSerpentine Fire
p154
VEarth, Wind & Fire - Serpentine Fire (XoI1XPqXQ90)
tp155
a(VSentimental Lady
p156
VSentimental Lady by Bob Welch...with Lyrics (85LSmnSFe1A)
tp157
a(VFalling
p158
VLeBlanc & Carr - Falling (h4wlQu1Ei4w)
tp159
a(VDon't Let Me Be Misunderstood
p160
VSanta Esmeralda - Don't Let Me Be Misunderstood / Esmeralda Suite  [HQ & Full Version] (-hwiCkU73NA)
tp161
a(VBluer Than Blue
p162
VMICHAEL JOHNSON -  Bluer Than Blue (with lyrics) (O3DflasfM3Q)
tp163
a(VRunning on Empty
p164
VJackson Browne - Running on Empty w/ lyrics (Vq25ZJwZJzU)
tp165
a(VWhenever I Call You 'Friend'
p166
VKenny Loggins and Stevie Nicks Whenever I call You Friend (edHhe8HyekE)
tp167
a(VFool (If You Think It's Over)
p168
VFool (If You Think It's Over) Lyrics-Chris Rea (YSui9_IBgao)
tp169
a(VGet Off
p170
VFoxy - Get Off (Rare 12" Inch Version) (M6lqTTyKeCs)
tp171
a(VSweet Talkin' Woman
p172
VSweet Talkin' Woman (5LnPnbhyjGc)
tp173
a(VLife's Been Good
p174
VJoe Walsh - Life's Been Good (BXWvKDSwvls)
tp175
a(VI Love the Nightlife
p176
VAlicia Bridges - I Love The Nightlife (HQ) (rQlxc-Jn294)
tp177
a(VYou Can't Turn Me Off (In The Middle Of Turning Me On)
p178
VHigh Inergy - You Can't Turn Me Off (In The Middle Of Turnin Me On) (Album Version) (iGdIrYCGkvM)
tp179
a(VIt's So Easy
p180
VLinda Ronstadt-1977-01-It's So Easy (stq4-99-J74)
tp181
a(VNative New Yorker
p182
VNative New Yorker - Odyssey (1977) (h1rH_iaZkv0)
tp183
a(VFlash Light
p184
VParliament - Flash Light (T0ZGNGBNIL8)
tp185
a(VDon't Look Back
p186
VBoston - Don't Look Back (3VPLOVJ0u94)
tp187
a(VTurn to Stone
p188
VElectric Light Orchestra - Turn To Stone (xFljpJdYRKM)
tp189
a(VI Can't Stand the Rain
p190
VEruption - I Can't Stand The Rain (Rjr68aeAtnU)
tp191
a(VEbony Eyes
p192
VBob Welch - Ebony Eyes (FnJOsfalSYs)
tp193
a(VThe Name of the Game
p194
VAbba - The Name Of The Game (iJ90ZqH0PWI)
tp195
a(VWe're All Alone
p196
VRITA COOLIDGE We're all alone (1977) (iv3IyfMvZIc)
tp197
a(VHollywood Nights
p198
VBob Seger and The Silver Bullet Band - Hollywood Nights (pPPExso1x28)
tp199
a(VDeacon Blues
p200
VSteely Dan-Deacon Blues with Lyrics (2A0wGO3c2T8)
tp201
a.