(lp1
(VGangsta's Paradise
p2
VCoolio Featuring L.V. - Gangsta's Paradise \u200c\u200c - Bohemia After Dark (YFK6H_CcuX8)
tp3
a(VWaterfalls
p4
VTLC - Waterfalls (8WEtxJ4-sh4)
tp5
a(VCreep
p6
VTLC - Creep (LlZydtG3xqI)
tp7
a(VKiss from a Rose
p8
VSeal - Kiss from a Rose (ateQQc-AgEM)
tp9
a(VOn Bended Knee
p10
VBoyz II Men- "On Bended Knee" Lyrics on Screen!! (lQ0wR7YejVE)
tp11
a(VAnother Night
p12
VReal McCoy - Another Night (Pav2f4b-1ZE)
tp13
a(VFantasy
p14
VMariah Carey - Fantasy (qq09UkPRdFY)
tp15
a(VTake a Bow
p16
VMadonna - Take A Bow (XDeiovnCv1o)
tp17
a(VDon't Take It Personal (Just One of Dem Days)
p18
VMonica - Don't Take It Personal (Just One Of Dem Days) (asXau88O5Is)
tp19
a(VThis Is How We Do It
p20
VMontell Jordan - This Is How We Do It (0hiUuL5uTKc)
tp21
a(VI Know
p22
VDionne Farris- I Know (Official Music Video) Directed by Zack Snyder (OT9h_-pGKK0)
tp23
a(VWater Runs Dry
p24
VBoyz II Men - Water Runs Dry (9N9opF-PK5k)
tp25
a(VFreak Like Me
p26
VAdina Howard - Freak Like Me (iirDzMk5ysI)
tp27
a(VRun-Around
p28
VRun Around by Blues Traveler with lyrics (Z-yLH5wcEoQ)
tp29
a(VI Can Love You Like That
p30
VAll 4 One - I Can Love You Like That (kcwxeJM0T04)
tp31
a(VHave You Ever Really Loved a Woman?
p32
VBryan Adams - Have You Ever Really Loved A Woman? (hq2KgzKETBw)
tp33
a(VAlways
p34
VBon Jovi - Always (9BMwcO6_hyA)
tp35
a(VBoombastic
p36
VShaggy - Boombastic (6W5pq4bIzIw)
tp37
a(VTotal Eclipse of the Heart
p38
VTotal Eclipse of The Heart - Nicki french (Lyrics) (NDDvxtepgHw)
tp39
a(VYou Gotta Be
p40
VDes'ree - You Gotta Be (pO40TcKa_5U)
tp41
a(VYou Are Not Alone
p42
VMichael Jackson - You Are Not Alone (pAyKJAtDNCw)
tp43
a(VHold My Hand
p44
VHootie And The Blowfish - Hold My Hand (Video Version) (xoW3bqnr7tw)
tp45
a(VOne More Chance
p46
VThe Notorious B.I.G. - "One More Chance" (0Ogs_NsXh58)
tp47
a(VHere Comes the Hotstepper
p48
VIni Kamoze - Here Comes The Hotstepper (HQ) (w0N4twV28Mw)
tp49
a(VCandy Rain
p50
VSoul For Real - Candy Rain (Cx0xzO73Amo)
tp51
a(VLet Her Cry
p52
VHootie And The Blowfish - Let Her Cry (Video) (1aVHLL5egRY)
tp53
a(VI Believe
p54
VBlessid Union of Souls - I Believe (with lyrics) (Z_eAzaTquN8)
tp55
a(VRed Light Special
p56
VTLC - Red Light Special (Dirty Version) (dP2t9LBeAwo)
tp57
a(VRunaway
p58
VJanet - Runaway (CRm00quEilA)
tp59
a(VStrong Enough
p60
VSheryl Crow - Strong Enough HQ (3s1bZLh4mJA)
tp61
a(VColors of the Wind
p62
VColour of the wind - Vanessa williams (xbuzskVs6rc)
tp63
a(VSomeone to Love
p64
VJon B feat Babyface - Someone To Love (Lyrics) (WsBfHIais7c)
tp65
a(VOnly Wanna Be with You
p66
VHootie and The Blowfish -Only wanna be with you (ZesRI6HhuXQ)
tp67
a(VIf You Love Me
p68
VBrownstone - If you love me (1bzEYg-CpQE)
tp69
a(VIn the House of Stone and Light
p70
VMartin Page - In the House of Stone and Light (Full Version) (JpbgUVPP3DU)
tp71
a(VI Got 5 on It
p72
VLUNIZ -- I GOT 5 ON IT (HSC9cgvtkRs)
tp73
a(VBaby
p74
VBrandy - Baby (Video) (zJzMlOXwOto)
tp75
a(VRun Away
p76
VReal McCoy - Runaway (jnM67j9So8w)
tp77
a(VAs I Lay Me Down
p78
VSophie B. Hawkins - As I Lay Me Down (gq-4vIIJO30)
tp79
a(VHe's Mine
p80
VMoKenStef - He's Mine Lyrics (CTry8ZVJdGA)
tp81
a(VDecember
p82
VDecember by Collective Soul (lyrics) (utYjsmDzMi0)
tp83
a(VI'll Be There for You/You're All I Need to Get By
p84
VMethod Man Ft. Mary J. Blige - You're All I Need (siXunj15hKc)
tp85
a(VShy Guy
p86
VDiana King - Shy Guy (xn9LQZ5tdys)
tp87
a(VI'm the Only One
p88
VMelissa Etheridge - I'm The Only One (Music Video) (oCphbDRkZSo)
tp89
a(VEvery Little Thing I Do
p90
VSoul For Real - Every Little Thing I Do (6ihhJCPYHuk)
tp91
a(VBefore I Let You Go
p92
VBlackstreet - Before I Let You Go (kC6TnBx0HIU)
tp93
a(VBig Poppa
p94
VThe Notorious B.I.G. - "Big Poppa" (phaJXp_zMYM)
tp95
a(VSukiyaki
p96
V4 PM - Sukiyaki (y3FwNA3RDW8)
tp97
a(VI Wanna Be Down
p98
VBrandy - I Wanna Be Down (LSHDU3hBAnw)
tp99
a(VI'll Make Love to You
p100
VBoyz II Men - I'll Make Love To You (fV8vB1BB2qc)
tp101
a(VDear Mama
p102
VTupac - Dear Mama (Lyrics) (hARz7Ymilqo)
tp103
a(VHold On
p104
VJamie Walters - Hold On (k_QGJE94iOM)
tp105
a(VKeep Their Heads Ringin'
p106
VDr Dre  Keep their Heads Ringin (TE891IHxyV8)
tp107
a(VThe Rhythm of the Night
p108
VCorona - The Rhythm of the Night [Official Video] (Zr9R7hN1YSs)
tp109
a(VRoll to Me
p110
VRoll to Me - Del Amitri (with lyrics) (suzwkw0dYmM)
tp111
a(VScream
p112
VMichael Jackson - Scream (0P4A1K4lXDo)
tp113
a(VFreek'n You
p114
VJodeci - Freek'N You (oYwL-FzFDKQ)
tp115
a(VI Wish
p116
VSkee-Lo - I Wish (Official Video) (ryDOy3AosBw)
tp117
a(VBelieve
p118
VElton John - Believe (ABSXJiYQFuI)
tp119
a(VCarnival
p120
VNatalie Merchant - Carnival (VQ_Wqtnlv4U)
tp121
a(VYou Don't Know How It Feels
p122
VTom Petty - You Don't Know How It Feels (Video Version) (9TlBTPITo1I)
tp123
a(VBack for Good
p124
VTake That - Back For Good (N2ICtCO8TCw)
tp125
a(VTootsee Roll
p126
V69 boyz - Tootsee Roll (qs7f3ssuEjA)
tp127
a(VYou Want This
p128
VJanet Jackson: You Want This (Official Color Version) (Z2Wv3DcgAWs)
tp129
a(VTell Me
p130
VTell Me - Groove Theory (EM9NYhIglDA)
tp131
a(VCan't You See
p132
VTotal - Can't You See [OFFICIAL MUSIC VIDEO] (DCMib3DBz60)
tp133
a(VAll I Wanna Do
p134
VSheryl Crow Perform "All I Wanna Do Is Have Some Fun" (Official Music Video) (yAEpLMTjCC8)
tp135
a(VThis Lil' Game We Play
p136
VSubway Feat 702- This Lil' Game We Play (e3zE5Mkz_EA)
tp137
a(VCome and Get Your Love
p138
VReal McCoy \u2022 Come And Get Your Love (kctlBvsaFuE)
tp139
a(VThis Ain't a Love Song
p140
VBon Jovi - This Ain't A Love Song (-nlDy6h-v9c)
tp141
a(VSecret
p142
VMadonna - Secret (Video) (EPHUZenprKc)
tp143
a(VPlayer's Anthem
p144
VNotorious B.I.G Ft  Junior mafia Player's Anthem (Dd5Dl3yUytM)
tp145
a(VFeel Me Flow
p146
VNaughty By Nature - Feel Me Flow (HQ) (4ZSWeliCq4s)
tp147
a(VEvery Day of the Week
p148
VJade - Every Day Of The Week (HQ) (SNmGFx0c-ck)
tp149
a(VThe Sweetest Days
p150
VVanessa Williams - The Sweetest Days (Yu38a7w9Ss4)
tp151
a(VShort Dick Man
p152
V20 Fingers - Short Dick Man ( sem censura ) (0wNx1CBym7s)
tp153
a(VBrokenhearted
p154
VBrandy - Brokenhearted Feat. Wanya Morris (9j17qt53Bh0)
tp155
a(VNo More I Love You's
p156
VAnnie Lennox - No More "I Love You's" (NSkboTTTmpg)
tp157
a(VYou Used to Love Me
p158
VFaith Evans - You Used To Love Me (1995) (L8vm9-Imb84)
tp159
a(VConstantly
p160
VImmature - Constantly (h6LCurHnyWE)
tp161
a(VHold Me, Thrill Me, Kiss Me, Kill Me
p162
VU2 - HOLD ME, THRILL ME, KISS ME, KILL ME (IDl1c0nR5SI)
tp163
a(V100% Pure Love
p164
VCrystal Waters - 100% Pure Love (zQX2q6WCrbE)
tp165
a(VAsk of You
p166
VRaphael Saadiq - Ask of You (5IPvVg7zZmg)
tp167
a(VSugar Hill
p168
VAZ Feat. Miss Jones - Sugar hill (S8tHa0z0I8s)
tp169
a(VGood
p170
VBetter Than Ezra - Good (acK0KH2uJGc)
tp171
a(VBrown Sugar
p172
VD' Angelo -  "Brown Sugar (LtZWO3HgRdA)
tp173
a(VTurn the Beat Around
p174
VGloria Estefan - Turn The Beat Around (Remix) (inHwBUo9Pzk)
tp175
a(V'Til You Do Me Right
p176
VAfter 7 - "'Til You Do Me Right" (-lOiMekAgGI)
tp177
a(V1st of tha Month
p178
VBone Thugs N Harmony - 1st of tha Month (4j_cOsgRY7w)
tp179
a(VLike the Way I Do
p180
VLike the way I do - Melissa Etheridge Lyrics (ivBHmLT260E)
tp181
a(VI Live My Life for You
p182
VI Live My Life For You - FireHouse [Lyrics] (d1Y6rwxgQqc)
tp183
a(VDream About You
p184
VWhen I Dream About You-Stevie B. with Lyrics (9ntXRw2faLk)
tp185
a(VCotton Eye Joe
p186
VRednex - Cotton Eye Joe (VcDy8HEg1QY)
tp187
a(VThank You
p188
VBoyz II Men - Thank You (DysP6hul9PU)
tp189
a(VI'll Stand by You
p190
VI'LL STAND BY YOU (Lyrics) - THE PRETENDERS (SuWAGT9ZkYE)
tp191
a(VI Miss You
p192
VN II U - I Miss You (9BPmlcOQtpg)
tp193
a(VGive It 2 You
p194
VDa Brat - Give It 2 You (YFLt1lhbtKM)
tp195
a(VBest Friend
p196
VBrandy - Best Friend (1995) (GbW2UHR11_s)
tp197
a(VMisery
p198
VSoul Asylum - Misery (GLQ2TIul8pI)
tp199
a(VCan't Stop Lovin' You
p200
VVan Halen - Can't Stop Lovin' You (K_LbrEJUYRw)
tp201
a.