(lp1
(VSugar, Sugar
p2
VSugar Sugar - The Archies (JywK_5bT8z0)
tp3
a(VAquarius/Let the Sunshine In
p4
VAquarius (Let the Sunshine in) (06X5HYynP5E)
tp5
a(VI Can't Get Next to You
p6
VI Can't Get Next to You - The Temptations (O1OBBO8tOkM)
tp7
a(VHonky Tonk Women
p8
VRolling Stones-Honky Tonk Woman (A6M77oHD110)
tp9
a(VEveryday People
p10
VSly & The Family Stone - Everyday People (YUUhDoCx8zc)
tp11
a(VDizzy
p12
VTommy Roe ~ Dizzy  (HQ) (-s_DKiTUty0)
tp13
a(VHot Fun in the Summertime
p14
VSly and the Family Stone - Hot Fun in the Summertime (_NVVe1DkVsQ)
tp15
a(VI'll Never Fall in Love Again
p16
Vtom jones-i'll never fall in love again (with lyrics) (NjpjuRVNPaM)
tp17
a(VBuild Me Up Buttercup
p18
VThe Foundations - Build Me Up Buttercup (iol0B-clFFM)
tp19
a(VCrimson and Clover
p20
VCrimson and Clover - Tommy James & The Shondells (GpGEeneO-t0)
tp21
a(VOne
p22
VOne Is The Loneliest Number - Three Dog Night (Lyrics) (d5ab8BOu4LE)
tp23
a(VCrystal Blue Persuasion
p24
VTommy James & The Shondells - Crystal Blue Persuasion - 1969 (XDl8ZPm3GrU)
tp25
a(VHair
p26
VThe Cowsills -  Hair 1969 IN COLOR !! (ozQ8qLMKW_s)
tp27
a(VToo Busy Thinking About My Baby
p28
VMARVIN GAYE - TOO BUSY THINKING ABOUT MY BABY (TAMLA) (CdkQRw3kXeE)
tp29
a(VLove Theme from Romeo and Juliet
p30
VHenry Mancini - Love Theme from Romeo and Juliet (UaA2WiyqO1E)
tp31
a(VGet Together
p32
VGet Together-The Youngbloods (kRAhTY3Dwl0)
tp33
a(VGrazing in the Grass
p34
VFriends Of Distinction  -  Grazing In The Grass (cjYrski71II)
tp35
a(VSuspicious Minds
p36
VElvis Presley- Suspicious Minds (hdmIhCkp3p4)
tp37
a(VProud Mary
p38
VCreedence Clearwater Revival: Proud Mary (XfyEpmQM7bw)
tp39
a(VWhat Does It Take (To Win Your Love)
p40
VJUNIOR WALKER and the ALLSTARS - "WHAT DOES IT TAKE" (to win your love) 1969 (ub72eylahJg)
tp41
a(VIt's Your Thing
p42
VThe Isley Brothers - It's Your Thing (MD-9eOWsp8o)
tp43
a(VSweet Caroline
p44
VSweet Caroline - Neil Diamond (NsLyI1_R01M)
tp45
a(VJean
p46
VOliver - "Jean" (HQ Stereo) (z9DXI6iYVDw)
tp47
a(VBad Moon Rising
p48
VCreedence Clearwater Revival: Bad Moon Rising (5BmEGm-mraE)
tp49
a(VGet Back
p50
VThe Beatles Get Back (With Billy Preston) (u_lpMbwCIQM)
tp51
a(VIn the Year 2525
p52
VZager And Evans - In The Year 2525 (izQB2-Kmiic)
tp53
a(VSpinning Wheel
p54
VBlood Sweat And Tears - Spinning Wheel (1969) (Cb5EBAP6zPY)
tp55
a(VBaby, I Love You
p56
VBaby I Love You - Andy Kim (SXpsS3hrZeU)
tp57
a(VGoing in Circles
p58
VThe Friends Of Distinction - Going In Circles (vBkYN7wYQFk)
tp59
a(VHurt So Bad
p60
VHurt So Bad - CD version - The Lettermen (Ovl13OsJRtM)
tp61
a(VGreen River
p62
VCreedence Clearwater Revival: Green River (JacHyPaEwDc)
tp63
a(VMy Cherie Amour
p64
VStevie Wonder - My Cherie Amour (1969) (b0Gu-CyE-NQ)
tp65
a(VEasy to Be Hard
p66
VEasy To Be Hard -- Three Dog Night (in HD) (jeXcaRYNlSQ)
tp67
a(VBaby It's You
p68
V9 Smith   Baby Its You  u002769) (pIGo31k-qkw)
tp69
a(VIn the Ghetto
p70
VElvis Presley - In the Ghetto Lyrics (2En0ZyjQgU4)
tp71
a(VA Boy Named Sue
p72
VA Boy Named Sue: Johnny Cash (_Gbtm-93oqE)
tp73
a(VBaby, Baby Don't Cry
p74
VBaby Baby Don't Cry The Miracles (_45gwZ7vXAg)
tp75
a(VOnly the Strong Survive
p76
VJerry Butler Only the Strong Survive (XPkd9ZQOtbI)
tp77
a(VTime of the Season
p78
VThe Zombies - Time Of The Season (7JM2ghmhGk0)
tp79
a(VWedding Bell Blues
p80
V"Wedding Bell Blues" by The 5th Dimension (cXuyQILJ-yc)
tp81
a(VLittle Woman
p82
VBobby Sherman - Little Woman (1969) (wiMZjOcaVbQ)
tp83
a(VLove (Can Make You Happy)
p84
VMERCY - "LOVE CAN MAKE YOU HAPPY"  1969  Highest Quality Stereo (j4A9Fffo-jM)
tp85
a(VGood Morning Starshine
p86
VOliver- Goodmorning starshine (QAOTxAGJUug)
tp87
a(VThese Eyes
p88
VThe Guess Who - These Eyes [Good Quality] (sw8nXCx5qgo)
tp89
a(VYou've Made Me So Very Happy
p90
VBlood, Sweat & Tears - You Made Me So Very Happy (with lyrics) (VKuqaZ0DQtk)
tp91
a(VPut a Little Love in Your Heart
p92
VJackie DeShannon - Put A Little Love in Your Heart (CMj7UcjPZ0U)
tp93
a(VDo Your Thing
p94
VThe Watts 103rd Street Rhythm Band   Do your thing (kEwVELN15mY)
tp95
a(VI'd Wait A Million Years
p96
VTHE GRASS ROOTS- "I'D  WAIT A MILLION YEARS" (tsuoPbyWrm0)
tp97
a(VTouch Me
p98
VThe Doors - Touch Me (4UEVyIyibD8)
tp99
a(VMore Today Than Yesterday
p100
VSpiral Staircase I Love You More Today Than Yesterday (YuqHlv1YPe0)
tp101
a(VI've Gotta Be Me
p102
VSammy Davis jr - I've Gotta be me (Nl4SRVXgGiI)
tp103
a(VLay Lady Lay
p104
VBob Dylan - Lay Lady Lay (N6ODMKSWzT4)
tp105
a(VAtlantis
p106
VDonovan / Atlantis (9AUEjzVQwKo)
tp107
a(VTraces
p108
VCLASSICS IV- " TRACES "  (VINYL+LYRICS) (3SouQRWXht4)
tp109
a(VIt's Getting Better
p110
VIt's Getting Better - Cass Elliot (xqOMuR5Z530)
tp111
a(VThis Magic Moment
p112
VThis Magic Moment - Jay & The Americans 1969 (pKfASw6qoag)
tp113
a(VRunaway Child, Running Wild
p114
VTemptations - Runaway Child, Running wild (long version) (n3uNRGScc3I)
tp115
a(VHawaii Five-O
p116
VHawaii Five-O - Ventures 30th Anniversary with Max Weinberg (MxT5sfhP_Y0)
tp117
a(VGalveston
p118
VGLEN CAMPBELL   GALVESTON (qBLboy3aXA0)
tp119
a(VI'm Gonna Make You Mine
p120
V"I'm Gonna Make You Mine", Lou Christie (haYvrO5D_Yo)
tp121
a(VGitarzan
p122
VRay Stevens - Gitarzan (293Irm-vxtE)
tp123
a(VCan I Change My Mind
p124
VTYRONE DAVIS - CAN I CHANGE MY MIND (qxQywIj4BkY)
tp125
a(VTime is Tight
p126
Vbooker t & the mg,s ...time is tight (gtdMhh1jIvw)
tp127
a(VThis Girl's in Love With You
p128
VDionne Warwick - This Girl's In Love With You (Gd2Q8VCk9co)
tp129
a(VColor Him Father
p130
VThe Winstons - Color Him Father (KMx0waxbQ9I)
tp131
a(VBlack Pearl
p132
VSonny Charles & The Checkmates - Black Pearl (-4nrG0e4Wfg)
tp133
a(VIndian Giver
p134
VThe 1910 Fruitgum Company - "Indian Giver" (ZDPgmcibK_o)
tp135
a(VMother Popcorn
p136
VMother Popcorn - James Brown (5eoSXpNZD9o)
tp137
a(VTwenty-Five Miles
p138
VEDWIN STARR  (Twenty-five Miles). (Fra9Kqr4o08)
tp139
a(VThings I'd Like to Say
p140
VNew Colony Six - Things I'd Like To Say (K8WKXyy89g0)
tp141
a(VWhen I Die
p142
VMotherlode - When I Die (8MyPSFnyaTQ)
tp143
a(VThat's the Way Love Is
p144
VMarvin Gaye - That's the Way Love Is (a50sPUKD9vI)
tp145
a(VEverybody's Talkin'
p146
VHarry Nilsson - Everybody's Talkin' (1969) (2AzEY6ZqkuE)
tp147
a(VThe Worst That Could Happen
p148
VJOHNNY MAESTRO & THE BROOKLYN BRIDGE - 1969 - "Worst That Could Happen" (7ErNvnpMaE4)
tp149
a(VThe Chokin' Kind
p150
VJoe Simon - THE CHOKIN' KIND (fJX_MHeMm5g)
tp151
a(VSmile a Little Smile for Me
p152
VThe Flying Machine - Smile A Little Smile For Me (BR3xcZ-osqE)
tp153
a(VPolk Salad Annie
p154
VTony Joe White   Polk Salad Annie Original B&W (MCSsVvlj6YA)
tp155
a(VRuby, Don't Take Your Love to Town
p156
VKenny Rogers & The First Edition - Ruby, Don't Take Your Love To Town (C1e9p6J89rQ)
tp157
a(VGames People Play
p158
V"Games People Play" - Joe South - 1969 (5znh58WITU8)
tp159
a(VYou Showed Me
p160
VThe Turtles -  You Showed Me (Ul3K_e-ZgiE)
tp161
a(VTracy
p162
VThe Cufflinks - Tracy - (HQ) (Cwv8KNJ0VZg)
tp163
a(VOh, What a Night
p164
VThe Dells - Oh What A Night (Z1ozQT8yQXA)
tp165
a(VSomething
p166
VThe Beatles- Something (IrW7dlDHH28)
tp167
a(VThis Girl Is a Woman Now
p168
Vthis girl is  a woman now- gary puckett and the unio gap (zUVEzMnnPaA)
tp169
a(VCome Together
p170
VThe Beatles - Come Together (axb2sHpGwHQ)
tp171
a(VRamblin' Gamblin' Man
p172
VBob Seger System - Ramblin' Gamblin' Man (Mh_CdJo3x8c)
tp173
a(VI'm Gonna Make You Love Me
p174
VThe Supremes and The Temptations: I'm Gonna Make You Love Me (Gamble / Huff, 1968) - Lyrics (LgNNFCjYBhk)
tp175
a(VI Heard It Through the Grapevine
p176
VMarvin Gaye - I Heard It Through The Grapevine (hajBdDM2qdg)
tp177
a(VGimme Gimme Good Lovin'
p178
VCrazy Elephant - "Gimme Gimme Good Lovin'" ( Stereo ) (HUTsfwCbN5I)
tp179
a(VHang 'Em High
p180
VBooker T & The MG's - "Hang 'Em High" (NujxW5dz9D8)
tp181
a(VYour Good Thing (Is About to End)
p182
VLOU RAWLS  -  Your Good Thing Is About to End (The Very Best of LOU RAWLS) (snVHXulMDEs)
tp183
a(VBaby, I'm for Real
p184
VThe Originals - Baby I'm For Real (8MHJ4H11OPc)
tp185
a(VOh Happy Day
p186
VOh Happy Day - The Edwin Hawkins Singers (EfGDvDGE7zk)
tp187
a(VLove Me Tonight
p188
VTom Jones - Love Me Tonight (8swUJ_FXwJ4)
tp189
a(VMr. Sun, Mr. Moon
p190
VPaul Revere & The Raiders - Mr. Sun Mr. Moon, Mono 1969 45 record. (MAUCPScPsik)
tp191
a(VLaughing
p192
VTHE GUESS WHO- " LAUGHING" (W/LYRICS) (Ja9aXTZFwqM)
tp193
a(VMy Whole World Ended (The Moment You Left Me)
p194
VDAVID RUFFIN -"MY WHOLE WORLD ENDED (THE MOMENT YOU LEFT ME)"  [1969] (LpUxgahyViI)
tp195
a(VSoul Deep
p196
VTHE BOX TOPS (Soul Deep)True Stereo Mix. (IhN6IqCKzkw)
tp197
a(VHooked on a Feeling
p198
VB. J. Thomas: Hooked on a Feeling (James, 1968) - Lyrics (Wqt_iZBvtCo)
tp199
a(VSweet Cream Ladies
p200
VThe Box Tops - Sweet Cream Ladies , Forward March (j_URK08Yee4)
tp201
a(VLet Me
p202
VPaul Revere and The Raiders Let Me! (3oGleL4XxH4)
tp203
a.