(lp1
(VEnd of the Road
p2
VBoyz II Men - End Of The Road (zDKO6XYXioc)
tp3
a(VBaby Got Back
p4
VSir Mix-a-Lot - Baby Got Back (Official Video) (FlItMpGYQTo)
tp5
a(VJump
p6
VKris Kross - Jump (010KyIQjkTk)
tp7
a(VSave the Best for Last
p8
VVanessa Williams - Save The Best For Last (5EdmHSTwmWY)
tp9
a(VBaby-Baby-Baby
p10
VTLC - Baby-Baby-Baby (Q2H6pTtEVlo)
tp11
a(VTears in Heaven
p12
VEric Clapton - Tears In Heaven (Official Video) (JxPj3GAYYZ0)
tp13
a(VMy Lovin' (You're Never Gonna Get It)
p14
VEn Vogue - My Lovin (You're Never Gonna Get It) (AvTStt2WPTw)
tp15
a(VUnder the Bridge
p16
VRed Hot Chili Peppers - Under The Bridge (Official Music Video) (lwlogyj7nFE)
tp17
a(VAll 4 Love
p18
VColor Me Badd - All 4 Love (PccRs1HR7VI)
tp19
a(VJust Another Day
p20
VJon Secada - Just Another Day (B6LhWbQthAI)
tp21
a(VI Love Your Smile
p22
VShanice - I Love Your Smile (y-gz-yddE6Q)
tp23
a(VTo Be with You
p24
VMr. Big - To Be With You (5QD5n98R_nk)
tp25
a(VI'm Too Sexy
p26
VRight Said Fred - I`m Too Sexy (The Original) (G45iSmup6rs)
tp27
a(VBlack or White
p28
VMichael Jackson - Black Or White (F2AitTPI5U0)
tp29
a(VAchy Breaky Heart
p30
VBilly Ray Cyrus - Achy Breaky Heart (byQIPdHMpjc)
tp31
a(VI'll Be There
p32
VMariah Carey - I'll Be There (UIt3dx4an9c)
tp33
a(VNovember Rain
p34
VGuns N' Roses - November Rain (8SbUC-UaAxE)
tp35
a(VLife Is a Highway
p36
VTom Cochrane - Life Is A Highway (U3sMjm9Eloo)
tp37
a(VRemember the Time
p38
VMichael Jackson - Remember The Time (LeiFF0gvqcc)
tp39
a(VFinally
p40
VCeCe Peniston - Finally (xk8mm1Qmt-Y)
tp41
a(VThis Used to Be My Playground
p42
VMadonna - This Used To Be My Playground (Video) (rMHRq7yGdkA)
tp43
a(VSometimes Love Just Ain't Enough
p44
VPatty Smyth - Sometimes Love Just Ain't Enough ft. Don Henley (qdzbjUWu2VU)
tp45
a(VCan't Let Go
p46
VMariah Carey - Can't Let Go (yU1knfz15xI)
tp47
a(VJump Around
p48
VHouse Of Pain - "Jump Around" (Official Music Video) (KZaz7OqyTHQ)
tp49
a(VDiamonds and Pearls
p50
VPrince   "Diamonds and Pearls" (nEvP8xp6p8U)
tp51
a(VDon't Let the Sun Go Down on Me
p52
VGeorge Michael, Elton John - Don't Let The Sun Go Down On Me (Live) (RsKqMNDoR4o)
tp53
a(VMasterpiece
p54
VMasterpiece by Atlantic Starr with lyrics(High Quality) (hZ4Nuf-BTyk)
tp55
a(VIf You Asked Me To
p56
VIf You Asked Me To .. Celine Dion (pNcg609M70I)
tp57
a(VGiving Him Something He Can Feel
p58
VEn Vogue - Giving Him Something He Can Feel - Music Video (y2RKb1R7jM0)
tp59
a(VLive and Learn
p60
VJoe Public - Live and Learn (TbMKTZbUxzI)
tp61
a(VCome and Talk to Me
p62
VJodeci - Forever My Lady || Full Albums 3/2015 (7yqGcxuYsDw)
tp63
a(VSmells Like Teen Spirit
p64
VNirvana - Smells Like Teen Spirit (hTWKbfoikeg)
tp65
a(VHumpin' Around
p66
VBobby Brown - Humpin' Around (With Intro) (XtE1TmikgIQ)
tp67
a(VDamn I Wish I Was Your Lover
p68
VSophie B. Hawkins - Damn I Wish I Was Your Lover (Lt6r-k9Bk6o)
tp69
a(VTell Me What You Want Me to Do
p70
VTevin Campbell - Tell Me What You Want Me To Do (ytNWcB1Iydo)
tp71
a(VAin't 2 Proud 2 Beg
p72
VTLC - Ain't 2 Proud 2 Beg (XmH4_pr6mH0)
tp73
a(VIt's So Hard to Say Goodbye to Yesterday
p74
VBoyz II Men - It's So Hard To Say Goodbye To Yesterday (VastXQ_hPb0)
tp75
a(VMove This
p76
VMove This - With Lyrics (6arOcxi9NPM)
tp77
a(VBohemian Rhapsody
p78
VQueen - Bohemian Rhapsody (Official Video) (fJ9rUzIMcZQ)
tp79
a(VTennessee
p80
VArrested Development - Tennessee (6VCdJyOAQYM)
tp81
a(VThe Best Things in Life Are Free
p82
VLuther Vandross & Janet Jackson - The Best Thing In Life Are Free (DaNNdQVQB9k)
tp83
a(VMake It Happen
p84
VMariah Carey - Make It Happen (-Q6xx0JfMBI)
tp85
a(VThe One
p86
VElton John - The One (85B_REWeNcM)
tp87
a(VSet Adrift on Memory Bliss
p88
VP.M. Dawn - Set Adrift On Memory Bliss (16:9 HD) /1991/ (muAt4evb7Sk)
tp89
a(VStay
p90
VShakespeare's Sister-Stay (_eXw47qb4U0)
tp91
a(V2 Legit 2 Quit
p92
VMC Hammer - 2 Legit 2 Quit (wiyYozeOoKs)
tp93
a(VPlease Don't Go
p94
Vkws - please don't go (60fqp2rLUR4)
tp95
a(VBreakin' My Heart (Pretty Brown Eyes)
p96
VMint Condition - Breakin' My Heart (Pretty Brown Eyes) (OgCv-qrlRrI)
tp97
a(VWishing on a Star
p98
VWishing On A Star - The Cover Girls (pfkpoVpdpTY)
tp99
a(VShe's Playing Hard to Get
p100
VHi-Five - She's Playing Hard to Get (LKLnifIvnDQ)
tp101
a(VI'd Die Without You
p102
VPM Dawn - I'd Die Without You (C_qWlPCEnGM)
tp103
a(VGood for Me
p104
VAmy Grant - Good For Me (Official Music Video) (5PddJStucKQ)
tp105
a(VAll I Want
p106
VToad The Wet Sprocket - All I Want (AVYYpNaSs2Y)
tp107
a(VWhen a Man Loves a Woman
p108
VMichael Bolton - When a Man Loves a Woman (MUuNDb-nm5M)
tp109
a(VI Can't Dance
p110
VGenesis - I Can't Dance (sNJVFloPIVA)
tp111
a(VHazard
p112
VRichard Marx-Hazard 1992 (n1y5Qq-a6Pw)
tp113
a(VMysterious Ways
p114
VU2 - Mysterious Ways (TxcDTUMLQJI)
tp115
a(VToo Funky
p116
VGeorge Michael - Too Funky (JQ2DVwSVIIo)
tp117
a(VHow Do You Talk to an Angel
p118
VThe Heights - How Do You Talk To An Angel (P5HIarf0CFM)
tp119
a(VOne
p120
VU2 - One - Anton Corbjin Version (ftjEcrrf7r0)
tp121
a(VKeep on Walkin'
p122
VCeCe Peniston: Keep On Walkin' (2WeNQu2yTfg)
tp123
a(VHold on My Heart
p124
VGenesis - Hold On My Heart (V4pLqznEe3I)
tp125
a(VThe Way I Feel About You
p126
VKARYN WHITE ~ The Way I Feel About You (WGnBV1HMGG0)
tp127
a(VBeauty and the Beast
p128
VCeline Dion & Peabo Bryson - Beauty And The Beast (HQ Official Music Video) (pgYEJHJXFB4)
tp129
a(VWarm It Up
p130
VKris Kross - Warm It Up (tAhp17Mp7Xs)
tp131
a(VIn the Closet
p132
VMichael Jackson- In The Closet (HD 720P) (zbl_ctRj8C8)
tp133
a(VPeople Everyday
p134
VArrested Development - People Everyday (HD) (a_4Y7Cei_bw)
tp135
a(VNo Son of Mine
p136
VGenesis - No Son Of Mine (cddQn1mZRfI)
tp137
a(VWildside
p138
VMarky Mark And The Funky Bunch - Wildside (ed2q_b5rhvo)
tp139
a(VDo I Have to Say the Words?
p140
VBryan Adams - Do I Have To Say The Words? (otgnuwR6w8o)
tp141
a(VFriday I'm in Love
p142
VThe Cure - Friday I'm In Love (mGgMZpGYiy8)
tp143
a(VEverything About You
p144
VUgly Kid Joe - Everything About You (byEGjLU2egA)
tp145
a(VBlowing Kisses in the Wind
p146
VPaula Abdul - Blowing Kisses In The Wind (Z3cQ0by7yTI)
tp147
a(VThought I'd Died and Gone to Heaven
p148
VBryan Adams - Thought I'd Died And Gone To Heaven (CTfIr_euGTs)
tp149
a(VRhythm Is a Dancer
p150
VSnap - Rhythm Is A Dancer (16:9 HD) /1992/ (OYpUdiiNNmA)
tp151
a(VAddams Groove
p152
VMC Hammer - Addams Groove [HQ Video] (jqQwzgixHAM)
tp153
a(VMissing You Now
p154
VMichael Bolton - Missing You Now (xo-jCrIRb9g)
tp155
a(VBack to the Hotel
p156
VN2Deep - Back To The Hotel (WVtRyrOaoZA)
tp157
a(VEverything Changes
p158
VKathy Troccoli - Everything Changes (4C9AD1oyE30)
tp159
a(VHave You Ever Needed Someone So Bad
p160
VDEF LEPPARD - "Have You Ever Needed Someone So Bad" (Official Music Video) (vuwa4QmjHcw)
tp161
a(VTake This Heart
p162
VRichard Marx - Take This Heart (7Wdv7sxdiE0)
tp163
a(VWhen I Look Into Your Eyes
p164
VFirehouse - When I Look Into Your Eyes (Lyrics) (kxJBN_AHfas)
tp165
a(VI Wanna Love You
p166
VJade | I Wanna Love You (bk4zURoO3qQ)
tp167
a(VUhh Ahh
p168
VBoyz II Men - Uhh Ahh (ci8hWx4CR-k)
tp169
a(VReal Love
p170
VReal Love-Mary j. Blige (7ovf52H5ydg)
tp171
a(VJustified and Ancient
p172
VKLF - Justified & Ancient (16:9 HD) /1991/ (PPKaBhDPVRA)
tp173
a(VSlow Motion
p174
VColor Me Badd: Slow Motion (5RJ65T2YZ8M)
tp175
a(VWhat About Your Friends
p176
VTLC - What About Your Friends (92gHq1s6G-c)
tp177
a(VThinkin' Back
p178
VThinkin' Back (lkPMF7XLtdU)
tp179
a(VWould I Lie to You?
p180
VCharles & Eddie - Would I Lie To You? (G_UXvcr22rM)
tp181
a(VThat's What Love Is For
p182
VThat's What Love Is For- Amy Grant (W99G6FlRpfA)
tp183
a(VKeep Coming Back
p184
VRichard Marx - Keep Coming Back (09TPa8dKV0s)
tp185
a(VFree Your Mind
p186
VEn Vogue - Free Your Mind (Official Video) (i7iQbBbMAFE)
tp187
a(VKeep It Comin'
p188
VKeith Sweat - Keep It Comin' (Video) (QR7MEwkIPD4)
tp189
a(VJust Take My Heart
p190
VMr. Big - "Just take My Heart" (1991) (Z4gsveUHgw8)
tp191
a(VI Will Remember You
p192
VAmy Grant - I Will Remember You (Official Music Video) (W2wrtoloJ6k)
tp193
a(VWe Got a Love Thang
p194
VCeCe Peniston - We Got A Love Thang (__ugaiz323k)
tp195
a(VLet's Get Rocked
p196
VDEF LEPPARD - "Lets Get Rocked" (Official Music Video) (BO1Nae_EBvQ)
tp197
a(VThey Want EFX
p198
VDas EFX - They Want EFX (UalV4ThhQQM)
tp199
a(VI Can't Make You Love Me
p200
VBonnie Raitt - I Can't Make You Love Me (nW9Cu6GYqxo)
tp201
a.