(lp1
(V"Let Me Love You"
p2
VMario - Let Me Love You (H64QG4UsrGI)
tp3
a(V"1, 2 Step"
p4
VCiara - 1, 2 Step ft. Missy Elliott (iBHNgV6_znU)
tp5
a(V"Lovers & Friends"
p6
VLil Jon & The East Side Boyz - Lovers And Friends (Feat Usher & Ludacris) (rK1k1R0IFp4)
tp7
a(V"Soldier"
p8
VDestiny's Child - Soldier ft. T.I., Lil' Wayne (qFJ3VKnwmJw)
tp9
a(V"I Don't Want to Be"
p10
VGavin DeGraw - I Don't Want To Be (8gFCW3PHBws)
tp11
a(V"Disco Inferno"
p12
V50 Cent - Disco Inferno (GNqYWkiBHHw)
tp13
a(V"How We Do"
p14
VThe Game - How We Do (Feat. 50 Cent) (K65gJEsqegE)
tp15
a(V"Boulevard of Broken Dreams"
p16
VGreen Day: "Boulevard Of Broken Dreams" - [Official Video] (Soa3gO7tL-c)
tp17
a(V"Bring 'Em Out"
p18
VT.I.- Bring Em Out (High Quality) (vuyxX5P5Xug)
tp19
a(V"Since U Been Gone"
p20
VKelly Clarkson - Since U Been Gone (R7UrFYvl5TE)
tp21
a(V"Candy Shop"
p22
V50 Cent - Candy Shop ft. Olivia (SRcnnId15BA)
tp23
a(V"Rich Girl"
p24
VGwen Stefani - Rich Girl ft. Eve (9rlNpWYQunY)
tp25
a(V"Caught Up"
p26
VUsher - Caught Up (cFkZDhwqoHg)
tp27
a(V"Obsession (No Es Amor)"
p28
VFrankie J - Obsesion (No Es Amor) (hY73MQOpg-0)
tp29
a(V"Hate It or Love It"
p30
VThe Game, 50 Cent - Hate It Or Love It (BuMBmK5uksg)
tp31
a(V"Lonely"
p32
VAkon - Lonely (6EEW-9NDM5k)
tp33
a(V"1 Thing"
p34
VAmerie - 1 Thing (bbqVg_23otg)
tp35
a(V"Hollaback Girl"
p36
VGwen Stefani - Hollaback Girl (Kgjkth6BRRY)
tp37
a(V"Lonely No More"
p38
VRob Thomas - Lonely No More (Video) (7spBU4Yv8fE)
tp39
a(V"Oh"
p40
VCiara - Oh ft. Ludacris (Hr4wz4-27PY)
tp41
a(V"Speed of Sound" \u25c1
p42
VColdplay - Speed Of Sound (0k_1kvDh2UA)
tp43
a(V"Just a Lil Bit"
p44
V50 Cent - Just A Lil Bit (GllEDACUbNo)
tp45
a(V"Slow Down"
p46
VBobby V. - Slow Down (Z6NzwMif0fA)
tp47
a(V"We Belong Together"
p48
VMariah Carey - We Belong Together (0habxsuXW4g)
tp49
a(V"Don't Phunk with My Heart"
p50
VThe Black Eyed Peas - Don't Phunk With My Heart (P4Bda6_usuc)
tp51
a(V"Behind These Hazel Eyes"
p52
VKelly Clarkson - Behind These Hazel Eyes (yipoOY56MbM)
tp53
a(V"Switch"
p54
VWill Smith - Switch (uzUozo1628U)
tp55
a(V"Mr. Brightside"
p56
VThe Killers - Mr. Brightside (gGdGFtwCNBE)
tp57
a(V"Grind with Me"
p58
VPretty Ricky - Grind With Me (music video) (AdJtw7vS1E8)
tp59
a(V"Inside Your Heaven" \u25c1
p60
VCarrie Underwood Inside Your Heaven Lyrics(HD) (QIuOCfvzk-s)
tp61
a(V"Get It Poppin'"
p62
VFat Joe ft. Nelly - Get it Poppin (dRtG6fOS-N8)
tp63
a(V"Inside Your Heaven" \u25c1
p64
VInside Your Heaven (nNLXCLkz8HA)
tp65
a(V"Don't Cha"
p66
VThe Pussycat Dolls - Don't Cha ft. Busta Rhymes (YNSxNsr4wmA)
tp67
a(V"Lose Control"
p68
VLose Control - Missy Elliott ft. Ciara and Fat man Scoop (HD) (x6o_SDIgSZ8)
tp69
a(V"Pon de Replay"
p70
VRihanna - Pon de Replay (Internet Version) (oEauWw9ZGrA)
tp71
a(V"Let Me Hold You"
p72
VBow Wow - Let Me Hold You ft. Omarion (CX2Acz35XWY)
tp73
a(V"Pimpin' All Over the World"
p74
VLudacris - Pimpin' All Over The World (Golden Palace Version) ft. Bobby V. (HXLCOIcb41Y)
tp75
a(V"Listen to Your Heart"
p76
VListen to your Heart - DHT (NEv1-jEVAX8)
tp77
a(V"You and Me"
p78
VLifehouse - You And Me (ac3HkriqdGQ)
tp79
a(V"Shake It Off"
p80
VMariah Carey - Shake It Off (jZVdDl_asYY)
tp81
a(V"Like You"
p82
VBow Wow - Like You ft. Ciara (b-EqP0BLy1Q)
tp83
a(V"Gold Digger"
p84
VKanye West - Gold Digger ft. Jamie Foxx (6vwNcNOTVzY)
tp85
a(V"Sugar, We're Goin Down"
p86
VFall Out Boy - Sugar, We're Goin Down (Concept Version) (uhG-vLZrb-g)
tp87
a(V"My Humps"
p88
VThe Black Eyed Peas - My Humps (iEe_eraFWWs)
tp89
a(V"Outta Control (remix)"
p90
V50 Cent - Outta Control ft. Mobb Deep (Z3Oux1lN__4)
tp91
a(V"Wake Me Up When September Ends"
p92
VGreen Day - Wake Me Up When September Ends (with lyrics on screen) (ci5D5r6ZjXA)
tp93
a(V"Play"
p94
VDavid Banner - Play lyrics HQ (nYXWhCTxHKo)
tp95
a(V"Beverly Hills"
p96
VWeezer - Beverly Hills (HL_WvOly7mY)
tp97
a(V"Photograph"
p98
VNickelback - Photograph [OFFICIAL VIDEO] (T3rXdeOvhNE)
tp99
a(V"Soul Survivor"
p100
VYoung Jeezy - Soul Survivor ft. Akon (gczBgNB-p1w)
tp101
a(V"Because of You"
p102
VKelly Clarkson - Because Of You (Ra-Om7UMSJc)
tp103
a(V"Run It!"
p104
VChris Brown ft. Juelz Santana-Run It Wit Lyrics (uMQ-2gxVyVI)
tp105
a(V"We Be Burnin'"
p106
VWe Be Burning - Sean Paul (Official Video) (uUGFhVWPOFs)
tp107
a(V"I'm Sprung"
p108
VI'm Sprung T Pain ft Akon with lyrics (zWDDBN5X6Bw)
tp109
a(V"Stickwitu"
p110
VThe Pussycat Dolls - Stickwitu ft. Avant (K1uNjmxJQUo)
tp111
a(V"Hung Up"
p112
VMadonna - Hung Up (Official Music Video) (EDwb9jOVRtU)
tp113
a(V"Don't Forget About Us"
p114
VMariah Carey - Don't Forget About Us (8tZkzL4j3BU)
tp115
a(V"When I'm Gone"
p116
VEminem - When I'm Gone (1wYNFfgrXTI)
tp117
a.