(lp1
(V"Owner of a Lonely Heart"
p2
VYes - Owner of a Lonely Heart (9O6e7cgkeqw)
tp3
a(V"Twist of Fate"
p4
VOlivia Newton John - Twist of fate (_2hawbp5XT4)
tp5
a(V"Break My Stride"
p6
VMatthew Wilder - Break My Stride (sLE_emfAd74)
tp7
a(V"Talking in Your Sleep"
p8
VThe Romantics - Talking in Your Sleep (JmGMzyajA2U)
tp9
a(V"I Guess That's Why They Call It the Blues"
p10
VElton John - I Guess That's Why They Call It The Blues (h6KYAVn8ons)
tp11
a(V"Karma Chameleon"
p12
VCulture Club - Karma Chameleon (JmcA9LIIXWw)
tp13
a(V"Running with the Night"
p14
VLionel Richie - Running With The Night (6PnhlXLHKAE)
tp15
a(V"Joanna"
p16
VKool & The Gang - Joanna (hsklsxReSe0)
tp17
a(V"That's All"
p18
VGenesis - That's All (khg2sloLzTI)
tp19
a(V"Think of Laura"
p20
VThink of Love Laura-Christopher Cross.wmv (02-CvtmRz6M)
tp21
a(V"Pink Houses"
p22
VJohn Mellencamp - Pink Houses (qOfkpu6749w)
tp23
a(V"Jump"
p24
VVan Halen - Jump (SwYN7mTi6HM)
tp25
a(V"99 Luftballons"
p26
VNena \u200e- 99 Luftballons (La4Dcd1aUcE)
tp27
a(V"Thriller"
p28
VMichael Jackson - Thriller (sOnqjkJTMaA)
tp29
a(V"Girls Just Want to Have Fun"
p30
VCyndi Lauper - Girls Just Want To Have Fun (Official Video) (PIb6AZdTr-A)
tp31
a(V"Let the Music Play"
p32
VShannon - Let The Music Play (Official Video) (_-0sUuGufmw)
tp33
a(V"Nobody Told Me"
p34
VJohn Lennon- Nobody Told Me (gBCdlBrgEmE)
tp35
a(V"Wrapped Around Your Finger"
p36
VThe Police - Wrapped Around Your Finger (svWINSRhQU0)
tp37
a(V"An Innocent Man"
p38
VAn Innocent Man by Billy Joel - lyrics (LN9AQTCnYyM)
tp39
a(V"Somebody's Watching Me"
p40
VRockwell - Somebody's Watching Me (7YvAYIJSSZY)
tp41
a(V"I Want a New Drug"
p42
VHuey Lewis And The News - I Want A New Drug (N6uEMOeDZsA)
tp43
a(V"Here Comes the Rain Again"
p44
VEurythmics - Here Comes The Rain Again (with lyrics). (JVd_ShX9nio)
tp45
a(V"Footloose"
p46
VFootloose - Kenny Loggins (wFWDGTVYqE8)
tp47
a(V"New Moon on Monday"
p48
VDuran Duran - New Moon On Monday (m3a4OTh2Y8w)
tp49
a(V"Automatic"
p50
VAutomatic - The Pointer Sisters (w-4bxMI0jgM)
tp51
a(V"Adult Education"
p52
VDaryl Hall & John Oates - Adult Education (XLYqTZKEpvs)
tp53
a(V"Got a Hold on Me"
p54
VChristine Mcvie - Got A Hold On Me (EHYoq4f6sXM)
tp55
a(V"Against All Odds (Take a Look at Me Now)"
p56
VPhil Collins - Against All Odds ( Take A Look At Me Now ) (JFg3JuwxKKA)
tp57
a(V"Miss Me Blind"
p58
VCulture Club - Miss Me Blind (hFVuuRxM2VU)
tp59
a(V"Hello"
p60
VHello by Lionel Richie (b_ILDFp5DGA)
tp61
a(V"Hold Me Now"
p62
VThompson Twins - Hold Me Now (H9694K85Xc8)
tp63
a(V"Love Somebody"
p64
VRick Springfield - Love Somebody (JIVYW977GVM)
tp65
a(V"They Don't Know"
p66
VTracey Ullman   They Don't Know 1983 Video (9CCTLNwnYVQ)
tp67
a(V"You Might Think"
p68
VThe Cars - You Might Think (OFFICIAL MUSIC VIDEO) (3dOx510kyOs)
tp69
a(V"To All the Girls I've Loved Before"
p70
VJulio Iglesias, Willie Nelson - To All The Girls I've Loved Before (rVq0ONrSH-Q)
tp71
a(V"Let's Hear It for the Boy"
p72
VDeniece Williams - Let's Hear It For The Boy (HQ with lyrics) (VZLBZ3eD7wI)
tp73
a(V"Time After Time"
p74
VCyndi Lauper - Time After Time (VdQY7BusJNU)
tp75
a(V"Oh Sherrie"
p76
VSteve Perry - Oh Sherrie (5-WpsdC2-Cc)
tp77
a(V"The Reflex"
p78
VDuran Duran - The Reflex (oDnNF5cHCdo)
tp79
a(V"Sister Christian"
p80
VNight Ranger - Sister Christian (z92bmlcmyq0)
tp81
a(V"Breakdance"
p82
VIrene Cara - Breakdance (1984) (yMRkvynnThI)
tp83
a(V"The Heart of Rock & Roll"
p84
VHuey Lewis And The News - The Heart Of Rock & Roll (M7JVlpm0eRs)
tp85
a(V"Self Control"
p86
VLaura Branigan - Self Control (p8-pP4VboBk)
tp87
a(V"Jump (For My Love)"
p88
VThe Pointer Sisters - Jump (For My Love) (uyTVyCp7xrw)
tp89
a(V"Dancing in the Dark"
p90
VBruce Springsteen - Dancing in the Dark (129kuDCQtHs)
tp91
a(V"Borderline"
p92
VMadonna - Borderline (rSaC-YbSDpo)
tp93
a(V"When Doves Cry"
p94
Vwhen doves cry-prince & revolution (x_tonrrxvYA)
tp95
a(V"Eyes Without a Face"
p96
VBilly Idol - Eyes Without A Face (BKmldYSDJaM)
tp97
a(V"Almost Paradise...Love Theme from Footloose"
p98
VAlmost Paradise  - Mike Reno & Ann Wilson (Yc40EasXz18)
tp99
a(V"Legs"
p100
VZZ Top - Legs (OFFICIAL MUSIC VIDEO) (eUDcTLaWJuo)
tp101
a(V"Ghostbusters"
p102
VRay Parker, Jr. - Ghostbusters (Fe93CLbHjxQ)
tp103
a(V"State of Shock"
p104
VMichael, Mick AND Freddie - State Of Shock (Ultimate Version 2012) (FP5kcOl7XO8)
tp105
a(V"Sad Songs (Say So Much)"
p106
VElton John - Sad Songs (Say So Much) (X23v5_K7cXk)
tp107
a(V"Infatuation"
p108
VRod Stewart Infatuation (2VaazQfxGso)
tp109
a(V"What's Love Got to Do with It"
p110
VTina Turner - What's Love Got To Do With It [Official Music Video] (kcj2OyqU1Zs)
tp111
a(V"Stuck on You"
p112
VLionel Richie - Stuck On You (with lyrics) (YhsTB4rq1XU)
tp113
a(V"Breakin'... There's No Stopping Us"
p114
VBreakin':  Breakin'...There's No Stopping Us by Ollie/Jerry (zMWdm6n3b2I)
tp115
a(V"I Can Dream About You"
p116
VDan Hartman - I Can Dream About You (621Nk3Ubz4A)
tp117
a(V"Sunglasses at Night"
p118
VCorey Hart - Sunglasses At Night (shKQeBFyZgA)
tp119
a(V"Missing You"
p120
VJohn Waite - Missing You (k9e157Ner90)
tp121
a(V"If Ever You're in My Arms Again"
p122
VIf Ever You're In My Arms Again  -   Peabo Bryson (mYitkKVZKt0)
tp123
a(V"She Bop"
p124
VCyndi Lauper - She Bop (KFq4E9XTueY)
tp125
a(V"Let's Go Crazy"
p126
VPrince - Let's Go Crazy (Live) - Rave Un2 The Year 2000 (Yx6-VAsgjx4)
tp127
a(V"If This Is It"
p128
VHuey Lewis And The News - If This Is It (AaTQAaJWW54)
tp129
a(V"The Warrior"
p130
VScandal, Patty Smyth - The Warrior (47y5bo8wtqM)
tp131
a(V"Drive"
p132
VThe Cars - Drive (DrgSzcctUyY)
tp133
a(V"The Glamorous Life"
p134
VSHEILA E - THE GLAMOROUS LIFE (XeJLZi0uyJw)
tp135
a(V"I Just Called to Say I Love You"
p136
VStevie Wonder - I Just Called To Say I Love You (W/LYRICS) (ezD9fndbeyw)
tp137
a(V"Cruel Summer"
p138
VBananarama - Cruel Summer (OFFICIAL MUSIC VIDEO) (9ePIZugahFc)
tp139
a(V"Cover Me"
p140
VBruce Springsteen - Cover Me (dkaSxmvZnGs)
tp141
a(V"Hard Habit to Break"
p142
VChicago - Hard habit to break (nTpoo4BLN7g)
tp143
a(V"Lucky Star"
p144
VMadonna - Lucky Star (ThHz9wlBeLU)
tp145
a(V"Caribbean Queen (No More Love on the Run)"
p146
VBilly Ocean - Caribbean Queen (No More Love On The Run) (RClNXmxk498)
tp147
a(V"On the Dark Side"
p148
Vjohn cafferty and the beaver brown band- on the dark side lp (kNk0HL4IXEg)
tp149
a(V"Purple Rain"
p150
VPurple Rain   Prince AVI (F8BMm6Jn6oU)
tp151
a(V"I'm So Excited"
p152
VThe Pointer Sisters - I'm So Excited (8iwBM_YB1sE)
tp153
a(V"Wake Me Up Before You Go-Go"
p154
VWham! - Wake Me Up Before You Go-Go (pIgZ7gMze7A)
tp155
a(V"Some Guys Have All the Luck"
p156
VRod Stewart - Some Guys Have All The Luck (VuYvKLZXKhI)
tp157
a(V"Blue Jean"
p158
VDavid Bowie - Blue Jean (qf5ruT2jd5k)
tp159
a(V"Better Be Good to Me"
p160
VTina Turner - Better Be Good To Me [Official Music Video] (ikwWdx5_PMk)
tp161
a(V"I Feel for You"
p162
VChaka Khan - I Feel for You (1984) (hX9E44mClKs)
tp163
a(V"Out of Touch"
p164
VHall and Oates - Out of Touch (s_8KR-n2fBQ)
tp165
a(V"Desert Moon"
p166
VDennis DeYoung - Desert Moon (2cFOLFtw2Ic)
tp167
a(V"Strut"
p168
VSheena Easton- Strut (SG)(digital clear)(digital hi-fi) (F43j_Fbcfb0)
tp169
a(V"All Through the Night"
p170
VCyndi Lauper-All through the night (yW8qxUitG-Q)
tp171
a(V"Penny Lover"
p172
VLionel Richie - Penny Lover (k7r-Dk2daro)
tp173
a(V"The Wild Boys"
p174
VDuran Duran - The Wild Boys (M43wsiNBwmo)
tp175
a(V"No More Lonely Nights"
p176
VPaul McCartney - No More Lonely Nights (BxYpsB_jdH8)
tp177
a(V"Like a Virgin"
p178
VMadonna - Like a Virgin [Official Music Video] (zHW5RVvg2v4)
tp179
a.