(lp1
(V"Harden My Heart"
p2
VQuarterflash - Harden My Heart (OqeKV2UYq1Q)
tp3
a(V"I Can't Go for That (No Can Do)"
p4
VDaryl Hall & John Oates - I Can't Go For That (No Can Do) (ccenFp_3kq8)
tp5
a(V"Leather and Lace"
p6
VLeather and lace by Stevie Nicks and Don Henley (Lyrics) (Ew4pMpzC5B8)
tp7
a(V"Trouble"
p8
VLindsey Buckingham - Trouble (1981) (Music Video) 720p (CO1sQPs3U8k)
tp9
a(V"Centerfold"
p10
VJ. Geils Band - Centerfold (BqDjMZKf-wg)
tp11
a(V"Turn Your Love Around"
p12
VGeorge Benson  -  Turn Your Love Around (9tZWLRh3xmU)
tp13
a(V"The Sweetest Thing (I've Ever Known)"
p14
VJuice Newton - The Sweetest Thing (I've Ever Known) (VKELauMTdXM)
tp15
a(V"Hooked on Classics"
p16
VThe Royal Philharmonic Orchestra - Hooked On Classics Parts 1 (258dERDC4P8)
tp17
a(V"Shake It Up"
p18
VThe Cars-Shake it up (eq-yoorI7lo)
tp19
a(V"Open Arms"
p20
VJourney - Open Arms (2lLmYLw0WRI)
tp21
a(V"Sweet Dreams"
p22
VAir Supply - Sweet Dreams Lyrics (krSyAZs7tbc)
tp23
a(V"That Girl"
p24
VStevie Wonder That Girl (-BlPAL1Cmhw)
tp25
a(V"Leader of the Band"
p26
VDan Fogelberg - Leader of the band "with lyrics" (qsocZrEcp0Y)
tp27
a(V"I Love Rock 'n' Roll"
p28
VI love Rock n roll - Joan jett The Blackhearts (xL5spALs-eA)
tp29
a(V"Mirror Mirror"
p30
VDiana Ross - Mirror, Mirror (Slayd5000) (3tqV2EBvFBw)
tp31
a(V"Take It Easy on Me"
p32
VLittle River Band - Greatest Hits - Take It Easy On Me (ylSZssg8IY8)
tp33
a(V"We Got the Beat"
p34
VThe Go Gos- We Got the Beat (LD1BWcf8vhE)
tp35
a(V"Make a Move on Me"
p36
VOlivia Newton-John - Make A Move On Me (2JH0Z4vkXIc)
tp37
a(V"Pac-Man Fever"
p38
VBuckner & Garcia Pac-Man Fever (1982) (Full Album) (xN5SkwYZNKA)
tp39
a(V"Chariots of Fire"
p40
VChariots of Fire Theme \u2022 Vangelis (CSav51fVlKU)
tp41
a(V"Freeze Frame"
p42
VJ. Geils Band - Freeze Frame (wHo43B6nu60)
tp43
a(V"Don't Talk to Strangers"
p44
VRick Springfield - Don't Talk To Strangers (cp42V938eBA)
tp45
a(V"Key Largo"
p46
VBertie Higgins - Key Largo (Ru2tsT32pHA)
tp47
a(V"Do You Believe in Love"
p48
VHuey Lewis And The News - Do You Believe In Love (BzIbyDbmsyg)
tp49
a(V"Ebony and Ivory"
p50
VEbony & Ivory-Stevie Wonder & Sir Paul McCartney (CmALA8miQY8)
tp51
a(V"867-5309/Jenny"
p52
V867-5309/Jenny, LIVE (axLRUszuu9I)
tp53
a(V"'65 Love Affair"
p54
VPaul Davis - '65 Love Affair (vapivgBfwxk)
tp55
a(V"I've Never Been to Me"
p56
VI've Never Been To Me by Charlene with lyrics (QhQWND9jKDA)
tp57
a(V"Did It in a Minute"
p58
VHall & Oates - Did It In a Minute (UeL-LoDQicg)
tp59
a(V"The Other Woman"
p60
VRay Parker Jr - The Other Woman  HD (673E0RyDYOo)
tp61
a(V"Don't You Want Me"
p62
VThe Human League - Don't You Want Me (uPudE8nDog0)
tp63
a(V"Get Down on It"
p64
VKool & The Gang - Get Down On It HD 1080p (OW1HWGUrYos)
tp65
a(V"Always on My Mind"
p66
VALWAYS ON MY MIND with lyrics -Willie Nelson (DDGiSoLIG8I)
tp67
a(V"Rosanna"
p68
VToto - Rosanna (qmOLtTGvsbM)
tp69
a(V"Heat of the Moment"
p70
VHeat of the Moment - Asia - With lyrics (dYZq_DlRBHQ)
tp71
a(V"Crimson and Clover"
p72
VJoan Jett and the Blackhearts - Crimson & Clover (hdhonK8NMm8)
tp73
a(V"It's Gonna Take a Miracle"
p74
VDeniece Williams - It's Gonna Take a Miracle (YOXCvyfsjB8)
tp75
a(V"Hurts So Good"
p76
VHurts So Good - John Cougar (with lyrics) (fTdxMXKT4So)
tp77
a(V"Let It Whip"
p78
VDazz Band - Let It Whip (ccvUstooIfw)
tp79
a(V"Love's Been a Little Bit Hard on Me"
p80
VJuice Newton - Love's Been A Little Bit Hard On Me (1tatoOZ2-uw)
tp81
a(V"Eye of the Tiger"
p82
VSurvivor - Eye Of The Tiger (btPJPFnesV4)
tp83
a(V"Caught Up in You"
p84
V38 Special - Caught Up In You (zg21Rkew874)
tp85
a(V"Tainted Love"
p86
VTainted Love Soft Cell Lyrics (CQ5_QxwFjNI)
tp87
a(V"Hold Me"
p88
VFleetwood Mac - Hold Me (Official Music Video) (RAbfPDZdEBU)
tp89
a(V"Only the Lonely"
p90
VThe Motels - Only The Lonely (ZaPTELylZ1s)
tp91
a(V"Abracadabra"
p92
VSteve miller Band - Abracadabra (7QyoRzZrF00)
tp93
a(V"Keep the Fire Burnin'"
p94
VREO Speedwagon - Keep The Fire Burnin' (9gY_SbSIG0U)
tp95
a(V"Hard to Say I'm Sorry"
p96
VCHICAGO - Hard To Say I'm Sorry (zqq3tW3iACw)
tp97
a(V"Even the Nights Are Better"
p98
VAir Supply - Even The Nights Are Better (BRx58DgOxeg)
tp99
a(V"Vacation"
p100
VThe Go Gos - Vacation + Lyrics (0fQESUBMwGg)
tp101
a(V"Wasted on the Way"
p102
VCrosby Stills & Nash: Wasted On The Way (urdQ8BsHDqY)
tp103
a(V"Take It Away"
p104
VTAKE IT AWAY - Paul McCartney & Linda (with Ringo & George Martin) 1982 (O9s950VfMxA)
tp105
a(V"You Should Hear How She Talks About You"
p106
VMelissa Manchester   You Should Hear How She Talks About You (c1BTURu7oAc)
tp107
a(V"Jack & Diane"
p108
VJACK AND DIANE john mellencamp [Lyrics!!] (feeHTm-dYGg)
tp109
a(V"Eye in the Sky"
p110
VThe Alan Parsons Project- Eye in the Sky (NNiie_zmSr8)
tp111
a(V"Who Can It Be Now?"
p112
VMen At Work - Who Can It Be Now? (SECVGN4Bsgg)
tp113
a(V"Somebody's Baby"
p114
VJackson Browne- Somebody's Baby (M6pT_BDpnog)
tp115
a(V"Love Is in Control (Finger on the Trigger)"
p116
VDonna Summer (clip) - Love Is in Control (ZsG1qIwevRQ)
tp117
a(V"I Keep Forgettin' (Every Time You're Near)"
p118
VMichael McDonald - I Keep Forgettin' (Every Time You're Near) (with lyrics) (TqMGUHPbcBI)
tp119
a(V"You Can Do Magic"
p120
VAMERICA - YOU CAN DO MAGIC 1982 (Audio Enhanced) (jb8Sa0jp7Pw)
tp121
a(V"I Ran (So Far Away)"
p122
VA Flock of Seagulls - I Ran (So Far Away) (BJ7NVjZ-Eyg)
tp123
a(V"Heart Attack"
p124
VOlivia Newton-John - Heart Attack (_SAcQPxsebs)
tp125
a(V"Up Where We Belong"
p126
VJoe Cocker & Jennifer Warnes - Up Where We Belong (OjGoJFgI71I)
tp127
a(V"Heartlight"
p128
VHeartlight by Neil Diamond w/ lyrics (ejg) (GzNnFARrdg0)
tp129
a(V"Truly"
p130
VLionel Richie - Truly (G1xiFRccd88)
tp131
a(V"Gloria"
p132
VLaura Branigan - Gloria [1982] (355Fk8drgZE)
tp133
a(V"Muscles"
p134
VDiana Ross Muscles (EFJO5LcWGfk)
tp135
a(V"Mickey"
p136
VToni Basil-Hey Mickey Lyrics (QoDxSgoVHG0)
tp137
a(V"Maneater"
p138
VDaryl Hall & John Oates - Maneater (Lyrics) (GbevQH1B9ic)
tp139
a(V"Steppin' Out"
p140
VJoe Jackson - Steppin' Out (extended video) (RBJUHvQPFTI)
tp141
a(V"Rock This Town"
p142
VStray Cats Rock This Town Lyrics (46935NAqjhQ)
tp143
a.