(lp1
(V"Please Don't Go"
p2
VKC & The Sunshine Band - Please don't go (hi quality sound) (w-l5FyA3pgo)
tp3
a(V"Do That to Me One More Time"
p4
VCaptain and Tenille || Do That To Me One More Time (fRbGWa8x-DA)
tp5
a(V"Ladies' Night"
p6
VKool & The Gang - Ladies Night (LjG7-5kbevo)
tp7
a(V"Rock with You"
p8
VMichael Jackson - Rock With You (5X-Mrc2l1d0)
tp9
a(V"Coward of the County"
p10
Vkenny rogers coward of the county (yK543f0_UKc)
tp11
a(V"We Don't Talk Anymore"
p12
VCliff Richard - We Don't Talk Anymore (1979) (htZir_Taizg)
tp13
a(V"Cruisin'"
p14
VSmokey Robinson - Cruisin' (WlzY6cWpoMQ)
tp15
a(V"Cool Change"
p16
VCool Change Little River Band (9bKwRW0l-Qk)
tp17
a(V"Crazy Little Thing Called Love"
p18
VQueen - Crazy Little Thing Called Love (Official Video) (zO6D_BAuYCI)
tp19
a(V"Sara"
p20
VFleetwood Mac - Sara (RHJb87nNsGY)
tp21
a(V"The Long Run"
p22
VEagles - 1979 The Long Run (iaVDqK7d_DQ)
tp23
a(V"Yes, I'm Ready"
p24
VYes I'm Ready / Teri Desario with K.C. (EbVA6vcas1o)
tp25
a(V"Don't Do Me Like That"
p26
VTom Petty & the Heartbreakers- Don't Do Me Like That (T1aU1wbFSTs)
tp27
a(V"Longer"
p28
VLONGER - Dan Fogelberg (5Go6I2_PpBU)
tp29
a(V"Desire"
p30
VDesire - Andy Gibb [Subtitulado & Lyrics HD] (R0yS8Vurz3A)
tp31
a(V"On the Radio"
p32
VOn The Radio Lyrics By Donna Summer (goihYs-0rLE)
tp33
a(V"Another Brick in the Wall"
p34
VPink Floyd - Another Brick in the Wall (M_bvT-DGcWw)
tp35
a(V"Working My Way Back to You (Forgive Me, Girl)"
p36
VSPINNERS - Working My Way Back to You,Forgive Me Girl (Very Best Of The Spinners) (fWisTfd8gDM)
tp37
a(V"Him"
p38
VRUPERT HOLMES - Him (TlmmVEmw9pA)
tp39
a(V"The Second Time Around"
p40
VShalamar - Second Time Around Official Video (xz4YQZ01Q_A)
tp41
a(V"Too Hot"
p42
VKool And The Gang - Too Hot (bBlRuGFT7Ew)
tp43
a(V"How Do I Make You"
p44
VLinda Ronstadt - "How Do I Make You" (Official Music Video) (OUBjRg5KP7E)
tp45
a(V"Call Me"
p46
VBlondie- Call me (y6QBaZHltJw)
tp47
a(V"Ride Like the Wind"
p48
VChristopher Cross - Ride Like The Wind (ur8ftRFb2Ac)
tp49
a(V"Special Lady"
p50
VRay , Goodman & Brown - Special Lady (BBG4kGRH_64)
tp51
a(V"With You I'm Born Again"
p52
VBilly Preston & Syreeta Wright - With You I'm Born Again (oqTq8gckf8E)
tp53
a(V"I Can't Tell You Why"
p54
VEagles - I Can't Tell You Why [w/ lyrics] (q6yyWKzPBCM)
tp55
a(V"Off the Wall"
p56
VOff The Wall - MICHAEL JACKSON '1979 (B3MFbhwfEXU)
tp57
a(V"Lost in Love"
p58
VAir Supply - Lost In Love (1bG_zk6FwU0)
tp59
a(V"Fire Lake"
p60
VFire Lake - Bob Seger & The Silver Bullet Band (Ld1l4Ud7jp8)
tp61
a(V"Sexy Eyes"
p62
VDR. HOOK - Sexy Eyes (poRjqrGHKho)
tp63
a(V"You May Be Right"
p64
VBilly Joel- You may be right (SCtC-LoOvqs)
tp65
a(V"Hold On (To My Love)"
p66
VHold on to my love by Jimmy Ruffin (zbHUH9fxI30)
tp67
a(V"Don't Fall in Love with a Dreamer"
p68
VKenny rogers Kim carnes Don't fall in love with a dreamer (JOU4TWGSxZM)
tp69
a(V"Funkytown"
p70
VLIPPS INC  Funkytown (Original 12" Version) (xF77Y1JLScc)
tp71
a(V"Biggest Part of Me"
p72
VAmbrosia - Biggest Part of Me (HQ) (bOm0Dq_kKNU)
tp73
a(V"Stomp!"
p74
VThe Brothers Johnson - Stomp! (tPBDMihPRJA)
tp75
a(V"Hurt So Bad"
p76
VHurt So Bad - Linda Ronstadt (y56SNOsfgq8)
tp77
a(V"Cars"
p78
VGary Numan - Cars (Ldyx3KHOFXw)
tp79
a(V"Coming Up (Live at Glasgow)"
p80
VPaul McCartney & Wings - Coming Up (Live at Glasgow) (IsvEla7KTuU)
tp81
a(V"Against the Wind"
p82
VBob Seger - Against the Wind (RcDCvQbOdig)
tp83
a(V"The Rose"
p84
VThe Rose - by Bette Midler + lyrics (zxSTzSEiZ2c)
tp85
a(V"Little Jeannie"
p86
VElton John- Little Jeannie (Wlz6mTyiMZc)
tp87
a(V"It's Still Rock and Roll to Me"
p88
VBilly Joel - It's Still Rock and Roll to Me (5eAQa4MOGkE)
tp89
a(V"Steal Away"
p90
VRobbie Dupree: Steal away (bi_WayqBVYg)
tp91
a(V"She's Out of My Life"
p92
VMichael Jackson - She's out of My Life (6DQJPL9Yuq0)
tp93
a(V"Cupid (I've Loved You for a Long Time)"
p94
VSPINNERS - Cupid I've Loved You for a Long Time  (The Very Best of The Spinners Album).wmv (zz_mziosqLQ)
tp95
a(V"Let's Get Serious"
p96
VJermaine Jackson - Let's Get Serious (FMLKb4or8yg)
tp97
a(V"Magic"
p98
VOlivia Newton-John - Magic (DnkHf069fvA)
tp99
a(V"Let Me Love You Tonight"
p100
VPure Prairie League - Let Me Love You Tonight (Y7jq1nINxjI)
tp101
a(V"Shining Star"
p102
VThe Manhattans - Shining Star (C_VpjSv_4QM)
tp103
a(V"Take Your Time (Do It Right)"
p104
VS.O.S. BAND - Take your time (Do it right) (1980) extended version (Bk-aQGJX2E4)
tp105
a(V"Tired of Toein' the Line"
p106
VRocky Burnette Tired of toein the line (bYZjIZxcB18)
tp107
a(V"Sailing"
p108
VCHRISTOPHER CROSS - SAILING (yyYhZ9HH8cI)
tp109
a(V"Emotional Rescue"
p110
VThe Rolling Stones - Emotional Rescue - OFFICIAL PROMO (9iw_BE_X9sA)
tp111
a(V"Upside Down"
p112
VUpside Down - Diana Ross (1980) (tauI0GdKcTc)
tp113
a(V"Let My Love Open the Door"
p114
VPete Townshend - Let My Love Open The Door (4FZbcoWrUsw)
tp115
a(V"More Love"
p116
VKim Carnes - More Love (EJm-kG922PI)
tp117
a(V"All Out of Love"
p118
VAll out of love  - Air Supply (With Lyrics) (yr3dJxeT4oA)
tp119
a(V"Fame"
p120
VIrene Cara - Fame 1980 (VHS 1982 Edit) (o2jh7N7Fldk)
tp121
a(V"Give Me the Night"
p122
VGeorge Benson - Give Me The Night (Official Music Video) (l_JgRtv50fs)
tp123
a(V"Lookin' for Love"
p124
VJohnny Lee - "Lookin' For Love" (upYF91cJJ2g)
tp125
a(V"Late in the Evening"
p126
VPaul Simon - Late in the Evening + lyrics (57RIlznOpDM)
tp127
a(V"Another One Bites the Dust"
p128
VQueen - Another One Bites the Dust (Official Video) (rY0WxgSXdEE)
tp129
a(V"Drivin' My Life Away"
p130
VEddie Rabbit   "Driving My Life Away" (_tvEvBUG8mY)
tp131
a(V"One in a Million You"
p132
VLarry Graham - One In A Million You (MYycDyAxgb0)
tp133
a(V"I'm Alright"
p134
VKenny Loggins - I'm Alright (1rmPckNvD3E)
tp135
a(V"Woman in Love"
p136
VBarbra Streisand - Woman in Love ( Lyrics ) (0KJ60uJZ3-Q)
tp137
a(V"Xanadu"
p138
VOlivia Newton-John & E.L.O. - Xanadu (HD 16:9) (LDxcfTm1QTc)
tp139
a(V"Real Love"
p140
VDoobie Brothers - Real Love (X_LGm1e8uFU)
tp141
a(V"He's So Shy"
p142
VThe Pointer Sisters - He's So Shy (cYIGhDUcT6s)
tp143
a(V"Lady"
p144
VLady - Kenny Rogers (ZYRfUoR9Q4Y)
tp145
a(V"The Wanderer"
p146
VDONNA SUMMER the wanderer (SsVam3J_mmo)
tp147
a(V"Never Knew Love Like This Before"
p148
VStephanie Mills-Never Knew Love Like This Before (LExCRKCS5SM)
tp149
a(V"I'm Coming Out"
p150
VDiana Ross - I'm Coming Out (zbYcte4ZEgQ)
tp151
a(V"Master Blaster (Jammin')"
p152
VStevie Wonder Master Blaster (Jammin) (V4n27JuJhXc)
tp153
a(V"(Just Like) Starting Over"
p154
VJust like starting Over, John Lennon. (Lyrics) (1HLVXrAErlU)
tp155
a(V"More Than I Can Say"
p156
VMore Than I Can Say - Leo Sayer (dGKnSdikqjw)
tp157
a(V"Dreamin'"
p158
VCliff Richard - Dreamin' (1980) (_nqrwUHIh8s)
tp159
a(V"Hungry Heart"
p160
VBruce Springsteen - Hungry Heart [HQ] - Studio Version (Lyrics) (npueY7QpxF0)
tp161
a(V"Hit Me with Your Best Shot"
p162
VPat Benatar - Hit Me With Your Best Shot lyrics (serV18MirGg)
tp163
a.