(lp1
(V"You're the First, the Last, My Everything"
p2
VBarry White - You're My First My Last My Everything (2zfxZRBm3EY)
tp3
a(V"Lucy in the Sky with Diamonds"
p4
VElton John - Lucy In The Sky With Diamonds (Ic2hlOwCif4)
tp5
a(V"Junior's Farm"
p6
V'Junior's Farm' - PaulMcCartney.com Track of the Week (5Jpc9oZynyw)
tp7
a(V"Laughter in the Rain"
p8
VNeil Sedaka - Laughter In The Rain (SsYIiY2wnyU)
tp9
a(V"Boogie On Reggae Woman"
p10
VStevie Wonder - Boogie On Reggae Woman (7YcX4lkHmcA)
tp11
a(V"Only You"
p12
VRingo Starr - Only You (And You Alone) - Lyrics (3myYHkDD39M)
tp13
a(V"Mandy"
p14
Vmandy by barry manilow lyrics (uoGcH2L68Mg)
tp15
a(V"Please Mr. Postman"
p16
VPlease Mr Postman- The Carpenters (1975) (AHfddvbKb4w)
tp17
a(V"One Man Woman/One Woman Man"
p18
V"1974" "One Man Woman, One Woman Man", Paul Anka with Odia Coates (Vinyl / HD) (ovqLK47bOJk)
tp19
a(V"Morning Side of the Mountain"
p20
VDonny & Marie Osmond - "Morning Side Of The Mountain" (nqu89BKEm6k)
tp21
a(V"Never Can Say Goodbye"
p22
VGloria Gaynor - Never can say goodbye (CCSvNZWpXaM)
tp23
a(V"Fire"
p24
VThe Ohio Players - Fire (UzGJ8OVPhZ4)
tp25
a(V"You're No Good"
p26
VLinda Ronstadt - You re No Good (dAWS8BLFbPs)
tp27
a(V"Pick Up the Pieces"
p28
VAverage White Band - Pick Up The Pieces (FnH_zwVmiuE)
tp29
a(V"Best of My Love"
p30
VEagles - The Best of My Love -HD (wvldWkENjts)
tp31
a(V"Some Kind of Wonderful"
p32
VGrand Funk Railroad - Some Kind of Wonderful (O7B5jXYRy3Q)
tp33
a(V"Black Water"
p34
VThe Doobie Brothers - Black Water (mSAqkGU2nQ4)
tp35
a(V"Lonely People"
p36
VAmerica - Lonely People (IRDnEqW1vAc)
tp37
a(V"Get Dancin'"
p38
V"Get Dancin'" by Disco-Tex and the Sex-O-Lettes (KD6PqT3LjQk)
tp39
a(V"My Eyes Adored You"
p40
VMy Eyes Adored You - Frankie Valli (Xqz9eyakGqY)
tp41
a(V"#9 Dream"
p42
VJohn Lennon - # 9 Dream (DGFvlnCq-ts)
tp43
a(V"Have You Never Been Mellow"
p44
VHave You Never Been Mellow [Lyrics] Olivia Newton-John (0bUThm4XrvE)
tp45
a(V"Nightingale"
p46
VCAROLE KING nightingale (CsvrbW5w1sg)
tp47
a(V"Lady Marmalade"
p48
V(Patti) LaBelle - Lady Marmalade (1975) HD 0815007 (t4LWIP7SAjY)
tp49
a(V"Lady"
p50
VStyx - Lady (QumxOQganfo)
tp51
a(V"Lovin' You"
p52
VMinnie Riperton - Lovin' You (Lyrics) (zLMYcqBmiX8)
tp53
a(V"Can't Get It Out of My Head"
p54
VElectric Light orchestra - Can't Get It Out Of My Head (ZrffDM3hHk8)
tp55
a(V"Express"
p56
VBT Express - Express (lutXQO3GdFo)
tp57
a(V"Don't Call Us, We'll Call You"
p58
Vsugarloaf - don't call us, we'll call you (i4njPe2_rho)
tp59
a(V"No No Song" / "Snookeroo"
p60
VRingo Starr-Snookeroo (kyLfq9bmTUs)
tp61
a(V"You Are So Beautiful"
p62
VJoe Cocker- You Are So Beautiful Lyrics (IpMkdPDthT8)
tp63
a(V"Poetry Man"
p64
VPoetry Man - Phoebe Snow (1974) (fLsSSfqTWXE)
tp65
a(V"Philadelphia Freedom"
p66
VElton John - Philadelphia Freedom (9jiUlJuX-O0)
tp67
a(V"(Hey Won't You Play) Another Somebody Done Somebody Wrong Song"
p68
VB.J. Thomas - ANOTHER SOMEBODY DONE SOMEBODY WRONG SONG ( sin video ) (8zqOU_slcgY)
tp69
a(V"Chevy Van"
p70
VSAMMY JOHNS- "CHEVY VAN"  (W/LYRICS) (imN48YKDHsQ)
tp71
a(V"What Am I Gonna Do with You"
p72
VBarry White- What am I Gonna Do With You (with lyrics) (PG2m26MJUcY)
tp73
a(V"Once You Get Started"
p74
VRufus Featuring Chaka Khan - Once You Get Started (ovkjM-ELkoE)
tp75
a(V"He Don't Love You (Like I Love You)"
p76
VTony Orlando & Dawn - He Don't Love You (Like I Love You).wmv (oLfsUJ4-XEE)
tp77
a(V"Before the Next Teardrop Falls"
p78
VBefore the Next Teardrop Falls - Freddy Fender (6PDsPmDpFSw)
tp79
a(V"Supernatural Thing (Part 1)"
p80
VBen E. King \u200e- Supernatural Thing (Part 1) (HS4LR2LxR3s)
tp81
a(V"Emma"
p82
VHot Chocolate - Emma (IFYOHrwi-W8)
tp83
a(V"Walking in Rhythm"
p84
VThe Blackbyrds ~ Walking In Rhythm (oeyL1yVY_6Q)
tp85
a(V"Shining Star"
p86
VEarth Wind and Fire- Shining Star (vwc0AW67CmA)
tp87
a(V"Jackie Blue"
p88
VOZARK MOUNTAIN DAREDEVILS- " JACKIE BLUE " (ARKNTDuNmk8)
tp89
a(V"Only Yesterday"
p90
VCarpenters - Only Yesterday (evETS8_WFGE)
tp91
a(V"Long Tall Glasses"
p92
Vleo Sayer -Long Tall Glasses (_P7EkR8UjFs)
tp93
a(V"I Don't Like To Sleep Alone"
p94
VI don't like to sleep alone by Paul Anka & Odia Coates (RNmoHpUP-rY)
tp95
a(V"Thank God I'm a Country Boy"
p96
VJohn Denver- Thank God I'm a Country Boy (aRgL92K5zuE)
tp97
a(V"How Long"
p98
VAce - How Long (hZ2ZNCip9YM)
tp99
a(V"Bad Time"
p100
VGrand Funk Railroad - Bad Time (lsDMxWgPQcg)
tp101
a(V"Old Days"
p102
VChicago Old Days (kRTMWzVoT_U)
tp103
a(V"Sister Golden Hair"
p104
VAmerica - Sister Golden Hair (HQ Original) (XIycEe59Auc)
tp105
a(V"When Will I Be Loved"
p106
VLinda Ronstadt - When Will I Be Loved (9iBgTqz_-vY)
tp107
a(V"I'm Not Lisa"
p108
VJESSI COLTER- I'M NOT LISA (ZOgTVJOdFVU)
tp109
a(V"Love Won't Let Me Wait"
p110
VMajor Harris - Love Won't Let Me Wait (JSutwr3_F_E)
tp111
a(V"Love Will Keep Us Together"
p112
VCAPTAIN & TENNILLE \u2756 love will keep us together (official video) (_QNEf9oGw8o)
tp113
a(V"Get Down, Get Down (Get on the Floor)"
p114
VJOE SIMON - GET DOWN , GET DOWN.wmv (QGUIUe8YvkM)
tp115
a(V"Listen to What the Man Said"
p116
VSir Paul McCartney & Wings - Listen To What The Man Said [Remastered] [HD] (kRT3V-q_gBI)
tp117
a(V"The Hustle"
p118
VThe Hustle - Van McCoy and the Soul City Symphony (Zh7STI5GWZQ)
tp119
a(V"Wildfire"
p120
VWildfire- Michael Martin Murphey (Pc3OnSQc48s)
tp121
a(V"Cut the Cake"
p122
VAverage White Band - Cut The Cake (75bYDYLSP0o)
tp123
a(V"Magic"
p124
VPilot - Magic (1975 - HD) (MzlK0OGpIRs)
tp125
a(V"One of These Nights"
p126
VThe Eagles -  One Of These Nights (TTgk1qEJn_4)
tp127
a(V"Please Mr. Please"
p128
VPlease Mr Please Olivia Newton John (O6JJjfnNwsY)
tp129
a(V"I'm Not in Love"
p130
VI'M NOT IN LOVE - 10cc (2rgepWg4rzw)
tp131
a(V"Swearin' to God"
p132
VFrankie Valli - Swearin' To God - 1975 (4p0YeaetFT4)
tp133
a(V"Jive Talkin'"
p134
VBee Gees- Jive Talkin' (xVjITlgqlHo)
tp135
a(V"Rockin' Chair"
p136
VGWEN McCRAE - Rockin Chair 1975 (The Rockin Chair Album) (KSRXuKa5PIs)
tp137
a(V"Someone Saved My Life Tonight"
p138
VSomeone Saved My Life Tonight - Elton John Lyrics [on screen] (VZRRd4bW91c)
tp139
a(V"Midnight Blue"
p140
VMidnight Blue by Melissa Manchester (WBtrLDAtOVA)
tp141
a(V"Dynomite"
p142
VTony Camillo's Bazuka - Dynomite [1975] (u6foJZkVgDQ)
tp143
a(V"Rhinestone Cowboy"
p144
VGlen Campbell - Rhinestone Cowboy (8kAU3B9Pi_U)
tp145
a(V"How Sweet It Is (To Be Loved by You)"
p146
VHow Sweet It Is (To Be Loved By You) _ JAMES TAYLOR (kSQdRz-HlJw)
tp147
a(V"Why Can't We Be Friends?"
p148
VWAR - WHY CAN'T WE BE FRIENDS (5DmYLrxR0Y8)
tp149
a(V"The Rockford Files Theme"
p150
VMike Post/Peter Carpenter - The Rockford Files TV Theme (HD) (QT0jylvQHUs)
tp151
a(V"Fallin' in Love"
p152
VHamilton, Joe Frank & Reynolds - Fallin' In Love (K0sTpZja6JQ)
tp153
a(V"Get Down Tonight"
p154
VKC & The Sunshine Band - Get Down Tonight (HQ with lyrics) (LHEsE9yN2CY)
tp155
a(V"At Seventeen"
p156
VJanis Ian - At Seventeen 17 + Lyrics (lhFnOAwr96o)
tp157
a(V"Fight the Power (Part 1)"
p158
VThe Isley Brothers - Fight The Power (Part 1 & 2) (1975) (wO2ebiuV3hU)
tp159
a(V"Fame"
p160
VDavid Bowie - Fame (J-_30HA7rec)
tp161
a(V"Could It Be Magic"
p162
VCould It Be Magic _ BARRY MANILOW (vDEynk7SwxE)
tp163
a(V"I'm Sorry" / "Calypso"
p164
VJohn Denver - I'm Sorry (G_bdMecxias)
tp165
a(V"Run Joey Run"
p166
VRun Joey Run ~ David Geddes (cUVZsu36SW4)
tp167
a(V"Wasted Days and Wasted Nights"
p168
VWasted Days & Wasted Nights - Freddy Fender (TUVgkXVDkBA)
tp169
a(V"Feel Like Makin' Love"
p170
VBad Company - Feel Like Making Love (SEuKkcX1uKA)
tp171
a(V"The Ballroom Blitz"
p172
VSWEET THE BALLROOM BLITZ HD (JzKAJRux4ss)
tp173
a(V"Bad Blood"
p174
VNeil Sedaka & Elton John - Bad Blood (1975) (YTTVx--i3m0)
tp175
a(V"Mr. Jaws"
p176
VDickie Goodman - Mr. Jaws (QIzkq0VC_A8)
tp177
a(V"Dance with Me"
p178
VOrleans  - Dance With Me (_-IXJLgRnvs)
tp179
a(V"Ain't No Way to Treat a Lady"
p180
VHELEN REDDY - "Ain't No Way To Treat A Lady" (1975) (XoaRbhlWji4)
tp181
a(V"Rocky"
p182
VAustin Roberts - Rocky (flOcEFXrsTQ)
tp183
a(V"Lyin' Eyes"
p184
VEAGLES ~ "LYIN' EYES"    1977 (WeNBspJGVko)
tp185
a(V"Miracles"
p186
VJefferson Starship - Miracles (xKBttQmhDBw)
tp187
a(V"Who Loves You"
p188
VWho Loves You ~ Frankie Valli and The Four Seasons Music Video (s8MNLUpJDZk)
tp189
a(V"They Just Can't Stop It (Games People Play)"
p190
VSPINNERS-They Just Can't Stop It (The Games People Play)(Very Best of The Spinners Album) (K_Y7Dv717xs)
tp191
a(V"Feelings"
p192
VFeelings - Morris Albert (CyBcHUe4WeQ)
tp193
a(V"Island Girl"
p194
VElton John - Island Girl (1975) With Lyrics! (IdUpUu9-Oko)
tp195
a(V"It Only Takes a Minute"
p196
VTAVARES - It Only Takes A Minute (BxtPbCYk-38)
tp197
a(V"Heat Wave"
p198
VLinda Ronstadt - Heat Wave (jlUH40ZEYZo)
tp199
a(V"This Will Be"
p200
VNatalie Cole - This Will Be (An Everlasting Love) (lswB6q2t_6c)
tp201
a(V"The Way I Want to Touch You"
p202
VCaptain & Tennille ~ The Way I Want To Touch You (jbs66c4bS40)
tp203
a(V"That's the Way (I Like It)"
p204
VKC & The Sunshine Band - That's The Way (I Like It) [HQ with lyrics] (q3svW8PM_jc)
tp205
a(V"Low Rider"
p206
VWar - Low Rider (HQ Audio) (-xTGrfs5TXM)
tp207
a(V"Fly, Robin, Fly"
p208
VSilver Convention - Fly, Robin, Fly (1975) HD 0815007 (oUPdG4DA42g)
tp209
a(V"Let's Do It Again"
p210
VStaple Singers - Let's Do It Again (NIS4P8xbPtg)
tp211
a(V"Sky High"
p212
VJigsaw - Sky High -- [original STEREO] (mudlXF3MA8Q)
tp213
a(V"Nights on Broadway"
p214
VThe Bee Gees - Nights on Broadway (1975) (5wRM-t7wvF0)
tp215
a(V"My Little Town"
p216
VSimon & Garfunkel - My Little Town (1jg8jf9oTjw)
tp217
a.