(lp1
(V"Love on the Rocks"
p2
VNeil Diamond - Love On The Rocks (UbvxP08FlMs)
tp3
a(V"Guilty"
p4
VBarbra Streisand & Barry Gibb - Guilty (Live, where, when ?) (Yo17H8Z6CfA)
tp5
a(V"Every Woman in the World"
p6
VEvery Woman In The World - Air Supply [Lyrics] (s_JNrOGAH0Q)
tp7
a(V"The Tide Is High"
p8
VBlondie - The Tide Is High (ppYgrdJ0pWk)
tp9
a(V"Tell It Like It Is"
p10
VHeart - Tell It Like It Is (u0O7htEkmzM)
tp11
a(V"Passion"
p12
VRod Stewart - Passion (video original) (Mdq0_zZOFLg)
tp13
a(V"De Do Do Do, De Da Da Da"
p14
VThe Police - De Do Do Do, De Da Da Da (7v2GDbEmjGE)
tp15
a(V"I Love a Rainy Night"
p16
VEddie Rabbitt - I Love A Rainy Night (ebt0BR5wHYs)
tp17
a(V"It's My Turn"
p18
VDIANA ROSS...It's My Turn (_zMQKoprWA4)
tp19
a(V"Celebration"
p20
VKool & The Gang - Celebration (3GwjfUFyY6M)
tp21
a(V"9 to 5"
p22
V9 to 5 - Dolly Parton with lyrics (T-gqMpZroy8)
tp23
a(V"I Made It Through the Rain"
p24
Vi made it through the rain,by BarryManilow (wlQPnNy6JR0)
tp25
a(V"Woman"
p26
VJohn Lennon - Woman (f-x1FsvOAz4)
tp27
a(V"Givin' It Up for Your Love"
p28
VDelbert McClinton - Giving It Up For Your Love - Billboard Top 100 of 1981 (nLmvDNMoBcw)
tp29
a(V"Keep On Loving You"
p30
VREO Speedwagon - Keep on Loving You (wJzNZ1c5C9c)
tp31
a(V"Hey Nineteen"
p32
VSteely Dan - Hey Nineteen - HQ Audio (5J7IrPVLc4U)
tp33
a(V"The Best of Times"
p34
VStyx - The Best Of Times (d-seebMbckw)
tp35
a(V"Same Old Lang Syne"
p36
VDan Fogelberg 1980 Same Old Lang Syne (cmVXYOJzAJM)
tp37
a(V"The Winner Takes It All"
p38
VAbba - The Winner Takes It All (92cwKCU8Z5c)
tp39
a(V"Crying"
p40
VCrying - Don McLean (XjMNOouIb0k)
tp41
a(V"Hello Again"
p42
VHello Again  Neil Diamond (KBQVKzNpW4s)
tp43
a(V"Rapture"
p44
VBlondie - Rapture (pHCdS7O248g)
tp45
a(V"What Kind of Fool"
p46
VBarbra Streisand & Barry Gibb - 1986 - What kind of fool.mpg (E7Zqw8tAyes)
tp47
a(V"Kiss on My List"
p48
VHall & Oates - Kiss On My List (Lyrics) (AYUdldNzLNA)
tp49
a(V"Just the Two of Us"
p50
VBill Withers - Just the two of us (jEy6MGu3bIA)
tp51
a(V"While You See a Chance"
p52
VSteve Winwood - While You See A Chance - 1980 (a-jsABHcw40)
tp53
a(V"Morning Train (Nine to Five)"
p54
VSheena Easton - Morning Train (Nine To Five) (bgL20i3u6sg)
tp55
a(V"Don't Stand So Close to Me"
p56
VThe Police - Don't Stand So Close To Me (KNIZofPB8ZM)
tp57
a(V"Being with You"
p58
VSmokey Robinson - Being With You (0P2a6aLDkkM)
tp59
a(V"Angel of the Morning"
p60
VJuice Newton - Angel of the Morning (itKaF6Y_81c)
tp61
a(V"Bette Davis Eyes"
p62
VKim Carnes - Bette Davis Eyes (EPOIS5taqA8)
tp63
a(V"Living Inside Myself"
p64
VGINO VANELLI - LIVING INSIDE MYSELF (wvN_lPOz73A)
tp65
a(V"I Can't Stand It"
p66
VEric Clapton - I Can't Stand It (Wa8s6RJwAxU)
tp67
a(V"Sukiyaki"
p68
VA taste of honey - Sukiyaki (classic) 1981 (xqFkUNqBwMw)
tp69
a(V"Take It on the Run"
p70
VREO Speedwagon Take It On The Run lyrics (UgincTSCkYQ)
tp71
a(V"Too Much Time on My Hands"
p72
VStyx - Too Much Time On My Hands (5XcKBmdfpWs)
tp73
a(V"Stars on 45 (Medley)"
p74
VStars On 45 - Stars On 45 (Video) (5bGQ1-Gmoso)
tp75
a(V"Watching the Wheels"
p76
VJohn Lennon - Watching The Wheels (qp9dc9im3-M)
tp77
a(V"A Woman Needs Love (Just Like You Do)"
p78
VRay Parker, Jr., Raydio - A Woman Needs Love (Just Like You Do) (QvBmtqyaijI)
tp79
a(V"America"
p80
VNeil Diamond's America (wTSLRbm8L9E)
tp81
a(V"Sweetheart"
p82
VSweetheart (Cs5ZPrC8uMs)
tp83
a(V"All Those Years Ago"
p84
VGeorge Harrison's "All those Years Ago" (85Smw33PKJA)
tp85
a(V"The One That You Love"
p86
VThe One That You Love (Lyrics) - AIR SUPPLY (rgR-2TOBBqY)
tp87
a(V"Jessie's Girl"
p88
VRick Springfield - Jessie's Girl (qYkbTyHXwbs)
tp89
a(V"You Make My Dreams"
p90
VHall & Oates ~ You Make My Dreams Come True (X_I4wtNPv5w)
tp91
a(V"Elvira"
p92
VOak Ridge Boys -  Elvira (-9pIZh1jr-w)
tp93
a(V"Believe It or Not (Theme from The Greatest American Hero)"
p94
VGreatest American Hero - Believe It Or Not (JsWgG5v7A3A)
tp95
a(V"I Don't Need You"
p96
VKenny Rogers - I don't need you (CIA_91Drpdw)
tp97
a(V"Slow Hand"
p98
VThe Pointer Sisters - Slow Hand (pnVOt2LK2Gg)
tp99
a(V"The Boy from New York City"
p100
VMANHATTAN TRANSFER - "The boy from New York City" (5ZF6m659-z0)
tp101
a(V"Hearts"
p102
VMarty Balin - Hearts (dIF74lH4KPM)
tp103
a(V"Queen of Hearts"
p104
VJuice Newton - Queen Of Hearts (P0DK-0fIKCw)
tp105
a(V"Endless Love"
p106
VENDLESS LOVE Lionel Ritchie duet w  Diana Ross w  lyrics (JM_R1R28kLM)
tp107
a(V"(There's) No Gettin' Over Me"
p108
VRonnie Milsap - (There's) No Gettin' Over Me (oXe5ETmifkM)
tp109
a(V"Stop Draggin' My Heart Around"
p110
VStevie Nicks & Tom Petty  - Stop Draggin' My Heart Around (6UD0c58nNCQ)
tp111
a(V"Lady (You Bring Me Up)"
p112
VThe Commodores:Lady(You Bring Me Up) (gtvjkppN9lA)
tp113
a(V"Urgent"
p114
VUrgent - Foreigner (JA6id4--BDg)
tp115
a(V"Who's Crying Now"
p116
VJourney - Who's Crying Now (HQ with lyrics) (9meo3vazXcw)
tp117
a(V"Arthur's Theme (Best That You Can Do)"
p118
VChristopher Cross - Arthur's Theme (Best that you can do) (gnBPHWk5FQ8)
tp119
a(V"Step by Step"
p120
VEddie Rabbitt - Step By Step (HD) (01-K5WAHlmc)
tp121
a(V"Start Me Up"
p122
VRolling Stones-start me up (ZzlgJ-SfKYE)
tp123
a(V"Hold On Tight"
p124
VElectric Light Orchestra - Hold on tight (Lyrics) (UKQsv1Q3ZNY)
tp125
a(V"Private Eyes"
p126
VDaryl Hall & John Oates - Private Eyes (JsntlJZ9h1U)
tp127
a(V"For Your Eyes Only"
p128
VSheena Easton - For Your Eyes Only (HQ) (fN1WBgS9u_E)
tp129
a(V"Night Owls"
p130
VLittle River Band - Greatest Hits - The Night Owls (m5R40czQ-rI)
tp131
a(V"Hard to Say"
p132
VDan Fogelberg- Hard To Say Lyrics (_r1oEuyQ-cw)
tp133
a(V"I've Done Everything for You"
p134
VRick Springfield, "I've Done Everything for You" (zFJUmiDtiok)
tp135
a(V"Tryin' To Live My Life Without You"
p136
VBob Seger - Tryin' to Live My Life Without You (b8fvc-aNutg)
tp137
a(V"Waiting for a Girl Like You"
p138
VForeigner - Waiting for a Girl Like You [Lyrics] (Wln6NX0V4AQ)
tp139
a(V"Here I Am"
p140
VHere I Am-Air Supply (GVgtsPPuBXk)
tp141
a(V"Physical"
p142
VOlivia Newton-John - Physical (vWz9VN40nCA)
tp143
a(V"Hill Street Blues Theme"
p144
VMike Post ft. Larry Carlton - Theme From Hill Street Blues (1981) (tSOeRqNtQtM)
tp145
a(V"Every Little Thing She Does Is Magic"
p146
VThe Police - Every Little Thing She Does Is Magic (aENX1Sf3fgQ)
tp147
a(V"Oh No"
p148
V"The Last American Virgin" Featuring, THE COMMODORES  "OH NO" (N_xJOl02sf0)
tp149
a(V"Why Do Fools Fall in Love"
p150
VDiana Ross Why Do Fools Fall In Love (38L7S-L9vXg)
tp151
a(V"Let's Groove"
p152
VEarth, Wind & Fire - Let's Groove (Lrle0x_DHBM)
tp153
a(V"Young Turks"
p154
VRod Stewart - Young Turks (Official Video) (zQ41hqlV0Kk)
tp155
a(V"Don't Stop Believin'"
p156
VJourney - Don't Stop Believin' (Live in Houston) (VcjzHMhBtf0)
tp157
a.