(lp1
(VSpider-Man 3 movie trailer
p2
VSpiderman 3 2007 Official Trailer 3  HD (1bzqHbTD64w)
tp3
a(VTransformers movie trailer
p4
VTransformers Movie Trailer Full HD 1080p (ejxQOv53lXs)
tp5
a(VNo Country for Old Men movie trailer
p6
VNo Country For Old Men (2007) Official Trailer - Tommy Lee Jones, Javier Bardem Movie HD (38A__WT3-o0)
tp7
a(VAtonement movie trailer
p8
VAtonement (2007) - Official Trailer (FWPZDi723Eo)
tp9
a(VStardust movie trailer
p10
VStardust - Trailer (VfYBKDyF-Dk)
tp11
a(VSuperbad movie trailer
p12
VSuperBad trailer (MNpoTxeydiY)
tp13
a(VInto the Wild movie trailer
p14
VInto The Wild - Trailer (g7ArZ7VD-QQ)
tp15
a(VHairspray movie trailer
p16
VHairspray (2007) Official Movie Trailer (1080P HD) (iJ53mRO80c0)
tp17
a(VI Am Legend movie trailer
p18
VI Am Legend (2007) - Official Movie Trailer (ewpYq9rgg3w)
tp19
a(VHarry Potter and the Order of the Phoenix movie trailer
p20
VHarry Potter and the Order of the Phoenix (2007) Official Trailer - Daniel Radcliffe Movie HD (y6ZW7KXaXYk)
tp21
a(VJuno movie trailer
p22
VJUNO Trailer (K0SKf0K3bxg)
tp23
a(VThere Will Be Blood movie trailer
p24
VThere Will be Blood Movie Trailer (f3THVbr4hlY)
tp25
a(VTeeth movie trailer
p26
VTeeth (2007) - Movie Trailer (J-qd-k0Vg7s)
tp27
a(VRatatouille movie trailer
p28
VRatatouille - Original 2007 Trailer (KQUpZqshj7M)
tp29
a(VHot Fuzz movie trailer
p30
VHot Fuzz Official Trailer #1 - (2007) HD (ayTnvVpj9t4)
tp31
a(VZodiac movie trailer
p32
VZodiac - Trailer (q6q_MfcDEEE)
tp33
a(VThe Mist movie trailer
p34
VFinal Wolves of the mist Trailer(captions work) Info on website Click link (ApHFTDFhi80)
tp35
a(VGone Baby Gone movie trailer
p36
VGone Baby Gone Trailer [HD] (itPTyd3DkEw)
tp37
a(VEnchanted movie trailer
p38
VEnchanted Movie Trailer (QNsMZuYim4U)
tp39
a(VShooter movie trailer
p40
VShooter Movie Trailer (natRMn81kiY)
tp41
a(VThe Bourne Ultimatum movie trailer
p42
VThe Bourne Ultimatum Official Trailer #1 - David Strathairn Movie (2007) HD (ZT2ZxjUjSo0)
tp43
a(VPirates of the Caribbean: At World's End movie trailer
p44
VPirates of the Caribbean: At World's End (2007) Official Trailer #1 - Johnny Depp Movie HD (HKSZtp_OGHY)
tp45
a(VKnocked Up movie trailer
p46
VKnocked Up Official Trailer #1 - Paul Rudd Movie (2007) HD (cv01Mcdf8rI)
tp47
a(VSweeney Todd: The Demon Barber of Fleet Street movie trailer
p48
VSweeney Todd: The Demon Barber of Fleet Street - Trailer (_4R72KROZ20)
tp49
a(V1408 movie trailer
p50
V1408 (2007) - HD Trailer (WIASqPZqnhs)
tp51
a(VFantastic 4: Rise of the Silver Surfer movie trailer
p52
VFantastic Four: Rise of the Silver Surfer - Full Trailer #2 (XHA-5BnlNs8)
tp53
a(VDeath Proof movie trailer
p54
VDeath Proof - trailer (sJas3Z7MAlY)
tp55
a(VEpic Movie movie trailer
p56
VEpic Movie - Trailer [2007] (7Ma8sYIhY80)
tp57
a(VHitman movie trailer
p58
VHitman: Agent 47 Official Trailer #1 (2015) - Rupert Friend, Zachary Quinto Movie HD (alQlJDRnQkE)
tp59
a(VP.S. I Love You movie trailer
p60
V"P.S. I Love You" Movie Trailer (3GNxdc-wlw4)
tp61
a(VAmerican Gangster movie trailer
p62
VAmerican Gangster Official Trailer #1 - Denzel Washington, Russell Crowe Movie (2007) HD (BV_nssS6Zkg)
tp63
a(VSunshine movie trailer
p64
VSunshine - 2007 HD (Extended) Movie Trailer (r8BSlqHAhuY)
tp65
a(VAlvin and the Chipmunks movie trailer
p66
VAlvin and the Chipmunks Trailer (TL-9QAZN_zM)
tp67
a(VBlades of Glory movie trailer
p68
VBlades of Glory - Trailer (YFE-6XlAAmE)
tp69
a(VBridge to Terabithia movie trailer
p70
VBridge To Terabithia - First Official Full Trailer (3SvqEIKP4t8)
tp71
a(VNorbit movie trailer
p72
VNorbit Trailer (AD8GaKpTYQM)
tp73
a(VLive Free or Die Hard movie trailer
p74
V"Live Free Or Die Hard" - Movie Trailer (J-Rlt_CIs4Q)
tp75
a(VGrindhouse movie trailer
p76
VGrindhouse.TRAILER.2007 (9ZTIM8zJVYI)
tp77
a(VHalloween movie trailer
p78
VHalloween (Movie Trailer) (_u8blffLgtc)
tp79
a(VThe Man from Earth movie trailer
p80
VThe Man from Earth - Movie Trailer (9mOIxyRTY5I)
tp81
a(V28 Weeks Later movie trailer
p82
V28 Weeks Later Trailer Hd (vWQSMrtPiYs)
tp83
a(VDisturbia movie trailer
p84
VDisturbia (2007) - trailer (hkcqaUHUDKA)
tp85
a(VPlanet Terror movie trailer
p86
VPlanet Terror International Trailer (nBi00ZiqIv4)
tp87
a(VGhost Rider movie trailer
p88
VGHOST RIDER (2007) Official Movie Trailer [1080p] (L-WTmTOi0zU)
tp89
a(VThe Assassination of Jesse James by the Coward Robert Ford movie trailer
p90
VThe Assassination of Jesse James by the Coward Robert Ford (2007) Official Trailer #1 HD (6RwAWZtK5Uw)
tp91
a(VOcean's Thirteen movie trailer
p92
VOCEAN'S THIRTEEN (2007) - Official Movie Trailer (EAVp5tZKgYw)
tp93
a(VIn the Land of Women movie trailer
p94
VIn the Land of Women - Movie Trailer (0s_t35qaHew)
tp95
a(VAcross the Universe movie trailer
p96
VAcross The Universe - Movie Trailer (43aLbo-Y_W0)
tp97
a(VGood Luck Chuck movie trailer
p98
VGood Luck Chuck (2007) Official Trailer - Dane Cook Jessica Alba Movie HD (Mfd-BbBsGM4)
tp99
a(VHostel: Part II movie trailer
p100
VHostel Part II 2007 720p BluRay (dpsMtFPFbBo)
tp101
a.