(lp1
(VGrandma's Boy movie trailer
p2
Vgrandmas boy trailer (sEA_g1UK64k)
tp3
a(VStep Up movie trailer
p4
VSTEP UP REVOLUTION - Official Trailer (aEAt9eTi72w)
tp5
a(VThe Departed movie trailer
p6
VThe Departed (2005) Official Trailer - Matt Damon, Jack Nicholson Movie HD (iojhqm0JTW4)
tp7
a(VThe Prestige movie trailer
p8
VThe Prestige Official Trailer (2006) (6VaCFcNGTHo)
tp9
a(V300 movie trailer
p10
V300 (2006) Official Trailer #1 - Gerard Butler, Lena Headey Action Movie (ZJ6yq-oVKPc)
tp11
a(VCasino Royale movie trailer
p12
VCasino Royale Official Trailer (2006) James Bond Movie HD (36mnx8dBbGE)
tp13
a(VThe Devil Wears Prada movie trailer
p14
VThe Devil Wears Prada Official Trailer (LG0xYJJbko8)
tp15
a(VShe's the Man movie trailer
p16
VShe's The Man Trailer (D4OhwrMidSU)
tp17
a(VSuperman Returns movie trailer
p18
VSuperman Returns (2006) Official Trailer #1 - Superhero Movie HD (bRqAUqAFhNw)
tp19
a(VRocky Balboa movie trailer
p20
VRocky Balboa Official Trailer #1 - Sylvester Stallone, Burt Young Movie (2006) HD (8tab8fK2_3w)
tp21
a(VCars movie trailer
p22
VCARS 2 movie trailer official 2011 (VophA5oity4)
tp23
a(VAccepted movie trailer
p24
VAccepted (2006) Official Trailer #1 - Justin Long Movie HD (5nrCh2we0Gw)
tp25
a(VNight at the Museum movie trailer
p26
VNight at the Museum: Secret of the Tomb Official Trailer #1 (2014) - Ben Stiller Movie HD (KMKk7Dn__-Y)
tp27
a(VPirates of the Caribbean: Dead Man's Chest movie trailer
p28
VPirates of the Caribbean: Dead Man's Chest (2006) - Trailer (iPKbf7H8qC8)
tp29
a(VLittle Miss Sunshine movie trailer
p30
VLittle Miss Sunshine - Official Trailer [HD] (wvwVkllXT80)
tp31
a(VX-Men: The Last Stand movie trailer
p32
VX-Men: The Last Stand (2006) - Movie Trailer [HD] (dv-7FY5gm0w)
tp33
a(VThe Fast and the Furious: Tokyo Drift movie trailer
p34
VThe Fast and the Furious: Tokyo Drift (1/12) Movie CLIP - Pre-race Tussle (2006) HD (s-EheX9m-dE)
tp35
a(VMission: Impossible III movie trailer
p36
VMission: Impossible III - Movie Trailer (f-dNceDLVFE)
tp37
a(VPan's Labyrinth movie trailer
p38
VPans Labyrinth - Official Movie Trailer (4Evmr2ZCjWc)
tp39
a(VJohn Tucker Must Die movie trailer
p40
VJohn Tucker Must Die - Movie Trailer (uEnLySS2Op8)
tp41
a(VUnderworld: Evolution movie trailer
p42
VUnderworld Evolution Trailer [HD] (mQ8c4bGFmQc)
tp43
a(VEragon movie trailer
p44
VEragon (Trailer 2006) (dZRHO0d9Nao)
tp45
a(VTalladega Nights: The Ballad of Ricky Bobby movie trailer
p46
VTalladega Nights: The Ballad Of Ricky Bobby - Trailer (-zPcMma_C7A)
tp47
a(VIdiocracy movie trailer
p48
VIdiocracy - Trailer (BBvIweCIgwk)
tp49
a(VInside Man movie trailer
p50
VInside Man Official Trailer #1 - Christopher Plummer Movie (2006) HD (FSH-dbbiroI)
tp51
a(VThe Da Vinci Code movie trailer
p52
VThe Da Vinci Code - Official Trailer 1 [2006] [720p HD] (zMba3fckhuQ)
tp53
a(VThe Pursuit of Happyness movie trailer
p54
VThe Pursuit Of Happyness Trailer HQ (doLdmYhpNyc)
tp55
a(VBabel movie trailer
p56
VBabel - Trailer (gzrHrTVaqJs)
tp57
a(VThe Fountain movie trailer
p58
VThe Fountain movie (trailer) (hA2IpUTZkls)
tp59
a(VThe Lake House movie trailer
p60
VThe Lake House - Trailer HD (V02lqEpbk2Y)
tp61
a(VStick It movie trailer
p62
VStick It - Movie Trailer (wAln2v-yDgc)
tp63
a(VChildren of Men movie trailer
p64
VChildren of Men Official Trailer #1 - Julianne Moore, Clive Owen Movie (2006) HD (2VT2apoX90o)
tp65
a(VSilent Hill movie trailer
p66
VSilent Hill movie trailer (f5mT5LhbRJw)
tp67
a(VWorld Trade Center movie trailer
p68
VTrailer Of The Movie : World Trade Center (yoVTupwbQ-s)
tp69
a(VThe Illusionist movie trailer
p70
VTHE ILLUSIONIST Trailer Englisch HQ (M7nH9QI9LmU)
tp71
a(VThe Break-Up movie trailer
p72
V'The Breakup Playlist' Cinema Trailer (ywgS8SG9hx8)
tp73
a(VWe Are Marshall movie trailer
p74
VWe Are Marshall (2006) - Official Trailer - Matthew McConaughey Movie (YU4QBR-V79I)
tp75
a(VMarie Antoinette movie trailer
p76
VMarie Antoinette Trailer (BuByY-DnGYo)
tp77
a(VClick movie trailer
p78
V21 and Over Trailer 2013 Movie - Official [HD] (Bc9vHeGNTY0)
tp79
a(VApocalypto movie trailer
p80
VApocalypto - HD (Trailer) (ngWBddVNVZs)
tp81
a(VThe Fall movie trailer
p82
VThe Fall Trailer (IwsYyRc9j4g)
tp83
a(VPerfume: The Story of a Murderer movie trailer
p84
VPerfume: The Story of a Murderer - Trailer (zutiIw_2e2g)
tp85
a(VMiami Vice movie trailer
p86
VMiami Vice (2006) Official Trailer #1 - Jamie Foxx Movie HD (6WCKJ7KaIZY)
tp87
a(VBlood Diamond movie trailer
p88
VBlood Diamond Official Trailer #1 - (2006) HD (yknIZsvQjG4)
tp89
a(VDeja Vu movie trailer
p90
VDeja Vu - Movie Trailer (eIvS7bfCGY0)
tp91
a(VThe Hills Have Eyes movie trailer
p92
VThe Hills Have Eyes.TRAILER.2006 (O76m3kpgPTQ)
tp93
a(VThe Holiday movie trailer
p94
VThe Holiday Movie Trailer (JGBl5FxOrUQ)
tp95
a(VLady in the Water movie trailer
p96
VLady in the Water (2006) - Trailer (jreddFmavCI)
tp97
a(VAlpha Dog movie trailer
p98
VAlpha Dog Official Trailer #1 - Bruce Willis, Justin Timberlake Movie (2006) HD (VPWjDJmbrak)
tp99
a(VEmployee of the Month movie trailer
p100
VEmployee of the Month (2006) Official Trailer #1 - Jessica Simpson Movie HD (v8HrbX0hzX8)
tp101
a.