(lp1
(VHanging by a Moment
p2
VLifehouse-Hanging By A Moment (lyrics) (a4_woZ-LUvM)
tp3
a(VFallin'
p4
VAlicia Keys - Fallin' (Urdlvw0SSEc)
tp5
a(VAll for You
p6
VJanet Jackson All For You Lyrics (nokGk8h5YDU)
tp7
a(VDrops of Jupiter (Tell Me)
p8
VTrain - Drops of Jupiter (Official Video) (7Xf-Lesrkuc)
tp9
a(VI'm Real
p10
VJennifer Lopez - I'm Real (Remix) ft. Ja Rule (Sjx9oSJDAVQ)
tp11
a(VIf You're Gone
p12
VMatchbox Twenty - If You're Gone [OFFICIAL VIDEO] (clKAdQnwJ7A)
tp13
a(VLet Me Blow Ya Mind
p14
VEve - Let Me Blow Ya Mind ft. Gwen Stefani (Wt88GMJmVk0)
tp15
a(VThank You
p16
VDido - Thank You (1TO48Cnl66w)
tp17
a(VAgain
p18
VLenny Kravitz - Again (eW2qlKa6oHw)
tp19
a(VIndependent Women
p20
VDestiny's Child - Independent Women, Pt. I (0lPQZni7I18)
tp21
a(VHit 'Em Up Style (Oops!)
p22
VBlu Cantrell - Hit 'Em Up Style (Oops!) (LMOKlXfXn50)
tp23
a(VIt Wasn't Me
p24
VIt Wasn't Me, Shaggy ft. Rikrok [lyrics] (Vn6eMODM1zY)
tp25
a(VStutter
p26
VStutter- Joe ft Mystikal with lyrics (4faCJ0igxbs)
tp27
a(VIt's Been Awhile
p28
VStaind - It's Been Awhile (Video) (araU0fZj6oQ)
tp29
a(VU Remind Me
p30
VUsher - U Remind Me [Lyrics Video] (dc4Xz4Afw5k)
tp31
a(VWhere the Party At
p32
VJagged Edge featuring Nelly - Where The Party At ft. Nelly (9UCY_U4QwqI)
tp33
a(VAngel
p34
VShaggy - Angel ft. Rayvon (XWJrPzAUzAs)
tp35
a(VRide wit Me
p36
VRide Wit Me - Nelly ft. City Spud w/ lyrics (zaNcfKz6DeY)
tp37
a(VFollow Me
p38
VFollow Me Uncle Kracker Lyrics.wmv (yO9HPRU9AJo)
tp39
a(VPeaches & Cream
p40
V112 - Peaches & Cream [Explicit] (07sz_7s9LUs)
tp41
a(VDrive
p42
VIncubus - Drive (fgT9zGkiLig)
tp43
a(VWhat Would You Do?
p44
VCity High - What Would You Do? (LahcSFleKm8)
tp45
a(VSurvivor
p46
VDestiny's Child - Survivor (Official Video) ft. Da Brat (Wmc8bQoL-J0)
tp47
a(VLady Marmalade
p48
VChristina Aguilera, Lil' Kim, Mya, Pink - Lady Marmalade (RQa7SvVCdZk)
tp49
a(VMs. Jackson
p50
VOutKast - Ms. Jackson (MYxAiK6VnXw)
tp51
a(VLove Don't Cost a Thing
p52
VJennifer Lopez - Love Don't Cost a Thing (4kGvlESGvbs)
tp53
a(VThe Way You Love Me
p54
VFaith Hill - "The Way You Love Me" (Official Video) (o8EamHKpdrM)
tp55
a(VHe Loves U Not
p56
VDREAM HE LOVES YOU NOT (WDZxnawFph4)
tp57
a(VButterfly
p58
VCrazy Town - Butterfly (Official Video) (6FEDrU85FLE)
tp59
a(VPut It on Me
p60
VJa Rule Feat. Lil' Mo & Vita - Put It On Me (HQ) (QM9uL8WG4ZY)
tp61
a(VFamily Affair
p62
VMary J. Blige - Family Affair (znlFu_lemsU)
tp63
a(VI Hope You Dance
p64
VLee Ann Womack - I Hope You Dance (RV-Z1YwaOiw)
tp65
a(VSouth Side
p66
VMoby - South Side feat. Gwen Stefani (GXKg0sNTKXE)
tp67
a(VDon't Tell Me
p68
VMadonna - Don't Tell Me (FRLHro9EPD0)
tp69
a(VGet Ur Freak On
p70
VMissy Elliott - Get Ur Freak On [OFFICIAL VIDEO] (FPoKiGQzbSQ)
tp71
a(VCrazy
p72
VK-Ci & JoJo - Crazy (qi-KCd0guJI)
tp73
a(VFill Me In
p74
VCraig David - Fill Me In (dG1F89DetCM)
tp75
a(VSomeone to Call My Lover
p76
VJanet Jackson - Someone To Call My Lover (Giraffage Remix).mp4 (3Nd8WXs7FQc)
tp77
a(VWith Arms Wide Open
p78
VCreed - With Arms Wide Open (99j0zLuNhi8)
tp79
a(VCase of the Ex
p80
VMya - Case Of The Ex (Whatcha Gonna Do) (0sq14JocSAs)
tp81
a(VAll or Nothing
p82
VO-Town All or Nothing [lyrics] (X_YiXpG1ql0)
tp83
a(VBootylicious
p84
VDestiny's Child - Bootylicious (IyYnnUcgeMc)
tp85
a(VI'm like a Bird
p86
VNelly Furtado - I'm Like A Bird (roPQ_M3yJTA)
tp87
a(VKryptonite
p88
V3 Doors Down - Kryptonite (xPU8OAjjS4k)
tp89
a(VFiesta
p90
VR. Kelly & Jay Z "Fiesta " \u200c\u200c - Bohemia After Dark (1AzDWw40oDs)
tp91
a(VWhen It's Over
p92
VSugar Ray - When It's Over (Video) (xmLv8rfunPo)
tp93
a(VJaded
p94
VAerosmith - Jaded (qbexOeoH5hg)
tp95
a(VPromise
p96
VJAGGED EDGE PROMISE LYRICS (MMreSGr7_Zo)
tp97
a(VMissing You
p98
VCase - Missing You (2bnZTHLxhEo)
tp99
a(VDifferences
p100
VGinuwine - Differences (wg2OWNKAbw0)
tp101
a(VThis I Promise You
p102
V'N Sync - This I Promise You (6thmPrTxBtI)
tp103
a(VIzzo (H.O.V.A.)
p104
VJAY-Z - Izzo (H.O.V.A.) (1tWmyPMf3wU)
tp105
a(VSuperwoman Pt. II
p106
VLil' Mo Feat. Fabolous - Superwoman (Part II) (HQ / Dirty) (zDLN46oYlPA)
tp107
a(VCrazy for This Girl
p108
VEvan And Jaron - Crazy For This Girl (NZkM_nOJ3d4)
tp109
a(VNobody Wants to Be Lonely
p110
VRicky Martin - Nobody Wants to Be Lonely (KUmrNavXsd0)
tp111
a(VI Just Wanna Love U (Give It 2 Me)
p112
VJAY-Z - I Just Wanna Love U (Give It 2 Me) (nG8o_9RliwU)
tp113
a(VOne Minute Man
p114
VMissy Elliot ft. Ludacris & Trina - One Minute Man Dirty (9-CJXwQJZaM)
tp115
a(VDanger (Been So Long)
p116
VMystikal featuring Nivea - Danger (Been So Long) ft. Nivea (ZHrV51GOPkE)
tp117
a(VOnly Time
p118
VEnya - Only Time (Official Music Video) (7wfYIMyS_dI)
tp119
a(VI Do!!
p120
VToya - I Do!! (byoCjcJwoO0)
tp121
a(VNever Had a Dream Come True
p122
VS Club 7 - Never Had A Dream Come True (WB9_sf6oV1o)
tp123
a(VStranger in My House
p124
VTamia - Stranger In My House (diNyoOyTI5g)
tp125
a(VIrresistible
p126
VJessica Simpson - Irresistible (-qCDypgAV_E)
tp127
a(VHeard It All Before
p128
VSunshine Anderson "Heard It All Before" (NGMInHRR2Fo)
tp129
a(VThe Space Between
p130
VDave Matthews Band - The Space Between (Music Video) (YvkX3t5LgVI)
tp131
a(VThere You'll Be
p132
VFaith Hill - There You'll Be [Official Music Video] (BwyWmqV_RJc)
tp133
a(VLove
p134
VLove By Musiq Soulchild. with Lyrics (ybRnAOb-CPk)
tp135
a(VIt's Over Now
p136
V112 - "Its Over Now" (Official Music Video) (IihCzGUEPbs)
tp137
a(VNo More (Baby I'ma Do Right)
p138
V3LW - No More (Baby I'ma Do Right) (drvS9w-lTMc)
tp139
a(VTurn Off the Light
p140
VNelly Furtado - Turn Off The Light (kOL7aeIDruA)
tp141
a(VAin't Nothing 'bout You
p142
VBrooks & Dunn - Ain't Nothing 'Bout You (SpJdhC5E8Vg)
tp143
a(VPlay
p144
VJennifer Lopez - Play (tFuw-YZaTNo)
tp145
a(VI'm Already There
p146
VLonestar - I'm Already There (Message From Home) (1jm5gfuT9Z4)
tp147
a(VMy Baby
p148
VMy Baby - Lil Romeo (with lyrics) (WPHAVrdEdyU)
tp149
a(VBeautiful Day
p150
VU2 - Beautiful Day (co6WMzDOh1o)
tp151
a(VAustin
p152
VAustin-Blake Shelton-Lyrics (_UCLSBMtzfs)
tp153
a(VSouthern Hospitality
p154
VLudacris - Southern Hospitality (so5XDNmFtd4)
tp155
a(VGrown Men Don't Cry
p156
VGrown men don't cry by Tim McGraw (_D7SkWCgnDo)
tp157
a(VLivin' It Up
p158
VJa Rule Feat. Case - Livin' It Up (HD) (2l9GFA1ATEM)
tp159
a(VLoverboy
p160
VMariah Carey Feat. Cameo - Loverboy [Music Video] 2001 (Phql0ar-m_0)
tp161
a(VContagious
p162
VThe Isley Brothers - Contagious (-qnSz6Lh5pY)
tp163
a(VWho I Am
p164
VJessica Andrews - Who I Am (Jd9zYKLepCw)
tp165
a(VMusic
p166
VErick Sermon feat. Marvin Gaye - Music (fle-zebSXNc)
tp167
a(VI Wanna Be Bad
p168
VWilla Ford - I Wanna Be Bad HD (S5tKILoxrQ4)
tp169
a(VDon't Happen Twice
p170
VKenny Chesney - Don't Happen Twice (ueQgSEN2m9I)
tp171
a(VOne More Day
p172
VOne More Day by Diamond Rio (With Lyrics) (TuE1XJ_uqOs)
tp173
a(VI Wish
p174
VR. Kelly - I Wish (P8CXUzepL6k)
tp175
a(VIt's a Great Day to Be Alive
p176
VTravis Tritt, "It's a Great Day to be Alive" (d4tSE2w53ts)
tp177
a(VI'm a Thug
p178
VTrick Daddy - I'm A Thug (Video Version) (ILCNAln_7Z4)
tp179
a(VHere's to the Night
p180
VEve 6 - Here's To The Night (X5DOGsoiW6c)
tp181
a(VYou Shouldn't Kiss Me Like This
p182
VToby Keith - You Shouldn't Kiss Me Like This (zwV2VM54CYA)
tp183
a(VGet Over Yourself
p184
VEden's Crush - Get Over Yourself (mHdCSLeS2rc)
tp185
a(VDance with Me
p186
VDebelah Morgan "Dance With Me" (8-4ifzbMqXM)
tp187
a(VSo Fresh So Clean
p188
VOutKast - So Fresh, So Clean (-JfEJq56IwI)
tp189
a(VE.I.
p190
VNelly - E.I. (mNaMR8AyeWc)
tp191
a(VBe Like That
p192
V3 Doors Down - Be Like That (No Movie Footage) (HHpMtWtgUvc)
tp193
a(VMost Girls
p194
VP!nk - Most Girls (UWJ_P-TdEJ0)
tp195
a(VOochie Wally
p196
VBravehearts - Oochie Wally (qat3ropar6w)
tp197
a(VHero
p198
VEnrique Iglesias - Hero (koJlIGDImiU)
tp199
a(VHemorrhage (In My Hands)
p200
VFuel - Hemorrhage (In My Hands) (ZbHfgXJKn1Y)
tp201
a.