(lp1
(VBette Davis Eyes
p2
VKim Carnes - Bette Davis Eyes (EPOIS5taqA8)
tp3
a(VEndless Love
p4
VENDLESS LOVE Lionel Ritchie duet w  Diana Ross w  lyrics (JM_R1R28kLM)
tp5
a(VLady
p6
VLady - Kenny Rogers (ZYRfUoR9Q4Y)
tp7
a(V(Just Like) Starting Over
p8
VJust like starting Over, John Lennon. (Lyrics) (1HLVXrAErlU)
tp9
a(VJessie's Girl
p10
VRick Springfield - Jessie's Girl (qYkbTyHXwbs)
tp11
a(VCelebration
p12
VKool & The Gang - Celebration (3GwjfUFyY6M)
tp13
a(VKiss on My List
p14
VHall & Oates - Kiss On My List (Lyrics) (AYUdldNzLNA)
tp15
a(VI Love a Rainy Night
p16
VEddie Rabbitt - I Love A Rainy Night (ebt0BR5wHYs)
tp17
a(V9 to 5
p18
V9 to 5 - Dolly Parton with lyrics (T-gqMpZroy8)
tp19
a(VKeep on Loving You
p20
VREO Speedwagon - Keep on Loving You (wJzNZ1c5C9c)
tp21
a(VTheme from The Greatest American Hero (Believe It or Not)
p22
VJoey Scarbury - Theme From Greatest American Hero (Believe It Or Not) HQ (4CWPnGmvDzk)
tp23
a(VMorning Train (Nine to Five)
p24
VSHEENA EASTON - MORNING TRAIN (NINE TO FIVE) (RVj90gq_bg4)
tp25
a(VBeing with You
p26
VSmokey Robinson - Being With You (0P2a6aLDkkM)
tp27
a(VQueen of Hearts
p28
VJUICE NEWTON - Queen Of Hearts (NW5K0YVgyqk)
tp29
a(VRapture
p30
VBlondie - Rapture (pHCdS7O248g)
tp31
a(VA Woman Needs Love (Just Like You Do)
p32
VRay Parker, Jr., Raydio - A Woman Needs Love (Just Like You Do) (QvBmtqyaijI)
tp33
a(VThe Tide Is High
p34
VBlondie - The Tide Is High (ppYgrdJ0pWk)
tp35
a(VJust the Two of Us
p36
VGROVER WASHINGTON, JR. & BILL WITHERS. "Just The Two Of Us". 1980. original album version. (X2E5_Gis_BQ)
tp37
a(VSlow Hand
p38
VThe Pointer Sisters - Slow Hand (pnVOt2LK2Gg)
tp39
a(VI Love You
p40
VClimax Blues Band - I love you 1981 (gvDwr9-MlfE)
tp41
a(VWoman
p42
VJohn Lennon - Woman (f-x1FsvOAz4)
tp43
a(VSukiyaki
p44
VA taste of honey - Sukiyaki (classic) 1981 (xqFkUNqBwMw)
tp45
a(VThe Winner Takes It All
p46
VAbba - The Winner Takes It All (92cwKCU8Z5c)
tp47
a(VStars on 45 Medley
p48
VTFS DragonBall Z Abridged: Episode 45 (jUWyGjxVLXo)
tp49
a(VAngel of the Morning
p50
VJuice Newton - Angel Of The Morning (HTzGMEfbnAw)
tp51
a(VLove on the Rocks
p52
VNeil Diamond - Love On The Rocks (UbvxP08FlMs)
tp53
a(VEvery Woman in the World
p54
VEvery Woman In The World - Air Supply [Lyrics] (s_JNrOGAH0Q)
tp55
a(VThe One That You Love
p56
VThe One That You Love (Lyrics) - AIR SUPPLY (rgR-2TOBBqY)
tp57
a(VGuilty
p58
VBarbra Streisand & Barry Gibb - Guilty (Live, where, when ?) (Yo17H8Z6CfA)
tp59
a(VThe Best of Times
p60
VStyx - The Best Of Times (d-seebMbckw)
tp61
a(VElvira
p62
VOak Ridge Boys -  Elvira (-9pIZh1jr-w)
tp63
a(VTake It on the Run
p64
VREO Speedwagon Take It On The Run lyrics (UgincTSCkYQ)
tp65
a(V(There's) No Gettin' Over Me
p66
VRonnie Milsap - (There's) No Gettin' Over Me (oXe5ETmifkM)
tp67
a(VLiving Inside Myself
p68
VGino Vannelli - Living Inside Myself (aOBm_eaBxHI)
tp69
a(VWoman in Love
p70
VBarbra Streisand - Woman in Love ( Lyrics ) (0KJ60uJZ3-Q)
tp71
a(VThe Boy from New York City
p72
VMANHATTAN TRANSFER - "The boy from New York City" (5ZF6m659-z0)
tp73
a(VUrgent
p74
VUrgent - Foreigner (JA6id4--BDg)
tp75
a(VPassion
p76
VRod Stewart - Passion (video original) (Mdq0_zZOFLg)
tp77
a(VLady (You Bring Me Up)
p78
VThe Commodores:Lady(You Bring Me Up) (gtvjkppN9lA)
tp79
a(VCrying
p80
VCrying - Don McLean (XjMNOouIb0k)
tp81
a(VHearts
p82
VMarty Balin - Hearts (dIF74lH4KPM)
tp83
a(VIt's My Turn
p84
VDIANA ROSS...It's My Turn (_zMQKoprWA4)
tp85
a(VYou Make My Dreams
p86
VHall & Oates ~ You Make My Dreams Come True (X_I4wtNPv5w)
tp87
a(VI Don't Need You
p88
VKenny Rogers - I don't need you (CIA_91Drpdw)
tp89
a(VHow 'Bout Us
p90
VChampaign - How 'Bout Us (YBUqDr14DEw)
tp91
a(VHit Me with Your Best Shot
p92
VPat Benatar - Hit Me With Your Best Shot lyrics (serV18MirGg)
tp93
a(VThe Breakup Song (They Don't Write 'Em)
p94
VGreg Kihn Band-The Breakup Song (They Don't Write 'Em) (k8ePSJ44Fiw)
tp95
a(VTime
p96
VThe Alan Parsons Project - Time (audio) (zhRzORqNa0E)
tp97
a(VHungry Heart
p98
VBruce Springsteen - Hungry Heart [HQ] - Studio Version (Lyrics) (npueY7QpxF0)
tp99
a(VSweetheart
p100
VSweetheart (Cs5ZPrC8uMs)
tp101
a(VSomebody's Knockin'
p102
VTerri Gibbs - Somebody's Knockin' - good audio quality (hiJDqUbSMwI)
tp103
a(VMore Than I Can Say
p104
VLeo Sayer - More Than I Can Say [Official Video] (GnIlo91CrBw)
tp105
a(VTogether
p106
VTogether - Tierra (a8oHIidSAXU)
tp107
a(VToo Much Time on My Hands
p108
VStyx - Too Much Time On My Hands (5XcKBmdfpWs)
tp109
a(VWhat Are We Doin' in Love
p110
VDottie West & Kenny Rogers - What Are We Doin' In Love - Billboard Top 100 of 1981 (CoykHWHZXrA)
tp111
a(VWho's Crying Now
p112
VJourney - Who's Crying Now (HQ with lyrics) (9meo3vazXcw)
tp113
a(VDe Do Do Do, De Da Da Da
p114
VThe Police - De Do Do Do, De Da Da Da (7v2GDbEmjGE)
tp115
a(VThis Little Girl
p116
VGary U.S. Bonds - This Little Girl (1981) (nTKtcsUjVMc)
tp117
a(VStop Draggin' My Heart Around
p118
VStevie Nicks & Tom Petty  - Stop Draggin' My Heart Around (6UD0c58nNCQ)
tp119
a(VGiving It Up for Your Love
p120
VDelbert McClinton - Givin It Up For Your Love (Live From Austin TX) (PxNnEEK6uG0)
tp121
a(VA Little in Love
p122
VCliff Richard - A Little In Love (s6zIqnoYt1c)
tp123
a(VAmerica
p124
VNeil Diamond's America (wTSLRbm8L9E)
tp125
a(VAin't Even Done With The Night
p126
VJohn Mellencamp- Ain't Even Done With the Night (FKk8w0GJYdk)
tp127
a(VArthur's Theme (Best That You Can Do)
p128
VChristopher Cross - Arthur's Theme (Best That You Can Do) (nQAOnkDWffw)
tp129
a(VAnother One Bites the Dust
p130
VQueen - Another One Bites the Dust (Official Video) (rY0WxgSXdEE)
tp131
a(VGames People Play
p132
VThe Alan Parsons Project -  Games People Play (pWBiuzNyezA)
tp133
a(VI Can't Stand It
p134
VEric Clapton - I Can't Stand It (Wa8s6RJwAxU)
tp135
a(VWhile You See a Chance
p136
VSteve Winwood - While You See A Chance (0j6g_uUhH2c)
tp137
a(VMaster Blaster (Jammin')
p138
VStevie Wonder - Masterblaster (jammin') 6min. version (lz1qtRK3ILg)
tp139
a(VHello Again
p140
VHello Again  Neil Diamond (KBQVKzNpW4s)
tp141
a(VDon't Stand So Close to Me
p142
VThe Police - Don't Stand So Close To Me (KNIZofPB8ZM)
tp143
a(VHey Nineteen
p144
VSteely Dan - Hey Nineteen - HQ Audio (5J7IrPVLc4U)
tp145
a(VI Ain't Gonna Stand for It
p146
VStevie Wonder - I Ain't Gonna Stand For it (DPSatcfd0rw)
tp147
a(VAll Those Years Ago
p148
VGeorge Harrison's "All those Years Ago" (85Smw33PKJA)
tp149
a(VStep By Step
p150
VEddie Rabbitt - Step By Step (HD) (01-K5WAHlmc)
tp151
a(VThe Stroke
p152
VBilly Squier The Stroke Lyrics (lNDe0kEKrqY)
tp153
a(VFeels So Right
p154
VAlabama - Feels So Right (X8ou8iHmZTI)
tp155
a(VSweet Baby
p156
VGeorge Duke, Stanley Clarke - Sweet Baby (d6AHjroSkfM)
tp157
a(VSame Old Lang Syne
p158
VDan Fogelberg - Same Auld Lang Syne (Lyrics) (jwtkZ7oTv1o)
tp159
a(VCool Love
p160
VPablo Cruise - Cool Love (AqH2hlOnLls)
tp161
a(VHold On Tight
p162
VElectric Light Orchestra - Hold on Tight (UkekqVPIc2M)
tp163
a(VIt's Now or Never
p164
VJOHN SCHNEIDER      It's Now Or Never (0MMZXRrsZmM)
tp165
a(VTreat Me Right
p166
VPat Benatar - "Treat Me Right" (dthHknNb_ug)
tp167
a(VWinning
p168
VSantana - Winning (0FmPg4lrBKc)
tp169
a(VWhat Kind of Fool
p170
VBarbra Streisand & Barry Gibb - What Kind Of Fool (1980) (8wbi9q-tV8Q)
tp171
a(VWatching the Wheels
p172
VJohn Lennon - Watching The Wheels (qp9dc9im3-M)
tp173
a(VTell It Like It Is
p174
VHeart - Tell It Like It Is (u0O7htEkmzM)
tp175
a(VSmoky Mountain Rain
p176
VSmokey Mountain Rain - Ronnie Milsap (wC6bo3XJnVQ)
tp177
a(VI Made It Through the Rain
p178
Vi made it through the rain,by BarryManilow (wlQPnNy6JR0)
tp179
a(VYou've Lost That Lovin' Feelin'
p180
VHall & Oates - "You've Lost That Lovin' Feelin'" (1980) (oudPWa3dtQc)
tp181
a(VSuddenly
p182
Vsuddenly - Olivia newton john with lyrics (qKt_Qf1T22o)
tp183
a(VFor Your Eyes Only
p184
VSheena Easton - For Your Eyes Only (HQ) (fN1WBgS9u_E)
tp185
a(VThe Beach Boys Medley
p186
Vthe beach boys - Beach Boys Medley            - The Platinum (hMb3iWUT8Rs)
tp187
a(VWhip It
p188
VDevo - Whip It (lyrics) (25MQM8XaYwU)
tp189
a(VModern Girl
p190
VSheena Easton       Modern Girl (2p7C1hISbBM)
tp191
a(VReally Wanna Know You
p192
VGary Wright - Really Wanna Know You (aah5IeW_Xy4)
tp193
a(VSeven Year Ache
p194
VRosanne Cash - Seven Year Ache (studio version) (hrUs_FWqj9s)
tp195
a(VI'm Coming Out
p196
VDiana Ross - I'm Coming Out (zbYcte4ZEgQ)
tp197
a(VMiss Sun
p198
VBOZ SCAGGS \u2756 miss sun \u3010HD\u3011 (VbUP5_4ZPvA)
tp199
a(VTime Is Time
p200
VAndy Gibb - "Time Is Time" (From The Marie Osmond Show) (H5YHHKcU5lQ)
tp201
a.