(lp1
(VWhen Doves Cry
p2
VPrince - When Doves Cry Lyrics (UOc1FYWVhTo)
tp3
a(VWhat's Love Got to Do with It
p4
VTina Turner - What's Love Got To Do With It [Official Music Video] (kcj2OyqU1Zs)
tp5
a(VSay Say Say
p6
VMichael Jackson & Paul McCartney- Say Say Say (HD 720P Best Print) (QC2Grms55Fw)
tp7
a(VFootloose
p8
VFootloose - Kenny Loggins (wFWDGTVYqE8)
tp9
a(VAgainst All Odds (Take a Look at Me Now)
p10
VAgainst All Odds \u2022 Take a Look At Me Now \u2022 Phil Collins (NKYdUNuxMX8)
tp11
a(VJump
p12
VVan Halen - Jump (SwYN7mTi6HM)
tp13
a(VHello
p14
VHello by Lionel Richie (b_ILDFp5DGA)
tp15
a(VOwner of a Lonely Heart
p16
VYes - Owner of a Lonely Heart (9O6e7cgkeqw)
tp17
a(VGhostbusters
p18
VRay Parker, Jr. - Ghostbusters (Fe93CLbHjxQ)
tp19
a(VKarma Chameleon
p20
VCulture Club - Karma Chameleon (JmcA9LIIXWw)
tp21
a(VMissing You
p22
VJohn Waite - Missing You (k9e157Ner90)
tp23
a(VAll Night Long (All Night)
p24
VLionel Richie - All Night Long (All Night) (nqAvFx3NxUM)
tp25
a(VLet's Hear It for the Boy
p26
VDeniece Williams - Let's Hear It For The Boy (HQ with lyrics) (VZLBZ3eD7wI)
tp27
a(VDancing in the Dark
p28
VBruce Springsteen - Dancing in the Dark (129kuDCQtHs)
tp29
a(VGirls Just Want To Have Fun
p30
VCyndi Lauper - Girls Just Want To Have Fun (Official Video) (PIb6AZdTr-A)
tp31
a(VThe Reflex
p32
VDuran Duran - The Reflex (oDnNF5cHCdo)
tp33
a(VTime After Time
p34
VCyndi Lauper - Time After Time (VdQY7BusJNU)
tp35
a(VJump (For My Love)
p36
VThe Pointer Sisters - Jump (For My Love) (uyTVyCp7xrw)
tp37
a(VTalking in Your Sleep
p38
VThe Romantics - Talking in Your Sleep (JmGMzyajA2U)
tp39
a(VSelf Control
p40
VLaura Branigan - Self Control (p8-pP4VboBk)
tp41
a(VLet's Go Crazy
p42
VPrince - Let's Go Crazy (Live) - Rave Un2 The Year 2000 (Yx6-VAsgjx4)
tp43
a(VSay It Isn't So
p44
VDaryl Hall & John Oates - Say it Isn't So (_R5xIdXwNMk)
tp45
a(VHold Me Now
p46
VThompson Twins - Hold Me Now (H9694K85Xc8)
tp47
a(VJoanna
p48
VKool & The Gang - Joanna (hsklsxReSe0)
tp49
a(VI Just Called to Say I Love You
p50
VStevie Wonder I Just Called To Say I Love You (1bGOgY1CmiU)
tp51
a(VSomebody's Watching Me
p52
VRockwell - Somebody's Watching Me (7YvAYIJSSZY)
tp53
a(VBreak My Stride
p54
VMatthew Wilder - Break My Stride (sLE_emfAd74)
tp55
a(V99 Luftballons
p56
VNena \u200e- 99 Luftballons (La4Dcd1aUcE)
tp57
a(VI Can Dream About You
p58
VDan Hartman - I Can Dream About You (621Nk3Ubz4A)
tp59
a(VThe Glamorous Life
p60
VSHEILA E - THE GLAMOROUS LIFE (XeJLZi0uyJw)
tp61
a(VOh Sherrie
p62
VSteve Perry - Oh Sherrie (5-WpsdC2-Cc)
tp63
a(VStuck on You
p64
VLionel Richie - Stuck On You (with lyrics) (YhsTB4rq1XU)
tp65
a(VI Guess That's Why They Call It the Blues
p66
VElton John - I Guess That's Why They Call It The Blues (h6KYAVn8ons)
tp67
a(VShe Bop
p68
VCyndi Lauper - She Bop (KFq4E9XTueY)
tp69
a(VBorderline
p70
VMadonna - Borderline (rSaC-YbSDpo)
tp71
a(VSunglasses at Night
p72
VCorey Hart - Sunglasses At Night (X2LTL8KgKv8)
tp73
a(VEyes Without a Face
p74
VBilly Idol - Eyes Without A Face (BKmldYSDJaM)
tp75
a(VHere Comes the Rain Again
p76
VEurythmics - Here Comes The Rain Again (Remastered) (TzFnYcIqj6I)
tp77
a(VUptown Girl
p78
VBilly Joel - Uptown Girl (hCuMWrfXG4E)
tp79
a(VSister Christian
p80
VNight Ranger - Sister Christian (z92bmlcmyq0)
tp81
a(VDrive
p82
VThe Cars - Drive (DrgSzcctUyY)
tp83
a(VTwist of Fate
p84
VOlivia Newton John - Twist of fate (_2hawbp5XT4)
tp85
a(VUnion of the Snake
p86
VDuran Duran - Union Of The Snake (n6p5Q6_JBes)
tp87
a(VThe Heart of Rock & Roll
p88
VHuey Lewis And The News - The Heart Of Rock & Roll (M7JVlpm0eRs)
tp89
a(VHard Habit to Break
p90
VChicago 17 - Hard Habit To Break (1984) (b7MwgByxPs8)
tp91
a(VThe Warrior
p92
VScandal, Patty Smyth - The Warrior (47y5bo8wtqM)
tp93
a(VIf Ever You're in My Arms Again
p94
VPeabo Bryson - If ever your in my arms again (lyrics) (CGF9ksw-sG4)
tp95
a(VAutomatic
p96
VAutomatic - The Pointer Sisters (w-4bxMI0jgM)
tp97
a(VLet the Music Play
p98
VShannon - Let The Music Play (Official Video) (_-0sUuGufmw)
tp99
a(VTo All the Girls I've Loved Before
p100
VJulio Iglesias, Willie Nelson - To All The Girls I've Loved Before (rVq0ONrSH-Q)
tp101
a(VCaribbean Queen
p102
VBilly Ocean - Caribbean Queen (No More Love On The Run) (9f16Fw_K45s)
tp103
a(VThat's All
p104
VGenesis - That's All (khg2sloLzTI)
tp105
a(VRunning with the Night
p106
VLionel Richie - Running With The Night (6PnhlXLHKAE)
tp107
a(VSad Songs (Say So Much)
p108
VElton John - Sad Songs (Say So Much) (X23v5_K7cXk)
tp109
a(VI Want a New Drug
p110
VHuey Lewis And The News - I Want A New Drug (N6uEMOeDZsA)
tp111
a(VIslands in the Stream
p112
VKENNY ROGERS &  DOLLY PARTON -  ISLANDS IN THE STREAM - HQ Audio (HQW7I62TNOw)
tp113
a(VLove Is a Battlefield
p114
VPat Benatar - Love Is A Battlefield (IGVZOLV9SPo)
tp115
a(VInfatuation
p116
VRod Stewart Infatuation (2VaazQfxGso)
tp117
a(VAlmost Paradise
p118
VAlmost Paradise  - Mike Reno & Ann Wilson (Yc40EasXz18)
tp119
a(VLegs
p120
VZZ Top - Legs (OFFICIAL MUSIC VIDEO) (eUDcTLaWJuo)
tp121
a(VState of Shock
p122
VThe Jacksons feat. Mick Jagger - State Of Shock [Audio HQ] HD (A2JTf-vUAUk)
tp123
a(VLove Somebody
p124
VRick Springfield - Love Somebody (JIVYW977GVM)
tp125
a(VMiss Me Blind
p126
VCulture Club - Miss Me Blind (hFVuuRxM2VU)
tp127
a(VIf This Is It
p128
VHuey Lewis And The News - If This Is It (AaTQAaJWW54)
tp129
a(VYou Might Think
p130
VThe Cars - You Might Think (OFFICIAL MUSIC VIDEO) (3dOx510kyOs)
tp131
a(VLucky Star
p132
VMadonna - Lucky Star (ThHz9wlBeLU)
tp133
a(VCover Me
p134
VBruce Springsteen - Cover Me (dkaSxmvZnGs)
tp135
a(VCum on Feel the Noize
p136
VQuiet Riot - Cum On Feel The Noize (ZxgMGk9JPVA)
tp137
a(VBreakdance
p138
VIrene Cara - Breakdance (1984) (yMRkvynnThI)
tp139
a(VAdult Education
p140
VDaryl Hall & John Oates - Adult Education (XLYqTZKEpvs)
tp141
a(VThey Don't Know
p142
VTracey Ullman   They Don't Know 1983 Video (9CCTLNwnYVQ)
tp143
a(VAn Innocent Man
p144
VAn Innocent Man by Billy Joel - lyrics (LN9AQTCnYyM)
tp145
a(VCruel Summer
p146
VBananarama - Cruel Summer (OFFICIAL MUSIC VIDEO) (9ePIZugahFc)
tp147
a(VDance Hall Days
p148
VWang Chung - Dance Hall Days (V-xpJRwIA-Q)
tp149
a(VGive It Up
p150
VKC & The Sunshine Band - Give It Up [HQ] (IeqtAB1WgEw)
tp151
a(VI'm So Excited
p152
VThe pointer sisters - I'm so excited (rQqwG_rQx7A)
tp153
a(VI Still Can't Get Over Loving You
p154
VRay Parker, Jr. - I Still Can't Get over Loving You (3eVxUBz-_KI)
tp155
a(VThriller
p156
VMichael Jackson - Thriller (sOnqjkJTMaA)
tp157
a(VHoliday
p158
VMadonna-Holiday (0X7RyGBq2E8)
tp159
a(VBreakin'... There's No Stopping Us
p160
VBreakin':  Breakin'...There's No Stopping Us by Ollie/Jerry (zMWdm6n3b2I)
tp161
a(VNobody Told Me
p162
VJohn Lennon- Nobody Told Me (gBCdlBrgEmE)
tp163
a(VChurch of the Poison Mind
p164
VCulture Club - Church Of The Poison Mind (HVzAH0FtNwg)
tp165
a(VThink of Laura
p166
VThink of Love Laura-Christopher Cross.wmv (02-CvtmRz6M)
tp167
a(VTime Will Reveal
p168
Vtime will reveal - El Debarge with lyrics (zpiPTmULJXw)
tp169
a(VWrapped Around Your Finger
p170
VThe Police - Wrapped Around Your Finger (svWINSRhQU0)
tp171
a(VPink Houses
p172
VJohn Mellencamp - Pink Houses (qOfkpu6749w)
tp173
a(VRound and Round
p174
VRatt - Round And Round (Official Video) (0u8teXR8VE4)
tp175
a(VHead over Heels
p176
VThe Go-Go's - Head over Heels (Official Music Video) (VHTRlIeKxE4)
tp177
a(VThe Longest Time
p178
VBilly Joel - The Longest Time (a_XgQhMPeEQ)
tp179
a(VTonight
p180
VKool & The Gang - Tonight (J3HOTPtTKaQ)
tp181
a(VGot a Hold on Me
p182
VChristine McVie - Got A Hold On Me (A62Grc3zLmU)
tp183
a(VDancing in the Sheets
p184
VShalamar - Dancing In The Sheets Official Video (fZmHu1t_5X0)
tp185
a(VUndercover of the Night
p186
VThe Rolling Stones - Undercover Of The Night - OFFICIAL PROMO (EXPLICIT) (DVJkfXeTs9Q)
tp187
a(VOn the Dark Side
p188
V''On The Dark Side'' - John Cafferty and the Beaver Brown Band - Asbury Park, NJ - May 23, 2014 (MlpGgmMwL14)
tp189
a(VNew Moon on Monday
p190
VDuran Duran - New Moon On Monday (m3a4OTh2Y8w)
tp191
a(VMajor Tom (Coming Home)
p192
VPeter Schilling - Major Tom (Coming Home) (HTseSi0Qgow)
tp193
a(VMagic
p194
VThe Cars - Magic (OFFICIAL MUSIC VIDEO) (E0Kv6vxZwL8)
tp195
a(VWhen You Close Your Eyes
p196
VNight Ranger - When You Close Your Eyes (1984) (Music Video) HQ (lqUka3m4K80)
tp197
a(VRock Me Tonite
p198
VBilly Squier - Rock Me Tonite (aq1CddYziF4)
tp199
a(VYah Mo B There
p200
VJames Ingram & Michael McDonald - Yah Mo Be There (rBo2Kn8iBxA)
tp201
a.