(lp1
(VLove Will Keep Us Together
p2
VCAPTAIN & TENNILLE \u2756 love will keep us together (official video) (_QNEf9oGw8o)
tp3
a(VRhinestone Cowboy
p4
VGlen Campbell - Rhinestone Cowboy (8kAU3B9Pi_U)
tp5
a(VPhiladelphia Freedom
p6
VElton John - Philadelphia Freedom (Captain Fantastic 13 of 13) (2sd6P2Tu8rw)
tp7
a(VBefore the Next Teardrop Falls
p8
VFreddy Fender - Before The Next Teardrop  Falls. (ay5ciplY4Pg)
tp9
a(VMy Eyes Adored You
p10
VMy Eyes Adored You - Frankie Valli (Xqz9eyakGqY)
tp11
a(VShining Star
p12
VEarth Wind and Fire- Shining Star (vwc0AW67CmA)
tp13
a(VFame
p14
VDavid Bowie - Fame (J-_30HA7rec)
tp15
a(VLaughter in the Rain
p16
VNeil Sedaka - Laughter In The Rain [w/ lyrics] (VCusyLPrFCo)
tp17
a(VOne of These Nights
p18
VThe Eagles -  One Of These Nights (TTgk1qEJn_4)
tp19
a(VThank God I'm a Country Boy
p20
VJohn Denver- Thank God I'm a Country Boy (aRgL92K5zuE)
tp21
a(VJive Talkin'
p22
VBee Gees- Jive Talkin' (xVjITlgqlHo)
tp23
a(VBest of My Love
p24
VEagles - The Best of My Love -HD (wvldWkENjts)
tp25
a(VLovin' You
p26
Vloving you minnie riperton (kE0pwJ5PMDg)
tp27
a(VKung Fu Fighting
p28
VKung Fu Fighting - Carl Douglas | Full HD | (yRtrCq6LWt8)
tp29
a(VBlack Water
p30
VThe Doobie Brothers - Black Water (mSAqkGU2nQ4)
tp31
a(VThe Ballroom Blitz
p32
VSWEET THE BALLROOM BLITZ HD (JzKAJRux4ss)
tp33
a(V(Hey Won't You Play) Another Somebody Done Somebody Wrong Song
p34
VB.J. Thomas - ANOTHER SOMEBODY DONE SOMEBODY WRONG SONG ( sin video ) (8zqOU_slcgY)
tp35
a(VHe Don't Love You (Like I Love You)
p36
VTony Orlando & Dawn - He Don't Love You (Like I Love You).wmv (oLfsUJ4-XEE)
tp37
a(VAt Seventeen
p38
VJanis Ian - At Seventeen 17 + Lyrics (lhFnOAwr96o)
tp39
a(VPick Up the Pieces
p40
VAverage White Band - Pick Up The Pieces (FnH_zwVmiuE)
tp41
a(VThe Hustle
p42
VThe Hustle - Van McCoy and the Soul City Symphony (Zh7STI5GWZQ)
tp43
a(VLady Marmalade
p44
V(Patti) LaBelle - Lady Marmalade (1975) HD 0815007 (t4LWIP7SAjY)
tp45
a(VWhy Can't We Be Friends
p46
VWAR - WHY CAN'T WE BE FRIENDS (5DmYLrxR0Y8)
tp47
a(VLove Won't Let Me Wait
p48
VMajor Harris - Love Won't Let Me Wait (JSutwr3_F_E)
tp49
a(VBoogie On Reggae Woman
p50
VStevie Wonder - Boogie On Reggae Woman.flv (h8Z_71sF4LU)
tp51
a(VWasted Days and Wasted Nights
p52
VWasted Days & Wasted Nights - Freddy Fender (TUVgkXVDkBA)
tp53
a(VFight the Power
p54
VThe Isley Brothers - Fight The Power (Part 1 & 2) (1975) (wO2ebiuV3hU)
tp55
a(VAngie Baby
p56
VAngie Baby- Helen Reddy (UQKyGt_I5L4)
tp57
a(VJackie Blue
p58
VOZARK MOUNTAIN DAREDEVILS- " JACKIE BLUE " (ARKNTDuNmk8)
tp59
a(VFire
p60
VThe Ohio Players - Fire (UzGJ8OVPhZ4)
tp61
a(VMagic
p62
VPilot - Magic (1975 - HD) (MzlK0OGpIRs)
tp63
a(VPlease Mr. Postman
p64
VPlease Mr Postman- The Carpenters (1975) (AHfddvbKb4w)
tp65
a(VSister Golden Hair
p66
VAmerica - Sister Golden Hair (HQ Original) (XIycEe59Auc)
tp67
a(VLucy in the Sky with Diamonds
p68
VElton John - Lucy In The Sky With Diamonds (Ic2hlOwCif4)
tp69
a(VMandy
p70
Vmandy by barry manilow lyrics (uoGcH2L68Mg)
tp71
a(VHave You Never Been Mellow
p72
VHave You Never Been Mellow [Lyrics] Olivia Newton-John (0bUThm4XrvE)
tp73
a(VCould It Be Magic
p74
VCould It Be Magic _ BARRY MANILOW (vDEynk7SwxE)
tp75
a(VCat's in the Cradle
p76
VCats In The Cradle-Harry Chapin (KUwjNBjqR-c)
tp77
a(VWildfire
p78
VWildfire- Michael Martin Murphey (Pc3OnSQc48s)
tp79
a(VI'm Not Lisa
p80
VJESSI COLTER- I'M NOT LISA (ZOgTVJOdFVU)
tp81
a(VListen to What the Man Said
p82
VSir Paul McCartney & Wings - Listen To What The Man Said [Remastered] [HD] (kRT3V-q_gBI)
tp83
a(VI'm Not in Love
p84
VI'M NOT IN LOVE - 10cc (2rgepWg4rzw)
tp85
a(VI Can Help
p86
VBilly Swan - I Can Help (elPwtbHmOJ4)
tp87
a(VFallin' in Love
p88
VHamilton, Joe Frank & Reynolds - Fallin' In Love (K0sTpZja6JQ)
tp89
a(VFeelings
p90
VFeelings - Morris Albert (CyBcHUe4WeQ)
tp91
a(VChevy Van
p92
VSAMMY JOHNS- "CHEVY VAN"  (W/LYRICS) (imN48YKDHsQ)
tp93
a(VWhen Will I Be Loved
p94
VLinda Ronstadt - When Will I Be Loved (9iBgTqz_-vY)
tp95
a(VYou're the First, the Last, My Everything
p96
VBarry White - You're My First My Last My Everything (2zfxZRBm3EY)
tp97
a(VPlease Mr. Please
p98
VPlease Mr Please Olivia Newton John (O6JJjfnNwsY)
tp99
a(VYou're No Good
p100
VLinda Ronstadt - You re No Good (dAWS8BLFbPs)
tp101
a(VDynomite
p102
VTony Camillo's Bazuka - Dynomite [1975] (u6foJZkVgDQ)
tp103
a(VWalking in Rhythm
p104
VThe Blackbyrds ~ Walking In Rhythm (oeyL1yVY_6Q)
tp105
a(VThe Way We Were/Try to Remember
p106
VGladys Knight & The Pips - The Way We Were / Try To Remember (mYsHhf97hrE)
tp107
a(VMidnight Blue
p108
VMidnight Blue by Melissa Manchester (WBtrLDAtOVA)
tp109
a(VDon't Call Us, We'll Call You
p110
Vsugarloaf - don't call us, we'll call you (i4njPe2_rho)
tp111
a(VPoetry Man
p112
VPoetry Man - Phoebe Snow (1974) (fLsSSfqTWXE)
tp113
a(VHow Long?
p114
VAce - How Long (hZ2ZNCip9YM)
tp115
a(VExpress
p116
VBT Express - Express (lutXQO3GdFo)
tp117
a(VThat's the Way of the World
p118
VEarth, Wind and Fire - "That's The Way of The World" (5vIIZydXDqg)
tp119
a(VLady
p120
VStyx - Lady (QumxOQganfo)
tp121
a(VBad Time
p122
VGrand Funk Railroad - Bad Time (lsDMxWgPQcg)
tp123
a(VOnly Women Bleed
p124
VAlice Cooper - Only Women Bleed (1yALNSd0iME)
tp125
a(VDoctor's Orders
p126
VCarol Douglas - Doctors Orders (MfCzMhZQ92U)
tp127
a(VGet Down Tonight
p128
VKC & The Sunshine Band - Get Down Tonight (HQ with lyrics) (LHEsE9yN2CY)
tp129
a(VYou Are So Beautiful
p130
VYou Are So Beautiful - Joe Cocker (ApfhL-06xfo)
tp131
a(VOne Man Woman/One Woman Man
p132
V"1974" "One Man Woman, One Woman Man", Paul Anka with Odia Coates (Vinyl / HD) (ovqLK47bOJk)
tp133
a(VFeel Like Makin' Love
p134
VBad Company - Feel Like Making Love (SEuKkcX1uKA)
tp135
a(VHow Sweet It Is (To Be Loved by You)
p136
VHow Sweet It Is (To Be Loved By You) _ JAMES TAYLOR (kSQdRz-HlJw)
tp137
a(VDance with Me
p138
VOrleans  - Dance With Me (_-IXJLgRnvs)
tp139
a(VCut the Cake
p140
VAverage White Band - Cut The Cake (75bYDYLSP0o)
tp141
a(VNever Can Say Goodbye
p142
VGloria Gaynor - Never can say goodbye (CCSvNZWpXaM)
tp143
a(VI Don't Like to Sleep Alone
p144
VI Don't Like to Sleep Alone - Paul Anka (lyrics) (mM-RxsbZiYI)
tp145
a(VMorning Side of the Mountain
p146
VDonny & Marie Osmond - "Morning Side Of The Mountain" (nqu89BKEm6k)
tp147
a(VSome Kind of Wonderful
p148
VGrand Funk Railroad - Some Kind of Wonderful (O7B5jXYRy3Q)
tp149
a(VWhen Will I See You Again
p150
V-The Three Degrees- -When I will see you again- (T6fVDAjs9f0)
tp151
a(VGet Down, Get Down (Get on the Floor)
p152
VJOE SIMON - GET DOWN , GET DOWN.wmv (QGUIUe8YvkM)
tp153
a(VI'm Sorry
p154
VJohn Denver - I'm Sorry (jIjOAWXZJSI)
tp155
a(VKiller Queen
p156
VQueen - Killer Queen (Top Of The Pops, 1974) (2ZBtPf7FOoM)
tp157
a(VShoeshine Boy
p158
VShoeshine Boy - Eddie Kendricks (1974) (fS7QuXLvCHo)
tp159
a(VDo It ('Til You're Satisfied)
p160
VB.T. Express -- Do It ('Til You're Satisfied) (_FViY4--5nY)
tp161
a(VCan't Get It Out of My Head
p162
VElectric Light orchestra - Can't Get It Out Of My Head (ZrffDM3hHk8)
tp163
a(VSha-La-La (Make Me Happy)
p164
VAl Green - Sha La La (Make Me Happy) - 1974 - with Lyrics (PO6Jt4M8ebs)
tp165
a(VLonely People
p166
VAmerica - Lonely People (IRDnEqW1vAc)
tp167
a(VYou Got the Love
p168
VChaka Khan and Rufus - You've Got The Love (kzB9mBO06f0)
tp169
a(VThe Rockford Files
p170
VThe Rockford Files Theme - Mike Post - 1975 (ufAilKMW6Fs)
tp171
a(VIt Only Takes a Minute
p172
VTAVARES - It Only Takes A Minute (BxtPbCYk-38)
tp173
a(VNo No Song
p174
VThe No-No Song ~Ringo Starr (DZN_8M4OpMo)
tp175
a(VJunior's Farm
p176
V'Junior's Farm' - PaulMcCartney.com Track of the Week (5Jpc9oZynyw)
tp177
a(VBungle in the Jungle
p178
VJethro Tull-Bungle In The Jungle (0frSN92mTGo)
tp179
a(VLong Tall Glasses
p180
Vleo Sayer -Long Tall Glasses (_P7EkR8UjFs)
tp181
a(VSomeone Saved My Life Tonight
p182
VSomeone Saved My Life Tonight - Elton John Lyrics [on screen] (VZRRd4bW91c)
tp183
a(VMisty
p184
VRay Stevens-Misty (ko56rc30qdk)
tp185
a(VBad Blood
p186
VNeil Sedaka & Elton John - Bad Blood (1975) (YTTVx--i3m0)
tp187
a(VOnly Yesterday
p188
VCarpenters - Only Yesterday (evETS8_WFGE)
tp189
a(VI'm on Fire
p190
VI'M ON FIRE - Dwight Twilley Band (1975) (z1zeWpGuIFs)
tp191
a(VOnly You (And You Alone)
p192
VRingo Starr: Only You (& You Alone) (LKvLnulKs8E)
tp193
a(VThird Rate Romance
p194
VAmazing Rhythm Aces - Third Rate Romance.wmv (aTT-Jmi1nOc)
tp195
a(VYou Ain't Seen Nothing Yet
p196
VYou Ain't Seen Nothing  Yet by Bachman-Turner Overdrive (Lyrics) (g9S93bE06H0)
tp197
a(VSwearin' to God
p198
VFrankie Valli - Swearin' To God (Disco Mix) (Slayd5000) (-_4t8EUTfxQ)
tp199
a(VGet Dancin'
p200
V"Get Dancin'" by Disco-Tex and the Sex-O-Lettes (KD6PqT3LjQk)
tp201
a.