(lp1
(VCareless Whisper
p2
VGeorge Michael - Careless Whisper (Official Video) (izGwDsrQ1eQ)
tp3
a(VLike a Virgin
p4
VMadonna - Like a Virgin [Official Music Video] (zHW5RVvg2v4)
tp5
a(VWake Me Up Before You Go-Go
p6
VWham! - Wake Me Up Before You Go-Go (pIgZ7gMze7A)
tp7
a(VI Want To Know What Love Is
p8
VForeigner - 'I Want To Know What Love Is' [Official Music Video] (raNGeq3_DtM)
tp9
a(VI Feel For You
p10
VChaka Khan - I Feel for You (1984) (hX9E44mClKs)
tp11
a(VOut of Touch
p12
VDaryl Hall & John Oates - Out Of Touch (D00M2KZH1J0)
tp13
a(VEverybody Wants to Rule the World
p14
VEverybody Wants To Rule The World - Tears For Fears W/Lyrics (R-O3kYrDPbI)
tp15
a(VMoney for Nothing
p16
VDire Straits - Money For Nothing (wTP2RUD_cL0)
tp17
a(VCrazy for You
p18
VMadonna - Crazy For You (Official Video) (Zn5OJGucveg)
tp19
a(VTake on Me
p20
Va-ha - Take On Me (Official Video) (djV11Xbc914)
tp21
a(VEverytime You Go Away
p22
VPaul Young - Everytime You Go Away (nfk6sCzRTbM)
tp23
a(VEasy Lover
p24
VPhilip Bailey, Phil Collins - Easy Lover (JkRKT6T0QLg)
tp25
a(VCan't Fight This Feeling
p26
VREO Speedwagon - Can't Fight This Feeling (zpOULjyy-n8)
tp27
a(VWe Built This City
p28
VStarship - We Built This City (K1b8AhIsSYQ)
tp29
a(VThe Power of Love
p30
VHuey Lewis & the News - The Power of Love Lyrics (WK0z87WrhGo)
tp31
a(VDon't You (Forget About Me)
p32
VSimple Minds - Don't You (Forget About Me) (CdqoNKCCt7A)
tp33
a(VCherish
p34
VKool & The Gang - Cherish (s09LuDYX12g)
tp35
a(VSt. Elmo's Fire (Man in Motion)
p36
VJohn Parr - St Elmo's Fire  (Man In Motion) (EOvMpND2OZY)
tp37
a(VThe Heat Is On
p38
VGLENN FREY - THE HEAT IS ON (C070_4ya98Y)
tp39
a(VWe Are the World
p40
VU.S.A. For Africa - We Are the World (9AjkUyX0rVw)
tp41
a(VShout
p42
VTears For Fears - Shout (Ye7FKc1JQe4)
tp43
a(VPart-Time Lover
p44
VStevie Wonder - Part Time Lover (Lyrics) (jN2AdOjI4FI)
tp45
a(VSaving All My Love For You
p46
VWhitney Houston - Saving All My Love For You (ewxmv2tyeRs)
tp47
a(VHeaven
p48
VBryan Adams - Heaven (s6TtwR2Dbjg)
tp49
a(VEverything She Wants
p50
VWham! - Everything She Wants (Yf_Lwe6p-Cg)
tp51
a(VCool It Now
p52
VNew Edition - Cool It Now (RZUq6N7Gx1c)
tp53
a(VMiami Vice Theme
p54
VJan Hammer - Crockett's Theme (Miami Vice) (_UmOY6ek_Y4)
tp55
a(VLoverboy
p56
VBilly Ocean - Loverboy (best audio) (yVhE1j6vvSs)
tp57
a(VLovergirl
p58
VTeena Marie - Lovergirl (1fyWgjhe_Zg)
tp59
a(VYou Belong to the City
p60
VGlenn Frey -  You Belong To The City - HD (j4ueaD22hg8)
tp61
a(VOh Sheila
p62
VReady For The World - Oh Sheila (wbL2lMn34Oo)
tp63
a(VRhythm of the Night
p64
VDeBarge - Rhythm Of The Night (cAQSZhazYk8)
tp65
a(VOne More Night
p66
VPhil Collins - One More Night (Official Music Video) (zKVq-P3z5Vg)
tp67
a(VSea of Love
p68
VRobert Plant's The Honeydrippers | 'Sea of Love' | Official Music Video (2BoUzzFXuVU)
tp69
a(VA View to a Kill
p70
VDuran Duran - A View To a Kill [HD] (k9qOXILOe38)
tp71
a(VThe Wild Boys
p72
VDuran Duran - The Wild Boys (M43wsiNBwmo)
tp73
a(VYou're the Inspiration
p74
VChicago - You're The Inspiration (Lyrics) (wM-XhQeFzW4)
tp75
a(VNeutron Dance
p76
VThe Pointer Sisters - Neutron Dance (i-jdhorGtQI)
tp77
a(VWe Belong
p78
VWe Belong- Pat Benatar (Official Lyrics) (gXWWRWrpH1o)
tp79
a(VNightshift
p80
VCommodores - Nightshift (FrkEDe6Ljqs)
tp81
a(VThings Can Only Get Better
p82
VHoward Jones - Things Can Only Get Better (-OO9LloDSJo)
tp83
a(VAll I Need
p84
Vall i need-jack wagner (0jF9yVnA83A)
tp85
a(VFreeway of Love
p86
VAretha Franklin - Freeway Of Love (Ip_pjb5_fgA)
tp87
a(VNever Surrender
p88
VCorey Hart - Never Surrender Official Video (-4pg6Jh94Lo)
tp89
a(VSussudio
p90
VPhil Collins: "Sussudio" (ulIruwn40Yo)
tp91
a(VStrut
p92
VSheena Easton- Strut (SG)(digital clear)(digital hi-fi) (F43j_Fbcfb0)
tp93
a(VYou Give Good Love
p94
VWitney Houston - You Give Good Love (0gcIttOVTTk)
tp95
a(VThe Search Is Over
p96
VThe Search Is Over (SURVIVOR) (ZOnjglu2bpM)
tp97
a(VMissing You
p98
VMissing You - Diana Ross (aVlbbk4SPC4)
tp99
a(VSeparate Lives
p100
VPhil Collins & Marilyn Martin - Separate Lives (1985) (IkxLTZm-6OE)
tp101
a(VRaspberry Beret
p102
VRaspberry Beret (Originally Performed by Prince & The Revolution) (Vocal Version) (R5KXOQkmCrA)
tp103
a(VSuddenly
p104
VBilly Ocean - Suddenly (2009) (GAjInKiOkqo)
tp105
a(VThe Boys of Summer
p106
VDon Henley - The Boys of Summer (qh4nVj8g4hg)
tp107
a(VOne Night in Bangkok
p108
VOne Night in Bangkok  -  Murray Head  (HQ Audio) (P9mwELXPGbA)
tp109
a(VIf You Love Somebody Set Them Free
p110
VSting - If You Love Somebody Set Them Free (LSGl3d4KOMk)
tp111
a(VObsession
p112
VObsession  -  Animotion (HQ Audio) (E5Lec3m1pLY)
tp113
a(VWe Don't Need Another Hero
p114
VTina Turner - We Don't Need Another Hero [Official Music Video] (dq4aOaDXIfY)
tp115
a(VMaterial Girl
p116
VMadonna - Material Girl [Official Music Video] (DNSUOFgj97M)
tp117
a(VBetter Be Good to Me
p118
VTina Turner - Better Be Good To Me (qyU7BbQSm98)
tp119
a(VHead over Heels
p120
VTears For Fears - Head Over Heels (CsHiG-43Fzg)
tp121
a(VAxel F
p122
VAxel F - Harold Faltermeyer (Original Version) (dASqLXiuomY)
tp123
a(VSmooth Operator
p124
V03. Sade - Smooth Operator (cA9gUspn6gc)
tp125
a(VIn My House
p126
VMary Jane Girls - In My House (oGkTD84hbcE)
tp127
a(VDon't Lose My Number
p128
VDon't Lose My Number Lyrics!- Phil Collins (prXaTe3zzYI)
tp129
a(VAll Through the Night
p130
VCyndi Lauper - All Through the Night (Audio) (ZONKoKIQ9RY)
tp131
a(VRun to You
p132
VBryan Adams - Run To You (nCBASt507WA)
tp133
a(VGlory Days
p134
VBruce Springsteen - Glory Days (6vQpW9XRiyM)
tp135
a(VVoices Carry
p136
V'Til Tuesday - Voices Carry (uejh-bHa4To)
tp137
a(VMisled
p138
VKool & The Gang - Misled (1O8jsxj9Dqo)
tp139
a(VWould I Lie to You?
p140
VEurythmics - Would I Lie To You? (Uhpu2N4rQZM)
tp141
a(VBe Near Me
p142
VABC - Be Near Me (VhAgQMqVxiE)
tp143
a(VNo More Lonely Nights
p144
VPaul McCartney - No More Lonely Nights (BxYpsB_jdH8)
tp145
a(VI Can't Hold Back
p146
VSurvivor - I Can't Hold Back (GaMcsKtBDwE)
tp147
a(VSummer Of '69
p148
VBryan Adams - Summer Of '69 (eFjjO_lhf9c)
tp149
a(VWalking on Sunshine
p150
VKatrina & The Waves - Walking On Sunshine (iPUmE-tne5U)
tp151
a(VFreedom
p152
VWham! - Freedom (BFwOs-jy53A)
tp153
a(VToo Late for Goodbyes
p154
VJulian Lennon - Too Late for Goodbyes (aQs1Ynq0rlk)
tp155
a(VValotte
p156
VJulian Lennon - Valotte (IrR-vqvxOnk)
tp157
a(VSome Like It Hot
p158
VThe Power Station - Some Like It Hot (Hw1t7OCESUw)
tp159
a(VSolid
p160
VAshford & Simpson - Solid (w3PoTnkLfxE)
tp161
a(VAngel
p162
VMadonna - Angel (Album Version) (APO9ZKtiy1c)
tp163
a(VI'm on Fire
p164
VBruce Springsteen - I'm on Fire (xzQvGz6_fvA)
tp165
a(VMethod of Modern Love
p166
VDaryl Hall & John Oates - Method of Modern Love (Q3F4c7E9IBU)
tp167
a(VLay Your Hands on Me
p168
VThompson Twins - Lay Your Hands On Me (Original US Version) (vYBHPYKeU1c)
tp169
a(VWho's Holding Donna Now
p170
VWho's Holding Donna Now (with Lyrics) - El DeBarge (9VDzhx0TB30)
tp171
a(VLonely Ol' Night
p172
VJohn Mellencamp - Lonely Ol' Night (SQMkRzWT8mo)
tp173
a(VWhat About Love
p174
VHeart - What About Love? (KE5GGMhmo-M)
tp175
a(VCalifornia Girls
p176
VCalifornia Girls [HD] - David Lee Roth (5GMoLENWsSk)
tp177
a(VFresh
p178
VKool & the Gang - Fresh (NChc__dH3jA)
tp179
a(VDo What You Do
p180
VJermaine Jackson - Do What You Do (dd6kKhdd0Fw)
tp181
a(VJungle Love
p182
VMorris Day and The Time - Jungle Love (HQ) (N2FPQvwhSDY)
tp183
a(VBorn in the U.S.A.
p184
VBruce Springsteen - Born In The U.S.A. (lZD4ezDbbu4)
tp185
a(VPrivate Dancer
p186
VTina Turner - Private Dancer (d4QnalIHlVc)
tp187
a(VWho's Zoomin' Who
p188
VAretha Franklin "Who's Zoomin' Who" (sOXvhUd67-Q)
tp189
a(VFortress Around Your Heart
p190
VSting - Fortress Around Your Heart (Option Two) (OiPiRKbNCWY)
tp191
a(VPenny Lover
p192
VLionel Richie - Penny Lover (k7r-Dk2daro)
tp193
a(VAll She Wants to Do Is Dance
p194
VDon Henley - All She Wants to Do is Dance (FNw6J9g5ahw)
tp195
a(VDress You Up
p196
VMadonna - 06. Dress You Up (Dt2Bcn6aY9E)
tp197
a(VSentimental Street
p198
VNight Ranger - Sentimental Street (ttdgpD0ZuWM)
tp199
a(VSugar Walls
p200
VSheena Easton - Sugar Walls (E7P-Tf53Wtw)
tp201
a.