(lp1
(VTo Sir With Love
p2
VLuLu (To Sir With Love) (yTapoA5RQyo)
tp3
a(VThe Letter
p4
VThe Box Tops - The Letter (BQaUs5J2wdI)
tp5
a(VOde to Billie Joe
p6
VOde to Billie Joe - Bobbie Gentry (BBC Live 1968) (HaRacIzZSPo)
tp7
a(VWindy
p8
VThe Association  Windy (bPYT9Vyu62A)
tp9
a(VI'm a Believer
p10
VThe Monkees - I'm a Believer [official music video] (XfuBREMXxts)
tp11
a(VLight My Fire
p12
VThe Doors - Light My Fire (deB_u-to-IE)
tp13
a(VSomethin' Stupid
p14
VFrank Sinatra   Nancy Sinatra- Something Stupid +Lyrics (nMQM9kEBRWI)
tp15
a(VHappy Together
p16
VSo Happy Together - The Turtles (P74YRczb84Q)
tp17
a(VGroovin'
p18
VGroovin' - The Young Rascals (falI0baGhBQ)
tp19
a(VCan't Take My Eyes off You
p20
VCant Take My Eyes Off You - Frankie Valli and The 4 Seasons + lyrics (LcJm1pOswfM)
tp21
a(VLittle Bit O' Soul
p22
VA LITTLE BIT OF SOUL   THE MUSIC EXPLOSION (CgGjvZcNpKs)
tp23
a(VI Think We're Alone Now
p24
VI Think We`re Alone Now - Tommy James & The Shondells (IkMFLUXTEwM)
tp25
a(VRespect
p26
VAretha Franklin - Respect [1967] (Original Version) (6FOUqQt3Kg0)
tp27
a(VI Was Made to Love Her
p28
VStevie Wonder - I Was Made To Love Her (9pYux5-d1Es)
tp29
a(VCome Back When You Grow Up
p30
VBobby Vee & The Strangers - Come Back When You Grow Up (Y2C3ZTMwaek)
tp31
a(VKind of a Drag
p32
VKind of a Drag - The Buckinghams (AUyyfC7rsQY)
tp33
a(VSweet Soul Music
p34
VArthur Conley - Sweet Soul Music  (HQ) (grE0lwTsSPg)
tp35
a(VExpressway to Your Heart
p36
VExpressway To Your Heart The Soul Survivors In Stereo by Tom Moulton original rotation StevenB (4EBYMl-f-wo)
tp37
a(VSoul Man
p38
VSAM and DAVE  -  'Soul Man' (1967) (ZVx2i6jGzf8)
tp39
a(VNever My Love
p40
VThe Association  Never My Love  Lyrics (munErg-ykYU)
tp41
a(VApples, Peaches, Pumpkin Pie
p42
VApples Peaches Pumpkin Pie - Jay & The Techniques (5njDmUMhfa0)
tp43
a(VCome on Down to My Boat
p44
VEvery Mother's Son - Come On Down To My Boat Baby (rvye4GXgPE0)
tp45
a(VIncense and Peppermints
p46
VStrawberry Alarm Clock - Incense & Peppermints 1967 (9scsSgNNnBE)
tp47
a(VRuby Tuesday
p48
VThe Rolling Stones - Ruby Tuesday -HQ (a00_tPLcE_g)
tp49
a(VIt Must Be Him
p50
VIt must be him - vikki carr (nqXtqLhujwg)
tp51
a(VLove Is Here and Now You're Gone
p52
VThe Supremes - Love Is Here And Now You're Gone with lyrics (X4z2iubQPgo)
tp53
a(VFor What It's Worth
p54
VFor What It's Worth - Buffalo Springfield (DIoKr9VDg3A)
tp55
a(VGimme Little Sign
p56
Vbrenton wood- gimme little sign (mRBPwWHvgvg)
tp57
a(VThe Happening
p58
VThe Supremes - The Happening + Lyrics (bEGdvabuTQ0)
tp59
a(VAll You Need Is Love
p60
VThe Beatles - All You Need Is Love (x9_vhYpR9xo)
tp61
a(VRelease Me
p62
VEngelbert Humperdinck - Release Me (with lyrics) (AZLqZ_H_nZc)
tp63
a(VYour Precious Love
p64
VYour Precious Love - Marvin Gaye & Tammi Terrell (BTvupngKy6A)
tp65
a(VSomebody to Love
p66
Vsomebody to love-jefferson airplane (JUbMWtUyIIE)
tp67
a(VGet on Up
p68
VThe Esquires - Get On Up (wnQ8yQJROCI)
tp69
a(VBrown Eyed Girl
p70
VVan Morrison Brown Eyed Girl lyrics (TG8Ect3Xn7w)
tp71
a(VJimmy Mack
p72
VMartha Reeves & the Vandellas - Jimmy Mack (obvSFWvgBhg)
tp73
a(VI Got Rhythm
p74
VThe Happenings - "I Got Rhythm" - 1967 Smothers Bros. Show (FK62pW35GIw)
tp75
a(VA Whiter Shade of Pale
p76
VA Whiter Shade Of Pale - Procol Harum (Mb3iPP-tHdA)
tp77
a(VDon't You Care
p78
VThe Buckinghams - Don't You Care (HQ Stereo,1967) (rayzU4EOvSo)
tp79
a(VThen You Can Tell Me Goodbye
p80
VThen You Can Tell Me Goodbye (lyrics - The Casinos (Gy1xlRGwSlk)
tp81
a(VReflections
p82
Vvery rare- Reflections - Diana Ross & the Supremes live - (R-iJnQNlkwE)
tp83
a(VOn a Carousel
p84
VThe Hollies "On A Carousel" (f-EKGsrq39E)
tp85
a(VPlease Love Me Forever
p86
V"Please Love Me Forever"  Bobby Vinton (lXCl3no_uSE)
tp87
a(VAlfie
p88
VAlfie - Dionne Warwick (Gx6zm2lGF90)
tp89
a(VSilence Is Golden
p90
VThe Tremeloes - Silence is Golden (n03g8nsaBro)
tp91
a(VMy Cup Runneth Over
p92
VEd Ames - My Cup Runneth Over (1967) (xvaQisHV8jw)
tp93
a(VUp, Up and Away
p94
VThe 5th Dimension - Up, Up and Away (_ii_WugJEJg)
tp95
a(VSan Francisco (Be Sure to Wear Flowers in Your Hair)
p96
VSan Francisco - Scott McKenzie (7I0vkKy504U)
tp97
a(VThe Rain, The Park & Other Things
p98
VThe Cowsills - The Rain, The Park and Other Things (Live) (foepOwQlXpI)
tp99
a(VThere's a Kind of Hush
p100
VHerman's Hermits - There's a Kind of Hush (gatIk3z9a7Y)
tp101
a(VMercy, Mercy, Mercy
p102
VThe Buckinghams - "Mercy, Mercy, Mercy" (fkslGrRExcQ)
tp103
a(VThis Is My Song
p104
VPetula Clark ' This Is My Song'  in Stereo (V8XmLuTmKIM)
tp105
a(V(Your Love Keeps Lifting Me) Higher and Higher
p106
VJackie Wilson - (Your Love Keeps Lifting Me) Higher And Higher (Best Quality) (mzDVaKRApcg)
tp107
a(VI've Been Lonely Too Long
p108
VTHE YOUNG RASCALS - I've Been Lonely Too Long (fkxPGdZIY-c)
tp109
a(VPenny Lane
p110
VThe Beatles - Penny Lane (1FlQCtg96SQ)
tp111
a(VYou're My Everything
p112
VThe Temptations - You're My Everything (Wp05C4q9SsE)
tp113
a(VGeorgy Girl
p114
VThe Seekers - Georgy Girl (1967 - Stereo) (wsIbfYEizLk)
tp115
a(VWestern Union
p116
VFive Americans - Western Union 45rpm (8lN_KC_XnW4)
tp117
a(VBaby I Love You
p118
VAretha Franklin - Baby I love you HQ (Xoagkpi5B4Q)
tp119
a(VA Little Bit Me, a Little Bit You
p120
VA Little Bit Me A Little Bit You - The Monkees. (Sz-2jckjeHo)
tp121
a(VCalifornia Nights
p122
VLesley Gore - California Nights w/ LYRICS (9OgV6o8NjcU)
tp123
a(VDedicated to the One I Love
p124
VThe Mamas and the Papas - Dedicated to the one I love (mymqkuwXcSU)
tp125
a(VHow Can I Be Sure
p126
VYoung Rascals - How Can I Be Sure  (1967) (TuKeSUUK-A4)
tp127
a(VCarrie Anne
p128
VThe Hollies - Carrie Anne (sgA4-bLcoN8)
tp129
a(V(We Ain't Got) Nothin' Yet
p130
VThe Blues Magoos - (We Ain't Got) Nothin' Yet (xJf7_NmgMzs)
tp131
a(VFriday on My Mind
p132
VThe Easybeats: Friday on My Mind (1966) [High Quality Stereo Sound, Subtitled] (3iW2_Ec3uEU)
tp133
a(VSoul Finger
p134
VBar Kays Soulfinger (16DduIqoRwE)
tp135
a(VGimme Some Lovin'
p136
VThe Spencer Davis Group - Gimme Some Lovin'. Stereo (ko3m0NBbq1o)
tp137
a(VLet It Out (Let It All Hang Out)
p138
VThe Hombres - Let It Out (Let It All Hang Out) (cWEu9Rn-PaE)
tp139
a(VLet's Live for Today
p140
VGRASS ROOTS- "LET'S LIVE FOR TODAY" (W/LYRICS) (spdSSI2rTKI)
tp141
a(VClose Your Eyes
p142
VPeaches and Herb-Close your eyes (W3k-Gae3bos)
tp143
a(VGroovin'
p144
VBooker T And The M.G.'s - "Groovin'" (VCL0Vc7CFkw)
tp145
a(VFunky Broadway
p146
VWilson pickett.  Funky Broadway. (yIuJH3qroDY)
tp147
a(VPleasant Valley Sunday
p148
VThe Monkees - "Pleasant Valley Sunday" - ORIGINAL VIDEO - HQ (sUzs5dlLrm0)
tp149
a(VI Never Loved a Man (The Way I Love You)
p150
VAretha Franklin - I Never Loved A Man (The Way I Love You) (waS0rKeuzg8)
tp151
a(VTell It Like It Is
p152
VTell it Like It Is (1966) - Aaron Neville with lyrics (BXy93iEe2co)
tp153
a(VCold Sweat
p154
VJames Brown - "Cold Sweat" (part 1 & 2) (8bztE5IbQOo)
tp155
a(VShe'd Rather Be With Me
p156
VThe Turtles - She'd Rather Be With Me (WkWDVBAwn_4)
tp157
a(V98.6
p158
V98.6 - Keith (ykN6Cz05bLM)
tp159
a(VHere We Go Again
p160
VRay Charles - Here we go again (yNDUU4gHCuE)
tp161
a(VWhite Rabbit
p162
VJefferson Airplane -White Rabbit- (WANNqr-vcx0)
tp163
a(VBernadette
p164
VFour Tops   Bernadette 1967 HQ (1g_TVRGWcfk)
tp165
a(VThe Beat Goes On
p166
VSonny and Cher: The beat goes on (HQ Version) (bS3O5zg290k)
tp167
a(VSnoopy Vs. The Red Baron
p168
VRoyal Guardsmen - Snoopy Vs. The Red Baron (Oxzg_iM-T4E)
tp169
a(VSociety's Child
p170
VJanis Ian - Society's Child (yW_rYLoIR08)
tp171
a(VGirl, You'll Be a Woman Soon
p172
VNeil Diamond - Girl You'll Be A Woman Soon (Original Song) (qGvMjgLXBi0)
tp173
a(VAin't No Mountain High Enough
p174
VMARVIN GAYE & TAMMI TERRELL "Ain't no Mountain High Enough" (Xz-UvQYAmbg)
tp175
a(VI Take It Back
p176
VSandy Posey - I Take It Back (mTHJTDs__FQ)
tp177
a(VHere Comes My Baby
p178
VHere Comes My Baby- The Tremeloes- 1967 (HQXbtlbQX70)
tp179
a(VEverlasting Love
p180
VRobert Knight "Everlasting Love" (oR8Qe6lX7vc)
tp181
a(VI Dig Rock and Roll Music
p182
VPeter,Paul & Mary  I Dig Rock & Roll Music (1968) (iqY35SYsyfQ)
tp183
a(VLittle Ole Man (Uptight, Everything's Alright)
p184
VBILL COSBY  Little Ole Man (Uptight everything's alright) (K3T2J9bLKww)
tp185
a(VI Had Too Much to Dream (Last Night)
p186
VThe Electric Prunes- I Had Too Much To Dream (Last Night) (IeVnbAfcwv8)
tp187
a(VDaydream Believer
p188
VMonkees - Daydream Believer - Music Video From TV - Clear HD (nU615FaODCg)
tp189
a(VBaby I Need Your Lovin'
p190
VJohnny Rivers -- Baby, I Need Your Lovin' (gpKhBknigGo)
tp191
a(VMirage
p192
VTommy James & the Shondells - Mirage (ZYhruUQpr7k)
tp193
a(VGreen, Green Grass of Home
p194
VGreen Green Grass Of Home - Tom Jones & Englebert Humperdink ( with lyrics ) (t5CdDpe87eM)
tp195
a(VI Can See for Miles
p196
VThe Who- I Can See For Miles (kb5mRBMZbYo)
tp197
a(VDon't Sleep in the Subway
p198
VPETULA CLARK- "DON'T SLEEP IN THE SUBWAY" (W/LYRICS) (bvKj8lTuVtk)
tp199
a(VThank The Lord For The Night Time
p200
VNEIL DIAMOND  (Thank The Lord For The Night Time). (KnfYV100lig)
tp201
a.