(lp1
(VMy Sharona
p2
VThe Knack - My Sharona (bbr60I0u2Ng)
tp3
a(VBad Girls
p4
VDonna Summer: Bad girls (Official Video) (HzxW4eu9heY)
tp5
a(VLe Freak
p6
VChic - Le Freak (h1qQ1SKNlgY)
tp7
a(VDa Ya Think I'm Sexy?
p8
VRod Stewart - Da Ya Think I'm Sexy? (Official Video) (Hphwfq1wLJs)
tp9
a(VReunited
p10
VReunited  || Lyrics ||  Peaches & Herb (S_TEmN49hcU)
tp11
a(VI Will Survive
p12
VI will survive - Gloria Gaynor (Tth-8wA3PdY)
tp13
a(VHot Stuff
p14
VDonna Summer- Hot Stuff (1IdEhvuNxV8)
tp15
a(VY.M.C.A.
p16
VVillage People - YMCA OFFICIAL Music Video 1978 (CS9OO0S5w2k)
tp17
a(VRing My Bell
p18
VAnita Ward - Ring My Bell (URAqnM1PP5E)
tp19
a(VSad Eyes
p20
VRobert John "Sad Eyes" (1979 - #1 hit) (QtdOpnCBLj8)
tp21
a(VToo Much Heaven
p22
VBee Gees - Too Much Heaven (1979) (nREV8bQJ1MA)
tp23
a(VMacArthur Park
p24
VDonna Summer - MacArthur Park [Suite] (Casablanca Records 1977) (VF_o7aSjl_E)
tp25
a(VWhen You're in Love with a Beautiful Woman
p26
VDr. Hook & The Medicine Show - When You're In Love With A Beautiful Woman (with lyrics) (KKGnpQ_-zZY)
tp27
a(VMakin' It
p28
VDavid Naughton - Makin' It 12'' (1978) (GMphwkxA4ro)
tp29
a(VFire
p30
VPointer Sisters - Fire (K9S5EZgIJck)
tp31
a(VTragedy
p32
VBee Gees- Tragedy (SPcsMMEMbfw)
tp33
a(VA Little More Love
p34
VOlivia Newton-John - A Little More Love (HD) (SHcavqe3tvk)
tp35
a(VHeart of Glass
p36
VBlondie - Heart Of Glass (WGU_4-5RaxU)
tp37
a(VWhat a Fool Believes
p38
VDoobie Brothers ~ What A fool Believes (1979) (dJe1iUuAW4M)
tp39
a(VGood Times
p40
VCHIC - Good times (1979) extended version HD and HQ (HqhT13aQrCc)
tp41
a(VYou Don't Bring Me Flowers
p42
VNeil Diamond & Barbara Streisand, You Don't Bring Me Flowers (wj10EzNKA2M)
tp43
a(VKnock on Wood
p44
VAmii Stewart - Knock On Wood [1979] (Original Music Video from DVD source) (HAbq_qkzFR0)
tp45
a(VStumblin' In
p46
VChris Norman & Suzi Quatro - Stumblin' In (iGaF4tKUl0o)
tp47
a(VLead Me On
p48
VLEAD ME ON - Maxine Nightingale (84BhXuFZSq0)
tp49
a(VShake Your Body (Down to the Ground)
p50
VMichael Jackson & The Jacksons performing  "Shake Your Body (Down to the Ground)" (QgUGKTRFVKY)
tp51
a(VDon't Cry Out Loud
p52
VDon't Cry Out Loud (Lyrics) - MELISSA MANCHESTER (R4Zz_UNFLmw)
tp53
a(VThe Logical Song
p54
VThe Logical Song (Mh3Kk5tZSmo)
tp55
a(VMy Life
p56
VMy Life - Billy Joel (HYayK5uEvfo)
tp57
a(VJust When I Needed You Most
p58
VRandy Vanwarmer - Just When I Needed You Most (HD) HIGH QUALITY AUDIO (yBOQgL731Ac)
tp59
a(VYou Can't Change That
p60
VRaydio - You Can't Change That (4kxpsvW2gAE)
tp61
a(VShake Your Groove Thing
p62
VShake Your Groove Thing - Peaches & Herb (1978) (eP0rnElZXa0)
tp63
a(VI'll Never Love This Way Again
p64
VI'll Never Love This Way Again by Dionne Warwick With Lyrics (pFCBSiXG59U)
tp65
a(VLove You Inside Out
p66
VLove You Inside Out - Bee Gees (sU7Tpu7HlNs)
tp67
a(VI Want You to Want Me
p68
VCheap Trick - I want you to want me 1979 (BJs_L7yq5qE)
tp69
a(VThe Main Event/Fight
p70
VThe Main Event/Fight- Barbra Streisand (9yEbTEla5Uc)
tp71
a(VMama Can't Buy You Love
p72
VELTON JOHN Mama can't buy you love (fw1ulSbMBiw)
tp73
a(VI Was Made for Dancin'
p74
VLeif Garrett - I Was Made For Dancin 12'' (1979) (dt_jjeY8Tio)
tp75
a(VAfter the Love Has Gone
p76
VAFTER THE LOVE HAS GONE - Earth, Wind and Fire Lyrics (yw-em78BCRw)
tp77
a(VHeaven Knows
p78
VDonna Summer and Brooklyn Dreams - Heaven Knows.mpg (-OMvWWPX25c)
tp79
a(VThe Gambler
p80
VKenny Rogers - The Gambler (1978) (Jj4nJ1YEAp4)
tp81
a(VLotta Love
p82
VLotta Love - Nicolette Larson (iU3u5UDjYeY)
tp83
a(VLady
p84
VLittle River Band - Greatest Hits - Lady (dyx5OzqnBOk)
tp85
a(VHeaven Must Have Sent You
p86
VBonnie Pointer - Heaven Must Have Sent You (Disco Version) (Slayd5000) (8Ozg_WlWEgg)
tp87
a(VHold the Line
p88
VToto - Hold The Line (8mkmUdUYgH0)
tp89
a(VHe's the Greatest Dancer
p90
VSister Sledge - He's The Greatest Dancer (TDwutKpVyas)
tp91
a(VSharing the Night Together
p92
VDr. Hook and the medicine show - Sharing The Night Together (fgr3-FBiKms)
tp93
a(VShe Believes in Me
p94
VKenny Rogers - She Believes In Me (with Lyrics) BY \u044fiad\u043d\u2022\u0e34 . \u2022 (8uBmu1vdQEY)
tp95
a(VIn the Navy
p96
VVillage People - In the Navy OFFICIAL Music Video 1978 (InBXu-iY7cw)
tp97
a(VMusic Box Dancer
p98
VFRANK MILLS ~ "MUSIC BOX DANCER"  HD AUDIO/VIDEO (AdEJmGGwMBY)
tp99
a(VThe Devil Went Down to Georgia
p100
VThe Charlie Daniels Band - The Devil Went Down to Georgia (live) (FgvfRSzmMoU)
tp101
a(VGold
p102
VJohn Stewart- Gold Lyrics (xVUtpUdY3Uo)
tp103
a(VGoodnight Tonight
p104
VGOODNIGHT TONIGHT - Paul McCartney & Wings - 1979 (DRCgueckAXE)
tp105
a(VWe Are Family
p106
VSister Sledge - We Are Family (eBpYgpF1bqQ)
tp107
a(VRock 'n' Roll Fantasy
p108
VBad Company - Rock n Roll Fantasy (5eQGqUfKbzk)
tp109
a(VEvery 1's a Winner
p110
VHot Chocolate - Every 1's a Winner (1978) HQ (JQsg6XXGxXQ)
tp111
a(VTake Me Home
p112
VCher - Take Me Home (Casablanca Records 1979) (jM1Uwv_qTNo)
tp113
a(VBoogie Wonderland
p114
VEarth, Wind & Fire - Boogie Wonderland (god7hAPv8f0)
tp115
a(V(Our Love) Don't Throw It All Away
p116
VAndy gibbs - our love (don't throw it all away) (NhJn_fMCL7M)
tp117
a(VWhat You Won't Do for Love
p118
VWhat You Won't Do For Love - Bobby Caldwell (1978) (hA2M8-csDDg)
tp119
a(VNew York Groove
p120
VAce Frehley - New York groove (Kiss Solo albums 1978) (LKdHy18rZcI)
tp121
a(VSultans of Swing
p122
VDire Straits - Sultans Of Swing (h0ffIJ7ZO4U)
tp123
a(VI Want Your Love
p124
VChic - I Want Your Love (YeFqVtFCJEk)
tp125
a(VChuck E.'s In Love
p126
VRickie Lee Jones - Chuck E.'s In Love (vGm6-l61Oqw)
tp127
a(VI Love the Nightlife
p128
VAlicia Bridges - I Love The Nightlife (HQ) (rQlxc-Jn294)
tp129
a(VAin't No Stoppin' Us Now
p130
VMcFadden & Whitehead -- Ain't No Stoppin' Us Now [1979] (CJTxnxXUMA0)
tp131
a(VLonesome Loser
p132
VLittle River Band - Lonesome Loser (MNqqs4h4M7c)
tp133
a(VRenegade
p134
VStyx - Renegade (ZXhuso4OTG4)
tp135
a(VLove Is the Answer
p136
VEngland Dan & John Ford Coley...Love is the Answer (_QZjJU-mtFU)
tp137
a(VGot to Be Real
p138
VGot To Be Real - CHERYL LYNN '1978 (84GEk4RUY3s)
tp139
a(VBorn to Be Alive
p140
VPatrick Hernandez - Born to Be Alive - Official Video (Clip Officiel) (9UaJAnnipkY)
tp141
a(VShine a Little Love
p142
VElectric Light Orchestra - Shine a Little Love (1979) (K8G38hIW1og)
tp143
a(VI Just Fall in Love Again
p144
VI Just Fall In Love Again     Anne Murray With Lyrics (pAetERA7IuY)
tp145
a(VShake It
p146
VIAN MATTHEWS - SHAKE lT(classic) (KHG__IAvWB0)
tp147
a(VI Was Made for Lovin' You
p148
VKISS - I Was Made For Lovin' You [Official Music Video] (u7isxoTIeYM)
tp149
a(VI Just Wanna Stop
p150
VGino Vannelli - I Just Wanna Stop (From "Brother to Brother" Album) (z8e1SjBHSUM)
tp151
a(VDisco Nights (Rock-Freak)
p152
VGQ - "Disco Nights" ( Rock Freak ) - Long Version (d_cpZ49T07o)
tp153
a(VOoo Baby Baby
p154
VLINDA RONSTADT - OOH BABY BABY (kmu-UUl_dLE)
tp155
a(VSeptember
p156
VEarth, Wind & Fire - September (Gs069dndIYk)
tp157
a(VTime Passages
p158
VAL STEWART "Time Passages" (pm6TsYypBpY)
tp159
a(VRise
p160
VHerb Alpert - Rise (HQ Audio) (vltC-O7PDYQ)
tp161
a(VDon't Bring Me Down
p162
VElectric Light Orchestra - Don't Bring Me Down (KYh7PwDo3Iw)
tp163
a(VPromises
p164
VPROMISES    ERIC CLAPTON (x5SyDNiufo0)
tp165
a(VGet Used To It
p166
VRoger Voudouris - Get Used To It (1979) (_AhkpOf6nSo)
tp167
a(VHow Much I Feel
p168
VAmbrosia - How Much I Feel (with lyrics) (hQB5qpxcixc)
tp169
a(VSuspicions
p170
Vsuspicions  eddie rabbitt (8eMxsUkoO8I)
tp171
a(VYou Take My Breath Away
p172
VYou Take My Breath Away - Rex Smith (vktvh42KNGw)
tp173
a(VHow You Gonna See Me Now
p174
VAlice Cooper - How You Gonna See Me Now (1978) (LERBv5DSuEc)
tp175
a(VDouble Vision
p176
VDouble Vision - Foreigner (oxKCPjcvbys)
tp177
a(VEverytime I Think of You
p178
VThe Babys - Every Time I Think Of You - [STEREO] (LvvGgqV6SGo)
tp179
a(VI Got My Mind Made Up (You Can Get It Girl)
p180
VInstant Funk - I Got My Mind Made Up (You Can Get It Girl) (VTPTGVoW8Tc)
tp181
a(VDon't Stop 'til You Get Enough
p182
VMichael Jackson - Don't Stop 'Til You Get Enough (yURRmWtbTbo)
tp183
a(VBad Case of Loving You (Doctor, Doctor)
p184
VRobert Palmer - Bad Case of Loving You (Doctor, Doctor) (Midnight Special) (NQ7WyP_qCZk)
tp185
a(VSomewhere in the Night
p186
VSomewhere In The Night - Barry Manilow (x6rme47g218)
tp187
a(VWe've Got Tonight
p188
VBob Seger & The Silver Bullet Band - We've Got Tonight (LosxbDeOM1o)
tp189
a(VDance the Night Away
p190
VVan Halen - "Dance The Night Away" (Official Music Video) (llfjDUB66Z4)
tp191
a(VDancin' Shoes
p192
VNigel Olsson - Dancin Shoes (1979) (GFbT8UklS8Q)
tp193
a(VThe Boss
p194
VDiana Ross - The Boss (12" Version) (Slayd5000) (WLc2kSIihYU)
tp195
a(VSail On
p196
VCommodores - Sail On (zg-ivWxy5KE)
tp197
a(VI Do Love You
p198
VGQ-I do love you (YOKq1VmEbtc)
tp199
a(VStrange Way
p200
VFirefall - Strange Way (BRiaroLhTEo)
tp201
a.