(lp1
(VTie a Yellow Ribbon Round the Ole Oak Tree
p2
VTony Orlando & Dawn ~ Tie a Yellow Ribbon Round the Ole Oak Tree (wWn1Oj2V7Xw)
tp3
a(VBad, Bad Leroy Brown
p4
VJim Croce - Bad Bad Leroy Brown (QvwDohEEQ1E)
tp5
a(VKilling Me Softly with His Song
p6
VRoberta Flack - Killing Me Softly With His Song (LQ2t5e7stVM)
tp7
a(VLet's Get It On
p8
VMarvin Gaye - Lets get it on (x6QZn9xiuOE)
tp9
a(VMy Love
p10
VPaul McCartney & Wings - My Love [High Quality] (vx5QxoWCG-I)
tp11
a(VWhy Me
p12
VWhy Me Lord  Story - Told and Sung By kris kristofferson (1tA7E7pbUws)
tp13
a(VCrocodile Rock
p14
VElton John - Crocodile Rock (QS-YZlJLCbM)
tp15
a(VWill It Go Round in Circles
p16
VBilly Preston - Will It Go Round in Circles (ghj5V5cUo1s)
tp17
a(VYou're So Vain
p18
VCarly Simon - You're So Vain (mQZmCJUSC6g)
tp19
a(VTouch Me in the Morning
p20
VTouch Me In The Morning - Diana Ross (qa-mjjdt24g)
tp21
a(VThe Night the Lights Went Out in Georgia
p22
VVicki Lawrence  - The Night The Lights Went Out In Georgia.mp4 (vrQvOvu_eRc)
tp23
a(VPlayground In My Mind
p24
VClint Holmes - Playground In My Mind (7MKWysTzeYA)
tp25
a(VBrother Louie
p26
VStories - Brother Louie ('73) (Wut2P6sgHos)
tp27
a(VDelta Dawn
p28
VDelta Dawn Helen Reddy (afsp7MU-nTI)
tp29
a(VMe and Mrs. Jones
p30
VBilly Paul - Me And Mrs. Jones (81bgy94vdRI)
tp31
a(VFrankenstein
p32
VFrankenstein - The Edgar Winter Group (1972) (NIldF-pGUCU)
tp33
a(VDrift Away
p34
VDobie gray- drift away (gr_eVcCAUXo)
tp35
a(VLittle Willy
p36
VSweet   little willie (JHyuIioJYBw)
tp37
a(VYou Are the Sunshine of My Life
p38
VStevie Wonder   You Are The Sunshine Of My Life (3wZ_b_uUAdQ)
tp39
a(VHalf-Breed
p40
VCher - Half Breed (Z6E98ZRaU1s)
tp41
a(VThat Lady
p42
VThe Isley Brothers-Who's That lady (q1DDgNCLD84)
tp43
a(VPillow Talk
p44
VSylvia  -  Pillow Talk (NA2X1040_gY)
tp45
a(VWe're an American Band
p46
VGrand Funk Railroad - We're an American Band (Zc_JcGuH5Z8)
tp47
a(VRight Place Wrong Time
p48
VDr. John: Right Place Wrong Time (G5zPqgQ67yo)
tp49
a(VWildflower
p50
VWildflower - Skylark  [HD] (YQ8n_Esop5I)
tp51
a(VSuperstition
p52
VStevie Wonder Superstition (0CFuCYNx-1g)
tp53
a(VLoves Me Like a Rock
p54
VPaul Simon - Loves Me Like a Rock + lyrics (h3BJl5Zy7HQ)
tp55
a(VThe Morning After
p56
VThe Morning After by Maureen McGovern (_KClpLzFftU)
tp57
a(VRocky Mountain High
p58
VJohn Denver - Rocky Mountain High (eOB4VdlkzO4)
tp59
a(VStuck in the Middle with You
p60
VStuck In The Middle With You - Stealers Wheel (DohRa9lsx0Q)
tp61
a(VShambala
p62
VThe Road to Shamballa | music by Three Dog Night (PDpVS7D9AJs)
tp63
a(VLove Train
p64
VLove train - The O'Jays (HQ) with lyrics (kQvmCzILBfE)
tp65
a(VI'm Gonna Love You Just a Little More Baby
p66
VI'm Gonna Love You Just A Little Bit More, Baby - Barry White (1973) (2YChL6tQvcY)
tp67
a(VSay, Has Anybody Seen My Sweet Gypsy Rose
p68
VTony Orlando & Dawn - Say Has Anybody Seen My Sweet Gypsy Rose ( 1973 ) (3Q-m_CxQacM)
tp69
a(VKeep on Truckin'
p70
VKeep On Truckin    Eddie Kendricks (aElKjhSwjBc)
tp71
a(VDancing in the Moonlight
p72
VDancing In the Moonlight (hMc8naeeSS8)
tp73
a(VDanny's Song
p74
VAnne Murray  "Danny's Song" (9D7ultFfoiM)
tp75
a(VMonster Mash
p76
VMONSTER MASH ~ Bobby "Boris" Pickett & The Crypt-Kickers (1962) (-tHyRQOdqf0)
tp77
a(VNatural High
p78
VBLOODSTONE - NATURAL HIGH (t0KzLo0-6Ro)
tp79
a(VDiamond Girl
p80
VSeals and Crofts Diamond Girl (RC-oP84mRME)
tp81
a(VLong Train Runnin'
p82
VDoobie Brothers  -  Long Train Running (HP_NE4XZGAc)
tp83
a(VGive Me Love (Give Me Peace on Earth)
p84
VGeorge Harrison-Give Me Love (Give Me Peace On Earth) (s-KAvPbO8JY)
tp85
a(VIf You Want Me to Stay
p86
VIF YOU WANT ME TO STAY by Sly & The Family Stone (Cwcu1Qm9pA0)
tp87
a(VDaddy's Home
p88
VJermaine Jackson - Daddy's Home (jsEyM2f7458)
tp89
a(VNeither One of Us (Wants to Be the First to Say Goodbye)
p90
VGladys Knigth & The Pips - Neither One Of Us(Wants To Be The First To Say Goodbye) (uSw7vulUfME)
tp91
a(VI'm Doin' Fine Now
p92
VNew York City  "I'm Doin' Fine Now" (SRwDOX28OK0)
tp93
a(VCould It Be I'm Falling in Love
p94
VThe Spinners - Could It Be I'm Falling In Love (1973) (HDTV) (EU4UTDrSwQc)
tp95
a(VDaniel
p96
VElton John- Daniel (UA78e27R_J4)
tp97
a(VMidnight Train to Georgia
p98
VMidnight Train To Georgia - Gladys Knight & The Pips with lyrics (meaVNHch96o)
tp99
a(VSmoke on the Water
p100
VDeep Purple - Smoke on the Water (zUwEIt9ez7M)
tp101
a(VThe Cover of the Rolling Stone
p102
VCover of the Rolling Stone (CeOWMDP5a7o)
tp103
a(VBehind Closed Doors
p104
VBehind Closed Doors.......Charlie Rich........( Donna ) (O3iEFfA4TmI)
tp105
a(VYour Mama Don't Dance
p106
VLoggins and Messina: Your Mama don't dance. (2hlMi6PvUDE)
tp107
a(VFeelin' Stronger Every Day
p108
VChicago Feelin' Stronger Everyday (4PvN7ujfj2w)
tp109
a(VThe Cisco Kid
p110
VThe Cisco kid- War (nEDB62oKv2M)
tp111
a(VLive and Let Die
p112
VPaul McCartney & WINGS - Live And Let Die (JK2hKzZss5Y)
tp113
a(VOh, Babe, What Would You Say?
p114
VHurricane Smith performs  Oh babe what would you say Rare Original Footage  1972 (qnxoTCvklKQ)
tp115
a(VI Believe in You (You Believe in Me)
p116
VI Believe in You (You Believe in Me) - Johnnie Taylor (rGTEHS0HWS4)
tp117
a(VSing
p118
VThe Carpenters classic : "SING"      (Peacewalker) (iYjcNR7W-Ow)
tp119
a(VAin't No Woman (Like the One I've Got)
p120
VTHE FOUR TOPS ain't no woman (like the one i've got) (MYY1PPIC5xE)
tp121
a(VDueling Banjos
p122
VEric Weissberg & Steve Mandell - Dueling Banjos (YchKLJGWJA4)
tp123
a(VHigher Ground
p124
VHigher Ground - Stevie Wonder (1973) (X00XdLhFLSg)
tp125
a(VHere I Am (Come And Take Me)
p126
VAl Green-Here i am baby (come and take me) (l73FkH3v7yg)
tp127
a(VMy Maria
p128
VBW Stevenson - My Maria (JdBvTvxHy7E)
tp129
a(VSuperfly
p130
VCurtis Mayfield - Superfly (-cmo6MRYf5g)
tp131
a(VGet Down
p132
VGet Down - Gilbert O'Sullivan (nXl5P2xO9-o)
tp133
a(VLast Song
p134
VLast Song - Edward Bear (hNowpI2XfVc)
tp135
a(VReelin' In the Years
p136
VSteely Dan - Reelin' In The Years (rBllejn5fVA)
tp137
a(VHocus Pocus
p138
VFocus - Hocus Pocus (RFDW9b_ejfI)
tp139
a(VYesterday Once More
p140
VThe Carpenters - Yesterday Once More (INCLUDES LYRICS) (YTaWayUE5XA)
tp141
a(VBoogie Woogie Bugle Boy
p142
VBette Midler as Delores De Lago: "Boogie Woogie Bugle Boy" (xcWR41NpQn4)
tp143
a(VClair
p144
VGilbert O`Sullivan - CLAIR - (  The Sweetest `Clair ` video Ever !) - And Clair answers back ! (sU9fClvdo5s)
tp145
a(VDo It Again
p146
VSteely Dan - Do It Again (sil76t2X_DE)
tp147
a(VKodachrome
p148
VPaul Simon - Kodachrome + lyrics (pLsDxvAErTU)
tp149
a(VWhy Can't We Live Together
p150
VTimmy Thomas - Why can't we live together (cFU-FJzPE80)
tp151
a(VSo Very Hard To Go
p152
VTower Of Power  -  So Very Hard To Go (t9BRqGpppJw)
tp153
a(VDo You Wanna Dance?
p154
VBette Midler "Do You Wanna Dance" (iv_6W-mqAtI)
tp155
a(VRockin' Pneumonia and the Boogie Woogie Flu
p156
VRockin' Pneumonia and Boogie Woogie Flu (UvJ78hYI6wk)
tp157
a(VRamblin' Man
p158
VAllman Brothers Band - Ramblin' Man (6VxoXn-0Ezs)
tp159
a(VMasterpiece
p160
VMASTERPIECE   THE TEMPTATIONS 1973 (CMzXt4rwVoQ)
tp161
a(VPeaceful
p162
VHELEN REDDY - PEACEFUL - KENNY RANKIN - BOBBY DARIN - THE QUEEN OF 70s POP (Cs4fbkTwux8)
tp163
a(VOne of a Kind (Love Affair)
p164
VSPINNERS - One  of A Kind Love Affair (Very Best of The Spinners Album) (l8uRhUSPBjk)
tp165
a(VFunny Face
p166
VDonna Fargo - Funny Face 1972 (NVQQNqorhVA)
tp167
a(VFunky Worm
p168
VTHE OHIO PLAYERS "Funky worm" (1972) - FUNK - (6vyCrWZTUqo)
tp169
a(VAngie
p170
VRolling Stones - Angie (HQ) (K5_EBAzIPJM)
tp171
a(VJambalaya (On the Bayou)
p172
VJambalaya  BLUE RIDGE RANGERS (pM_5YpazxRc)
tp173
a(VDon't Expect Me to Be Your Friend
p174
VLobo - Don't Expect Me To Be Your Friend (EzftH2eZT_0)
tp175
a(VBreak Up to Make Up
p176
VBREAK UP TO MAKE UP - STYLISTICS (j6ez8MeAhpw)
tp177
a(VDaisy a Day
p178
VJud Strunk - Daisy a Day (BB8G0SFmJ1g)
tp179
a(VAlso Sprach Zarathustra (2001)
p180
VDeodato - Also sprach Zarathustra (RJKsp9_L24Q)
tp181
a(VStir It Up
p182
VJohnny Nash - "Stir It Up" (kgfmgZ7EPJA)
tp183
a(VMoney
p184
VMoney - Pink Floyd HD (Studio Version) (cpbbuaIA3Ds)
tp185
a(VGypsy Man
p186
VWAR -Gypsy Man 1973 (VTXiVeqnppU)
tp187
a(VThe World Is a Ghetto
p188
VWAR - The World Is A Ghetto (Full Length Album Version) (dyQPjcF5Tms)
tp189
a(VYes We Can Can
p190
VThe Pointer Sisters~Yes We Can Can (70Y4c0ofAT4)
tp191
a(VFree Ride
p192
VFREE RIDE - Edgar Winter Group (CWpND8GhBuU)
tp193
a(VSpace Oddity
p194
VDavid Bowie- Space Oddity (With Lyrics) HD (nP6xBFyA_aw)
tp195
a(VIt Never Rains in Southern California
p196
VAlbert Hammond - It Never Rains In Southern California (-pyC7WnvLT4)
tp197
a(VThe Twelfth of Never
p198
VDonny Osmond - "The Twelfth Of Never" (EOHBpqHhLTE)
tp199
a(VPapa Was a Rollin' Stone
p200
VThe Temptations - Papa Was A Rolling Stone (pJV2pWFyfn4)
tp201
a.