(lp1
(V"Raindrops Keep Fallin' on My Head"
p2
VB.J.Thomas - Raindrops Keep Fallin' On My Head (hziG9Nr6KHU)
tp3
a(V"I Want You Back"
p4
VI Want You Back - The Jackson 5 (s3Q80mk7bxE)
tp5
a(V"Whole Lotta Love"
p6
VLed Zeppelin - Whole Lotta Love (HQ) (Mln0RciE2o0)
tp7
a(V"Venus"
p8
VShocking Blue - Venus (Official Video) (aPEhQugz-Ew)
tp9
a(V"La La La (If I Had You)"
p10
VBobby Sherman - La La La (If I Had You) [1969] (KRA5qwk2TWI)
tp11
a(V"Jam Up and Jelly Tight"
p12
VTOMMY ROE- " JAM UP, JELLY TIGHT " (W/LYRICS) (nlUai6D7xh4)
tp13
a(V"Don't Cry Daddy" / "Rubberneckin'"
p14
VElvis Presleys "Rubberneckin' " - Taken from the "Don't cry daddy - Single (ixqKBakQ5js)
tp15
a(V"Midnight Cowboy"
p16
VArthur Ferrante & Louis Teicher - Midnight Cowboy (United Artist Records 1969) (kHAw1NevuyI)
tp17
a(V"Without Love (There Is Nothing)"
p18
VTom Jones - Without love ( There is nothing ) (HvA1DlqamME)
tp19
a(V"I'll Never Fall in Love Again"
p20
VI'll never fall in love again - Dionne Warwick (FzQBOBoPg04)
tp21
a(V"Thank You (Falettinme Be Mice Elf Agin)" / "Everybody Is a Star"
p22
VSly & The Family Stone - Thank You (Falettinme Be Mice Elf Agin) (Audio) (NOa5UOHdwnc)
tp23
a(V"Hey There Lonely Girl"
p24
V"Hey There Lonely Girl" Live! (3lscp1GCjUQ)
tp25
a(V"No Time"
p26
VThe Guess Who - No Time (oqeSUAlI5uI)
tp27
a(V"Jingle Jangle"
p28
VThe Archies - Jingle Jangle - 1969 - 45 RPM - Stereo (ant4zGN49Ec)
tp29
a(V"Travelin' Band" / "Who'll Stop The Rain"
p30
VWho'll Stop The Rain - Creedence Clearwater Revival - Lyrics (Dmo3qZtdRhg)
tp31
a(V"Psychedelic Shack"
p32
VThe Temptations - Psychedelic Shack (dnzT6EV27yk)
tp33
a(V"Arizona"
p34
VMARK LINDSAY  (Arizona). (cE6Dn0n-Zbs)
tp35
a(V"Bridge over Troubled Water"
p36
VSimon & Garfunkel - The Sound Of Silence+The Boxer+Bridge Over Troubled Water+Mrs.Robinson+More! HD (CKZFdkCUksg)
tp37
a(V"Rainy Night in Georgia"
p38
VBrook Benton - Rainy Night in Georgia (bDRbF80NKDU)
tp39
a(V"Ma Belle Amie"
p40
VTEE-SET - MA BELLE AMIE (Bioah3q7JOk)
tp41
a(V"The Rapper"
p42
VThe Jaggerz - 'The Rapper' (-fYV3dJp-k4)
tp43
a(V"Give Me Just a Little More Time"
p44
VTHE CHAIRMEN OF THE BOARD-give me just a little more time (JMfxQq1GCMg)
tp45
a(V"He Ain't Heavy, He's My Brother"
p46
VTHE HOLLIES - He Ain't Heavy He's My Brother ( TOTP ) 1970 (iPDl9yKSnDE)
tp47
a(V"Evil Ways"
p48
VSantana - Evil Ways 1969 "Woodstock" Live Video Sound HQ (nPauXWjY4T8)
tp49
a(V"Let It Be" \u2020
p50
VThe Beatles - Let It Be Lyrics (WcBnJw-H2wQ)
tp51
a(V"Instant Karma!"
p52
VInstant Karma - John lennon (EqP3wT5lpa4)
tp53
a(V"Love Grows (Where My Rosemary Goes)"
p54
VEdison Lighthouse - Love Grows (Where My Rosemary Goes) (b9XyhFQeob0)
tp55
a(V"Didn't I (Blow Your Mind This Time)"
p56
VThe Delfonics-Didn't I (Blow Your Mind This Time) (7R60QoJKokQ)
tp57
a(V"ABC"
p58
VThe Jackson 5 - ABC (ho7796-au8U)
tp59
a(V"Spirit in the Sky"
p60
VSpirit In The Sky Norman Greenbaum (AZQxH_8raCI)
tp61
a(V"Come and Get It"
p62
VBadfinger 'Come And Get It' HD) (KWbTZuEWjnc)
tp63
a(V"The House of the Rising Sun"
p64
V[Frijid Pink - The House Of The Rising Sun] A - The House Of The Rising Sun (US9lRkeW-m0)
tp65
a(V"Easy Come, Easy Go"
p66
VEasy Come, Easy Go - Bobby Sherman (QJOuTr0BXb4)
tp67
a(V"American Woman" / "No Sugar Tonight"
p68
VNo Sugar Tonight The Guess Who 1970 (nPqT031SWT4)
tp69
a(V"Love or Let Me Be Lonely"
p70
VThe Friends Of Distinction - Love Or Let Me Be Lonely (WqjWWH0mQBQ)
tp71
a(V"Up the Ladder to the Roof"
p72
VTHE SUPREMES - Up The Ladder To The Roof (1970) (leHf8O8jB34)
tp73
a(V"Turn Back the Hands of Time"
p74
VTyrone Davis - "Turn Back The Hands Of Time" (gdZoNiX8cJ8)
tp75
a(V"Vehicle"
p76
VThe Ides Of March - "Vehicle" (sxJFjO4Skgo)
tp77
a(V"Everything Is Beautiful"
p78
VRay Stevens - Everything is Beautiful (1970) (mlwfGh-SVXw)
tp79
a(V"Reflections of My Life"
p80
VThe Marmalade - Reflections Of My Life (Nnro-OYCffk)
tp81
a(V"Cecilia"
p82
VSimon & Garfunkel - Cecilia (a5_QV97eYqM)
tp83
a(V"Up Around the Bend" / "Run Through the Jungle"
p84
VCreedence Clearwater Revival - Up Around The Bend (1970) (2QMdN1y-omg)
tp85
a(V"Love on a Two-Way Street"
p86
VThe Moments - Love On A Two Way Street. (-eNGkt2DE78)
tp87
a(V"Which Way You Goin' Billy?"
p88
VPoppy Family - Which Way You Goin' Billy (1969 - HD - 720p) (hBbmD20FuSE)
tp89
a(V"The Letter"
p90
VJoe Cocker "The Letter" in live 1970 (MAD DOGS & ENGLISHMEN) (4RnjWLVyMps)
tp91
a(V"The Long and Winding Road" / "For You Blue"
p92
VThe Beatles - The Long And Winding Road  / For You Blue (UTeUqG3ge18)
tp93
a(V"Get Ready"
p94
VRare Earth - Preparate (Get Ready) FULL VERSION!! (IyAwY2Q96Ps)
tp95
a(V"Make Me Smile"
p96
VChicago- Make Me Smile (NifeiFF2Ufo)
tp97
a(V"The Love You Save"
p98
VJackson 5 - The Love You Save (QR-X4pCwL_o)
tp99
a(V"Mama Told Me Not to Come"
p100
VThree Dog Night - Mama Told Me (Not To Come) (wkM7uWBjUrI)
tp101
a(V"Ball of Confusion (That's What the World Is Today)"
p102
VThe Temptations - Ball of Confusion (HQ audio) (mRAtT5X5bng)
tp103
a(V"Hitchin' a Ride"
p104
VVanity Fare ~ Hitchin' a Ride (l8i3oGMY1bc)
tp105
a(V"Lay Down (Candles in the Rain)"
p106
VMelanie And The Edwin Hawkins Singers Lay Down (Candles In The Rain) (oJZ0LpDhQSM)
tp107
a(V"Ride Captain Ride"
p108
VBlues Image-Ride Captain Ride (r8lf7RLYIww)
tp109
a(V"The Wonder of You" / "Mama Liked the Roses"
p110
VThe Wonder Of You b/w Mama Liked The Roses - Elvis Presley (0VJKMN3_QfY)
tp111
a(V"Band of Gold"
p112
VBand Of Gold , Freda Payne , 1970 Vinyl (daxiMb0rITA)
tp113
a(V"(They Long to Be) Close to You"
p114
VCarpenters - Close to you (iFx-5PGLgb4)
tp115
a(V"Make It with You"
p116
VBread - Make it with you (1970) (s0KXV0gB0dw)
tp117
a(V"O-o-h Child"
p118
V11. The Five Stairsteps - O-O-H Child (kmpU_73CXxU)
tp119
a(V"Gimme Dat Ding"
p120
VThe Pipkins - Gimme Dat Ding (YEEy615Jzg4)
tp121
a(V"Signed, Sealed, Delivered I'm Yours"
p122
VStevie Wonder - Signed, Sealed, Delivered I'm Yours (WvRwR-hZDVY)
tp123
a(V"Spill the Wine"
p124
VSpill the Wine - Eric Burdon And War (1970) (OEs29vmYSSs)
tp125
a(V"Tighter, Tighter"
p126
VAlive And Kicking - Tighter, Tighter (1970) (mjG9wK-Cn-o)
tp127
a(V"War"
p128
VEdwin Starr- War (HQ) (dQHUAJTZqF0)
tp129
a(V"In the Summertime"
p130
VMungo Jerry - In The Summertime ORIGINAL 1970 (wvUQcnfwUUM)
tp131
a(V"Patches"
p132
VClarence Carter - Patches  (High Quality) (IvfsfS6NVUc)
tp133
a(V"I Just Can't Help Believing"
p134
VB.J. THOMAS- " I JUST CAN'T HELP BELIEVING " (EGqgW07lnuU)
tp135
a(V"Ain't No Mountain High Enough"
p136
VDiana Ross: Ain't No Mountain High Enough (Ashford / Simpson), 1967 - Lyrics-\u0422\u0435\u043a\u0441\u0442\u0438-Paroles (5_pmKPWLBrE)
tp137
a(V"25 or 6 to 4"
p138
VChicago - 25 or 6 to 4 - 7/21/1970 - Tanglewood (Official) (7uAUoz7jimg)
tp139
a(V"(If You Let Me Make Love to You Then) Why Can't I Touch You?"
p140
VRonnie Dyson "If You Let Me Make Love To You"  (ThenYou Why Can't I Touch You" (YucP1lfEiEs)
tp141
a(V"Lookin' Out My Back Door" / "Long As I Can See the Light"
p142
VLong As I Can See The Light - John Fogerty (Creedence Clearwater Revival) (rVN8VT53Ebs)
tp143
a(V"Julie Do Ya Love Me"
p144
VBobby Sherman - Julie Do Ya Love Me (Lvluf32HT1E)
tp145
a(V"Candida"
p146
VTony Orlando "Candida" (WROdwlk9_h8)
tp147
a(V"Cracklin' Rosie"
p148
VNeil Diamond - Cracklin' Rosie (YhumCu3fzMI)
tp149
a(V"(I Know) I'm Losing You"
p150
VRare Earth - I Know I'm Losing You (full version) (F28X8--2dFU)
tp151
a(V"Snowbird"
p152
VAnne Murray - Snowbird (with lyrics) (pq9bHd58-LA)
tp153
a(V"I'll Be There"
p154
VI'll Be There - The Jackson 5 (High Quality) (J6pAxF2br_U)
tp155
a(V"All Right Now"
p156
VFree - All Right Now (siMFORx8uO8)
tp157
a(V"We've Only Just Begun"
p158
VThe Carpenters  "We've Only Just Begun" (8JgEptmz_eE)
tp159
a(V"Green-Eyed Lady"
p160
VSugarloaf - Green-Eyed Lady (Original Song HQ) 1970 (i_i7PKdQJU4)
tp161
a(V"Fire and Rain"
p162
VJames Taylor - Fire and Rain, Live 1970 (JOIo4lEpsPY)
tp163
a(V"Indiana Wants Me"
p164
VR Dean Taylor - Indiana Wants Me 1970 (fZL_tZxyBDo)
tp165
a(V"Lola"
p166
VThe Kinks - Lola (Official Audio) (LemG0cvc4oU)
tp167
a(V"It's Only Make Believe"
p168
VGlen Campbell - It's Only Make Believe (ORIGINAL) (064JXXk2Hrs)
tp169
a(V"I Think I Love You"
p170
VThe Partridge Family - I Think I Love You (bb4FMn-IWEY)
tp171
a(V"The Tears of a Clown"
p172
VSmokey Robinson & The Miracles - The Tears Of A Clown (4heHLbchPKk)
tp173
a(V"Gypsy Woman"
p174
VGypsy Woman - Brian Hyland - 1970. (StC5lwA2snM)
tp175
a(V"Somebody's Been Sleeping"
p176
V100 Proof Aged In Soul "Somebody's Been Sleeping In My Bed" My Extended Version! (ebGLUI--LEU)
tp177
a(V"It Don't Matter to Me"
p178
VBREAD - IT DON'T MATTER TO ME [w/ lyrics] (pl7U2jy1wMQ)
tp179
a(V"Montego Bay"
p180
VBobby Bloom - Montego Bay (gXjVd0TeOX0)
tp181
a(V"Heaven Help Us All"
p182
VStevie Wonder  Heaven Help Us All (CmkFt2HSkao)
tp183
a(V"One Less Bell to Answer"
p184
VThe Fifth Dimension -- One Less Bell To Answer (pjW_z02EjaA)
tp185
a(V"No Matter What"
p186
VNo Matter What - Badfinger (Xoke1wUwEXY)
tp187
a(V"Share the Land"
p188
VThe Guess Who ~ Share The Land (1970) lyrics (C-nY_B-K-TU)
tp189
a(V"My Sweet Lord" / "Isn't It a Pity"
p190
VGeorge Harrison ~ My Sweet Lord (Z_6MU4bszDc)
tp191
a(V"Stoned Love"
p192
VSupremes - Stoned Love (D2ce7FWOAM8)
tp193
a.