(lp1
(V"All 4 Love"
p2
VColor Me Badd - All 4 Love (PccRs1HR7VI)
tp3
a(V"Can't Let Go"
p4
VMariah Carey - Can't Let Go (yU1knfz15xI)
tp5
a(V"Finally"
p6
VCeCe Peniston - Finally (xk8mm1Qmt-Y)
tp7
a(V"2 Legit 2 Quit"
p8
VMC Hammer - 2 Legit 2 Quit (HFCv86Olk8E)
tp9
a(V"Smells Like Teen Spirit"
p10
VNirvana - Smells Like Teen Spirit (hTWKbfoikeg)
tp11
a(V"Addams Groove"
p12
VMC Hammer   Addams Groove HQ Video   YouTube (X82cJGKtuPo)
tp13
a(V"Don't Let the Sun Go Down on Me"
p14
VGeorge Michael & Elton John - Don't Let The Sun Go Down On Me (1992) (ggP08uNJUG4)
tp15
a(V"Diamonds and Pearls"
p16
VPrince   "Diamonds and Pearls" (nEvP8xp6p8U)
tp17
a(V"I Love Your Smile"
p18
VShanice - I Love Your Smile (y-gz-yddE6Q)
tp19
a(V"Mysterious Ways"
p20
VU2 - Mysterious Ways (TxcDTUMLQJI)
tp21
a(V"I'm Too Sexy"
p22
VRight Said Fred - I`m Too Sexy (The Original) (G45iSmup6rs)
tp23
a(V"Tell Me What You Want Me to Do"
p24
VTevin Campbell - Tell Me What You Want Me To Do (VT_qjwbaQ08)
tp25
a(V"To Be with You"
p26
VMr. Big - To Be With You (5QD5n98R_nk)
tp27
a(V"Remember the Time"
p28
VMichael Jackson - Remember The Time (LeiFF0gvqcc)
tp29
a(V"Masterpiece"
p30
VMasterpiece by Atlantic Starr with lyrics(High Quality) (hZ4Nuf-BTyk)
tp31
a(V"Save the Best for Last"
p32
VVanessa Williams - Save The Best For Last (5EdmHSTwmWY)
tp33
a(V"Tears in Heaven"
p34
VEric Clapton - Tears In Heaven (Official Video) (JxPj3GAYYZ0)
tp35
a(V"Good for Me"
p36
VAmy Grant - Good For Me (Official Music Video) (5PddJStucKQ)
tp37
a(V"I Can't Dance"
p38
VGenesis - I Can't Dance (sNJVFloPIVA)
tp39
a(V"Breakin' My Heart (Pretty Brown Eyes)"
p40
VMint Condition - Breakin' My Heart (Pretty Brown Eyes) (OgCv-qrlRrI)
tp41
a(V"Make It Happen"
p42
VMariah Carey - Make It Happen (-Q6xx0JfMBI)
tp43
a(V"Beauty and the Beast"
p44
VCeline Dion & Peabo Bryson - Beauty And The Beast (HQ Official Music Video) (pgYEJHJXFB4)
tp45
a(V"Ain't 2 Proud 2 Beg"
p46
VTLC - Ain't 2 Proud 2 Beg (XmH4_pr6mH0)
tp47
a(V"Bohemian Rhapsody"
p48
VQueen - Bohemian Rhapsody (Official Video) (fJ9rUzIMcZQ)
tp49
a(V"Jump"
p50
VKris Kross - Jump (010KyIQjkTk)
tp51
a(V"My Lovin' (You're Never Gonna Get It)"
p52
VEn Vogue - My Lovin (You're Never Gonna Get It) (AvTStt2WPTw)
tp53
a(V"Hazard"
p54
VRichard Marx-Hazard 1992 (n1y5Qq-a6Pw)
tp55
a(V"Live and Learn"
p56
VJoe Public - Live and Learn (TbMKTZbUxzI)
tp57
a(V"Everything About You"
p58
VUgly Kid Joe - Everything About You (byEGjLU2egA)
tp59
a(V"Under the Bridge"
p60
VRed Hot Chili Peppers - Under The Bridge (Official Music Video) (lwlogyj7nFE)
tp61
a(V"One"
p62
VU2 - One - Anton Corbjin Version (ftjEcrrf7r0)
tp63
a(V"In the Closet"
p64
VMichael Jackson- In The Closet (HD 720P) (zbl_ctRj8C8)
tp65
a(V"Baby Got Back"
p66
VSir Mix-a-Lot - Baby Got Back (Official Video) (FlItMpGYQTo)
tp67
a(V"Damn! I Wish I Was Your Lover"
p68
VSophie B. Hawkins - Damn I Wish I Was Your Lover (Lt6r-k9Bk6o)
tp69
a(V"I'll Be There"
p70
VMariah Carey - I'll Be There (UIt3dx4an9c)
tp71
a(V"If You Asked Me To"
p72
VIf You Asked Me To .. Celine Dion (pNcg609M70I)
tp73
a(V"The Best Things in Life Are Free"
p74
VLuther Vandross & Janet Jackson - The Best Things In Life Are Free (obJygNaMY3s)
tp75
a(V"Achy Breaky Heart"
p76
VBilly Ray Cyrus - Achy Breaky Heart (byQIPdHMpjc)
tp77
a(V"Tennessee"
p78
VArrested Development - Tennessee (6VCdJyOAQYM)
tp79
a(V"Wishing on a Star"
p80
VThe Cover Girls - Wishing On A Star (kmmV60P5wgo)
tp81
a(V"Baby-Baby-Baby"
p82
VTLC - Baby-Baby-Baby (Q2H6pTtEVlo)
tp83
a(V"This Used to Be My Playground"
p84
VMadonna - This Used To Be My Playground (Video) (rMHRq7yGdkA)
tp85
a(V"Just Another Day"
p86
VJon Secada - Just Another Day (B6LhWbQthAI)
tp87
a(V"Life Is a Highway"
p88
VTom Cochrane - Life Is A Highway (U3sMjm9Eloo)
tp89
a(V"November Rain"
p90
VGuns N' Roses - November Rain (8SbUC-UaAxE)
tp91
a(V"End of the Road"
p92
VBoyz II Men - End Of The Road (zDKO6XYXioc)
tp93
a(V"Giving Him Something He Can Feel"
p94
VEn Vogue - Giving Him Something He Can Feel - Music Video (y2RKb1R7jM0)
tp95
a(V"Too Funky"
p96
VGeorge Michael - Too Funky (JQ2DVwSVIIo)
tp97
a(V"Move This"
p98
VMove This - With Lyrics (6arOcxi9NPM)
tp99
a(V"Stay"
p100
VShakespears Sister - Stay (HD 16:9) (AX-MyKQlndo)
tp101
a(V"Humpin' Around"
p102
VBobby Brown - Humpin' Around (With Intro) (XtE1TmikgIQ)
tp103
a(V"Sometimes Love Just Ain't Enough"
p104
VSometimes Love Just Ain't Enough  || Lyrics ||  Patty Smyth & Don Henley (yX9aASk3Df0)
tp105
a(V"Jump Around"
p106
VHouse Of Pain - "Jump Around" (Official Music Video) (KZaz7OqyTHQ)
tp107
a(V"The One"
p108
VElton John - The One (85B_REWeNcM)
tp109
a(V"She's Playing Hard to Get"
p110
VHi-Five - She's Playing Hard to Get (LKLnifIvnDQ)
tp111
a(V"Please Don't Go"
p112
Vkws - please don't go (60fqp2rLUR4)
tp113
a(V"People Everyday"
p114
VArrested Development - People Everyday (HD) (a_4Y7Cei_bw)
tp115
a(V"When I Look Into Your Eyes"
p116
VFirehouse - When I Look into Your Eyes (dQSkuDWhaAo)
tp117
a(V"I'd Die Without You"
p118
VPM Dawn - I'd Die Without You (C_qWlPCEnGM)
tp119
a(V"Erotica"
p120
VMadonna - Erotica - Uncensored (qPGsjWpGO2s)
tp121
a(V"How Do You Talk to an Angel"
p122
VThe Heights - How Do You Talk To An Angel (csATriX8Ed0)
tp123
a(V"Free Your Mind"
p124
VEn Vogue - Free Your Mind (Official Video) (i7iQbBbMAFE)
tp125
a(V"Rump Shaker"
p126
VWRECKX-N-EFFECT - RUMPSHAKER (iKKONgfNONU)
tp127
a(V"Real Love"
p128
VReal Love-Mary j. Blige (7ovf52H5ydg)
tp129
a(V"What About Your Friends"
p130
VTLC - What About Your Friends (92gHq1s6G-c)
tp131
a(V"If I Ever Fall in Love"
p132
VShai - If I Ever Fall In Love (caNRc1ER8p4)
tp133
a(V"I Will Always Love You"
p134
VWhitney Houston - I Will Always Love You (3JWTaaS7LdU)
tp135
a(V"Good Enough"
p136
VBobby Brown - Good Enough (oh4wgGIN_qE)
tp137
a.