(lp1
(V"Creep"
p2
VTLC - Creep (LlZydtG3xqI)
tp3
a(V"Before I Let You Go"
p4
VBlackstreet - Before I Let You Go (kC6TnBx0HIU)
tp5
a(V"I'm the Only One"
p6
VMelissa Etheridge - I'm The Only One (Music Video) (oCphbDRkZSo)
tp7
a(V69 Boyz
p8
VStrip_Club_(Intro)+Strip_Club_Luv-69-Boyz(The_Wait_Is_Over).wmv (E_oQmbc4X-8)
tp9
a(V"Take a Bow"
p10
VMadonna - Take a Bow (1994) with Lyrics (nxMVwvTXE_c)
tp11
a(V"Sukiyaki"
p12
V4 PM - Sukiyaki (y3FwNA3RDW8)
tp13
a(V"You Gotta Be"
p14
VDes'ree - You Gotta Be (pO40TcKa_5U)
tp15
a(V"Baby"
p16
VBrandy - Baby (Video) (zJzMlOXwOto)
tp17
a(V"Candy Rain"
p18
VSoul For Real - Candy Rain (Cx0xzO73Amo)
tp19
a(VHootie & The Blowfish
p20
VHootie  & The Blowfish "Let her cry" (Lyrics) (O6VbT7mZo7o)
tp21
a(V"If You Love Me"
p22
VBrownstone - If you love me (1bzEYg-CpQE)
tp23
a(V"Strong Enough"
p24
VSheryl Crow - Strong Enough HQ (3s1bZLh4mJA)
tp25
a(V"Big Poppa"
p26
VThe Notorious B.I.G. - "Big Poppa" (phaJXp_zMYM)
tp27
a(VTLC
p28
VEdge and Christian vs The Hardy Boys vs The Dudleys TLC 2 Wrestlemania 17 Highlights (2G-uds6-AdA)
tp29
a(V"Run Away"
p30
VReal McCoy \u2022 Run Away (US Version) (_dx0qWHL7dc)
tp31
a(V"This Is How We Do It"
p32
VMontell Jordan - This Is How We Do It (0hiUuL5uTKc)
tp33
a(V"I Know"
p34
VDionne Farris - I Know (HQ) (L9h1P9wNiv4)
tp35
a(V"Freak like Me"
p36
VAdina Howard - Freak Like Me (iirDzMk5ysI)
tp37
a(V"Keep Their Heads Ringin'"
p38
VDr Dre  Keep their Heads Ringin (TE891IHxyV8)
tp39
a(V"Dear Mama"
p40
VTupac - Dear Mama (Lyrics) (hARz7Ymilqo)
tp41
a(VBlessid Union of Souls
p42
VHey Leonardo (She likes me for me) (vSdbQLXpmPQ)
tp43
a(V"Water Runs Dry"
p44
VBoyz II Men - Water Runs Dry (9N9opF-PK5k)
tp45
a(V"Have You Ever Really Loved a Woman?"
p46
VBryan Adams - Have You Ever Really Loved A Woman? (hq2KgzKETBw)
tp47
a(V"I'll Be There for You"/\u000a"You're All I Need to Get By"
p48
VMethod Man & Mary J. Blige - All I Need DIRTY (pqbpZvtIQZ0)
tp49
a(VNicki French
p50
VNicki French - Total Eclipse of the Heart (Official Video) (zincPl_RqiI)
tp51
a(V"Don't Take It Personal (Just One of Dem Days)"
p52
VMonica - Don't Take It Personal (Just One Of Dem Days) (asXau88O5Is)
tp53
a(V"Let Her Cry"
p54
VHootie And The Blowfish - Let Her Cry (Video) (1aVHLL5egRY)
tp55
a(V"Scream" \u25c1
p56
VMichael Jackson - Scream (0P4A1K4lXDo)
tp57
a(V"One More Chance" \u25c1
p58
VThe Notorious B.I.G - One More Chance (Feat. Faith Evans, & Mary J. Blige) (89tJtC_zwpg)
tp59
a(VTLC
p60
VWWE TLC 2011 Triple h vs Kevin Nash PART 1/2 (VR3D_OEEdxg)
tp61
a(V"I Can Love You Like That"
p62
VAll-4-One - I Can Love You Like That (bg1uULaTtPU)
tp63
a(V"Run-Around"
p64
VRun Around by Blues Traveler with lyrics (Z-yLH5wcEoQ)
tp65
a(VShaggy
p66
VPikmin 3 - Day 10 - Shaggy Long Legs (Nintendo Wii U Gameplay Walkthrough) (RgggVUoSWMY)
tp67
a(V"Kiss From a Rose"
p68
VSeal - Kiss from a Rose (ateQQc-AgEM)
tp69
a(V"Colors Of The Wind"
p70
VColour of the wind - Vanessa williams (xbuzskVs6rc)
tp71
a(VJon B. featuring Babyface
p72
VJon B. featuring Babyface - Someone To Love (HQ) (9jEVH2xXRDY)
tp73
a(V"He's Mine"
p74
VHe's Mine (sJYRbQYWSKU)
tp75
a(V"Gangsta's Paradise"
p76
VCoolio Featuring L.V. - Gangsta's Paradise \u200c\u200c - Bohemia After Dark (YFK6H_CcuX8)
tp77
a(V"You Are Not Alone" \u25c1
p78
VMichael Jackson - You Are Not Alone (pAyKJAtDNCw)
tp79
a(VHootie & The Blowfish
p80
VCracked Rear View - Hootie and the Blowfish (1994, Full Album) (1e2eOAOwT-k)
tp81
a(V"I Got 5 on It"
p82
VLuniz Ft. Michael Marshall - I Got 5 On It (fcKgA079tQc)
tp83
a(V"Runaway" \u25c1
p84
VJanet - Runaway (CRm00quEilA)
tp85
a(V"As I Lay Me Down"
p86
VSophie B. Hawkins - As I Lay Me Down (-EjpKoMy6Bs)
tp87
a(V"Fantasy" \u25c1
p88
VMariah Carey - Fantasy (qq09UkPRdFY)
tp89
a(V"Brokenhearted"
p90
VBrandy - Brokenhearted Feat. Wanya Morris (9j17qt53Bh0)
tp91
a(V"Tell Me"
p92
VGroove Theory - "Tell Me" (dmNMbee42s0)
tp93
a(V"Back For Good"
p94
VTake That - Back For Good (N2ICtCO8TCw)
tp95
a(VNatalie Merchant
p96
VBecause the Night NATALIE MERCHANT (NIZU3V8Hh6o)
tp97
a(V"Roll To Me"
p98
Vroll to me del amitri (9mEdTc340mI)
tp99
a(V"Who Can I Run To"
p100
VXscape - Who Can I Run To (xLjyPBQk_Os)
tp101
a(V"You Remind Me of Something" \u25c1
p102
VR. Kelly - You Remind Me Of Something (oj_BwSUusbs)
tp103
a(V"Exhale (Shoop Shoop)" \u25c1
p104
VWhitney Houston - Exhale (Shoop Shoop) (Waiting To Exhale Soundtrack) (aJ3PEtkIw1k)
tp105
a(VLL Cool J featuring Boyz II Men
p106
VLL Cool J ft. BoyzIIMen - Hey Lover (cover) (3/31/12 - #252) (f48dVmOLP_E)
tp107
a(VTLC
p108
VPapa Jack's TLC May 5 2015 Caller 1 D (YsuSfxCU2Kw)
tp109
a(V"One Sweet Day" \u25c1
p110
VMariah Carey, Boyz II Men - One Sweet Day (UXxRyNvTPr8)
tp111
a(V"You'll See" \u25c1
p112
VMadonna - You'll See (zyFzpBAZICc)
tp113
a(V"I Got Id" \u25c1
p114
VPearl Jam - I Got ID (ft. Neil Young) (uYGUrKKR3q8)
tp115
a(V"Before You Walk Out of My Life"
p116
VMonica - Before You Walk Out Of My Life (Ptiz0KtR16E)
tp117
a.