(lp1
(V"We Belong"
p2
VWe Belong- Pat Benatar (Official Lyrics) (gXWWRWrpH1o)
tp3
a(V"Cool It Now"
p4
VNew Edition - Cool It Now (RZUq6N7Gx1c)
tp5
a(V"Sea of Love"
p6
VRobert Plant's The Honeydrippers | 'Sea of Love' | Official Music Video (2BoUzzFXuVU)
tp7
a(V"All I Need"
p8
Vall i need-jack wagner (0jF9yVnA83A)
tp9
a(V"Valotte"
p10
VJulian Lennon - Valotte (IrR-vqvxOnk)
tp11
a(V"Run to You"
p12
VBryan Adams - Run To You (nCBASt507WA)
tp13
a(V"You're the Inspiration"
p14
VChicago - You're The Inspiration (Lyrics) (wM-XhQeFzW4)
tp15
a(V"Born in the U.S.A."
p16
VBruce Springsteen - Born In The U.S.A. (lZD4ezDbbu4)
tp17
a(V"I Want to Know What Love Is"
p18
VForeigner - 'I Want To Know What Love Is' [Official Music Video] (raNGeq3_DtM)
tp19
a(V"Easy Lover"
p20
VPhilip Bailey, Phil Collins - Easy Lover (JkRKT6T0QLg)
tp21
a(V"Careless Whisper"
p22
VGeorge Michael - Careless Whisper (Official Video) (izGwDsrQ1eQ)
tp23
a(V"The Boys of Summer"
p24
VDon Henley - The Boys of Summer (qh4nVj8g4hg)
tp25
a(V"Loverboy"
p26
VBilly Ocean - Loverboy (best audio) (yVhE1j6vvSs)
tp27
a(V"I Would Die 4 U"
p28
VI Would Die 4 U (Originally Performed by Prince & The Revolution) (Vocal Version) (YwMf9zT_6Xo)
tp29
a(V"Method of Modern Love"
p30
VDaryl Hall & John Oates-Method Of Modern Love (oLMGn0yxOG4)
tp31
a(V"Neutron Dance"
p32
VThe Pointer Sisters - Neutron Dance (i-jdhorGtQI)
tp33
a(V"Can't Fight This Feeling"
p34
VREO Speedwagon - Can't Fight This Feeling (zpOULjyy-n8)
tp35
a(V"The Heat Is On"
p36
VGLENN FREY - THE HEAT IS ON (C070_4ya98Y)
tp37
a(V"California Girls"
p38
VCalifornia Girls [HD] - David Lee Roth (5GMoLENWsSk)
tp39
a(V"Sugar Walls"
p40
VSheena Easton - Sugar Walls (E7P-Tf53Wtw)
tp41
a(V"The Old Man Down the Road"
p42
VJohn Fogerty - The Old Man Down The Road (JbSGMRZsN4Q)
tp43
a(V"Material Girl"
p44
VMadonna - Material Girl [Official Music Video] (DNSUOFgj97M)
tp45
a(V"Too Late for Goodbyes"
p46
VJULIAN LENNON TOO LATE FOR GOODBYES (qVyswhYGrkQ)
tp47
a(V"Misled"
p48
VKool & The Gang - Misled (1O8jsxj9Dqo)
tp49
a(V"One More Night"
p50
VPhil Collins - One More Night (Official Music Video) (zKVq-P3z5Vg)
tp51
a(V"Lover Girl"
p52
VLover Girl ~ Teena Marie (EgYDOS5auLs)
tp53
a(V"Private Dancer"
p54
VTina Turner - Private Dancer (d4QnalIHlVc)
tp55
a(V"Relax"
p56
VFrankie Goes to Hollywood - Relax with Lyrics (oh4tHpUflDA)
tp57
a(V"High on You"
p58
VSurvivor - High On You (fxhueyC70cU)
tp59
a(V"Only the Young"
p60
VJourney - Only The Young (jifOSQAI0G8)
tp61
a(V"We Are the World"
p62
VUSA FOR AFRICA - We Are The World (Zi0RpNSELas)
tp63
a(V"Crazy for You"
p64
VMadonna - Crazy For You (Official Video) (Zn5OJGucveg)
tp65
a(V"Nightshift"
p66
VCommodores - Nightshift (FrkEDe6Ljqs)
tp67
a(V"I'm on Fire"
p68
VBruce Springsteen - I'm on Fire (xzQvGz6_fvA)
tp69
a(V"Rhythm of the Night"
p70
VRhythm Of The Night - Debarge (ZPtY3U2F_IQ)
tp71
a(V"Obsession"
p72
VObsession  -  Animotion (HQ Audio) (E5Lec3m1pLY)
tp73
a(V"Missing You"
p74
VMissing You - Diana Ross (aVlbbk4SPC4)
tp75
a(V"Don't You (Forget About Me)"
p76
VSimple Minds - Don't You (Forget About Me) (CdqoNKCCt7A)
tp77
a(V"One Night in Bangkok"
p78
VOne Night in Bangkok  -  Murray Head  (HQ Audio) (P9mwELXPGbA)
tp79
a(V"Some Like It Hot"
p80
VThe Power Station - Some Like It Hot (Xf2MNCu5oqM)
tp81
a(V"All She Wants to Do Is Dance"
p82
VDon Henley - All she wants to do is dance (QYxMQjcs4wo)
tp83
a(V"Smooth Operator"
p84
V03. Sade - Smooth Operator (cA9gUspn6gc)
tp85
a(V"Everything She Wants"
p86
VWham! - Everything She Wants (Yf_Lwe6p-Cg)
tp87
a(V"Everybody Wants to Rule the World"
p88
VTears For Fears - "Everybody Wants To Rule The World" - ORIGINAL VIDEO (ST86JM1RPl0)
tp89
a(V"Axel F"
p90
VAxel F - Harold Faltermeyer (Original Version) (dASqLXiuomY)
tp91
a(V"Suddenly"
p92
VBilly Ocean - Suddenly (2009) (GAjInKiOkqo)
tp93
a(V"Things Can Only Get Better"
p94
VHoward Jones - Things Can Only Get Better (-OO9LloDSJo)
tp95
a(V"Heaven"
p96
VBryan Adams - Heaven (s6TtwR2Dbjg)
tp97
a(V"In My House"
p98
VThe Mary Jane Girls - In My House (RENIRXApuW8)
tp99
a(V"Fresh"
p100
VKool & the Gang - Fresh (NChc__dH3jA)
tp101
a(V"Walking on Sunshine"
p102
VKatrina & The Waves - Walking On Sunshine (iPUmE-tne5U)
tp103
a(V"Sussudio"
p104
VPhil Collins: "Sussudio" (ulIruwn40Yo)
tp105
a(V"Angel"
p106
VMadonna - Angel (Album Version) (APO9ZKtiy1c)
tp107
a(V"Raspberry Beret"
p108
VRaspberry Beret (Originally Performed by Prince & The Revolution) (Vocal Version) (R5KXOQkmCrA)
tp109
a(V"A View to a Kill"
p110
VDuran Duran- A View To A Kill (W1-yaZYw-w4)
tp111
a(V"The Search Is Over"
p112
VThe Search Is Over (SURVIVOR) (ZOnjglu2bpM)
tp113
a(V"Would I Lie to You?"
p114
VEurythmics - Would I Lie To You? (Uhpu2N4rQZM)
tp115
a(V"You Give Good Love"
p116
VWitney Houston - You Give Good Love (0gcIttOVTTk)
tp117
a(V"Everytime You Go Away"
p118
VPaul Young - Everytime You Go Away (nfk6sCzRTbM)
tp119
a(V"Voices Carry"
p120
V'Til Tuesday - Voices Carry (uejh-bHa4To)
tp121
a(V"Glory Days"
p122
VBruce Springsteen - Glory Days (6vQpW9XRiyM)
tp123
a(V"The Goonies 'R' Good Enough"
p124
VCyndi Lauper - The Goonies 'R' Good Enough (LxLhytQ67fs)
tp125
a(V"If You Love Somebody Set Them Free"
p126
VSting - If You Love Somebody Set Them Free (LSGl3d4KOMk)
tp127
a(V"Shout"
p128
VTears For Fears - Shout (Ye7FKc1JQe4)
tp129
a(V"Sentimental Street"
p130
VNight Ranger - Sentimental Street (ttdgpD0ZuWM)
tp131
a(V"Never Surrender"
p132
VCorey Hart - Never Surrender Official Video (-4pg6Jh94Lo)
tp133
a(V"Get It On (Bang a Gong)"
p134
VThe Power Station - Get It On (Bang A Gong) (prGSrBLJtnQ)
tp135
a(V"The Power of Love"
p136
VHuey Lewis & the News - The Power of Love Lyrics (WK0z87WrhGo)
tp137
a(V"Who's Holding Donna Now"
p138
VWho's Holding Donna Now (with Lyrics) - El DeBarge (9VDzhx0TB30)
tp139
a(V"Freeway of Love"
p140
VAretha Franklin - Freeway Of Love (Ip_pjb5_fgA)
tp141
a(V"St. Elmo's Fire (Man in Motion)"
p142
VJohn Parr - St Elmo's Fire  (Man In Motion) (EOvMpND2OZY)
tp143
a(V"Summer of '69"
p144
VBryan Adams - Summer Of '69 (eFjjO_lhf9c)
tp145
a(V"We Don't Need Another Hero (Thunderdome)"
p146
VTINA TURNER \u2605 We Don't Need Another Hero (Thunderdome)\u3010music video\u3011 (Gcm-tOGiva0)
tp147
a(V"What About Love?"
p148
VHeart - What About Love? (KE5GGMhmo-M)
tp149
a(V"Cherish"
p150
VKool & The Gang - Cherish (s09LuDYX12g)
tp151
a(V"You're Only Human (Second Wind)"
p152
VBilly Joel - You're Only Human (Second Wind) (YhxjNYvJbgM)
tp153
a(V"Money for Nothing"
p154
VDire Straits - Money For Nothing (wTP2RUD_cL0)
tp155
a(V"Don't Lose My Number"
p156
VDon't Lose My Number Lyrics!- Phil Collins (prXaTe3zzYI)
tp157
a(V"Pop Life"
p158
VPop Life (In the Style of Prince and the Revolution) (Karaoke Version) (sX5n5crznlo)
tp159
a(V"Freedom"
p160
VWham! - Freedom (BFwOs-jy53A)
tp161
a(V"Invincible (Theme from The Legend of Billie Jean)"
p162
VTHE LEGEND OF BILLIE JEAN/ INVINCIBLE PAT BENATAR (ejUG-N8STfM)
tp163
a(V"Oh Sheila"
p164
VReady For The World - Oh Sheila (wbL2lMn34Oo)
tp165
a(V"Dress You Up"
p166
VMadonna - 06. Dress You Up (Dt2Bcn6aY9E)
tp167
a(V"Take on Me"
p168
Va-ha - Take On Me (Official Video) (djV11Xbc914)
tp169
a(V"Saving All My Love for You"
p170
VWhitney Houston - Saving all my love for you Lyrics (8iJpLn98M9w)
tp171
a(V"Lonely Ol' Night"
p172
VJohn Mellencamp - Lonely Ol' Night (SQMkRzWT8mo)
tp173
a(V"Dancing in the Street"
p174
VDavid Bowie & Mick Jagger - Dancing In The Street (9G4jnaznUoQ)
tp175
a(V"Part-Time Lover"
p176
VStevie Wonder - Part Time Lover (Lyrics) (jN2AdOjI4FI)
tp177
a(V"Miami Vice Theme"
p178
VJan Hammer - Crockett's Theme (Miami Vice) (_UmOY6ek_Y4)
tp179
a(V"Fortress Around Your Heart"
p180
VSting - Fortress Around Your Heart (Option Two) (OiPiRKbNCWY)
tp181
a(V"Head Over Heels"
p182
VTears For Fears - Head Over Heels (CsHiG-43Fzg)
tp183
a(V"I'm Goin' Down"
p184
VBruce Springsteen   I'm Goin' Down (3fdZWbIsrFk)
tp185
a(V"You Belong to the City"
p186
VGlenn Frey -  You Belong To The City - HD (j4ueaD22hg8)
tp187
a(V"We Built This City"
p188
VStarship - We Built This City (K1b8AhIsSYQ)
tp189
a(V"Lovin' Every Minute of It"
p190
VLoverboy - Lovin' Every Minute Of It (bohVV_KlSHw)
tp191
a(V"Be Near Me"
p192
VABC - Be Near Me (VhAgQMqVxiE)
tp193
a(V"Separate Lives"
p194
VPhil Collins & Marilyn Martin - Separate Lives (1985) (IkxLTZm-6OE)
tp195
a(V"Lay Your Hands on Me"
p196
VThompson Twins - Lay your hands on me 1985 (_ZW8Ld-pCpg)
tp197
a(V"Broken Wings"
p198
VMr. Mister - Broken Wings (nKhN1t_7PEY)
tp199
a(V"Never"
p200
VHeart - Never (zWzy5q_M5Ho)
tp201
a(V"Who's Zoomin' Who"
p202
VAretha Franklin "Who's Zoomin' Who" (sOXvhUd67-Q)
tp203
a(V"Election Day"
p204
VArcadia (Duran Duran)-Election Day (Long Video) HQ (I3Yy6c0Tlvk)
tp205
a(V"Party All the Time"
p206
VParty All The Time  -  Eddie Murphy  (HQ Audio) (bDbpzjbXUZI)
tp207
a(V"Sleeping Bag"
p208
VZZ Top - Sleeping Bag (OFFICIAL MUSIC VIDEO) (TKJymx2KDWo)
tp209
a(V"Say You, Say Me"
p210
VLionel Richie - Say You Say Me (_7Mi77iqMjA)
tp211
a(V"Alive and Kicking"
p212
VSimple Minds - Alive And Kicking (ljIQo1OHkTI)
tp213
a(V"I Miss You"
p214
VKlymaxx - I Miss You (gvlhHJNppQg)
tp215
a(V"Small Town"
p216
VJohn Mellencamp - Small Town (0CVLVaBECuc)
tp217
a.