(lp1
(V"Always on Time"
p2
VJa Rule - Always On Time ft. Ashanti (0tcDXJfAFVw)
tp3
a(V"My Sacrifice"
p4
VCreed - My Sacrifice (O-fyNgHdmLI)
tp5
a(V"A Woman's Worth"
p6
VAlicia Keys - A Woman's Worth (JtMUIwOE2ss)
tp7
a(V"Wherever You Will Go"
p8
VThe Calling - Wherever You Will Go (iAP9AF6DCu4)
tp9
a(V"Hey Baby"
p10
VNo Doubt - Hey Baby (ft. Bounty Killer) (kcZNsdrGTSg)
tp11
a(V"In the End"
p12
VLinkin Park-In The End Lyrics (5AWbgkRpYwc)
tp13
a(V"Ain't It Funny"
p14
VJennifer Lopez - Ain't It Funny (tr-H8dR0HLo)
tp15
a(V"What About Us?"
p16
VBrandy - What About Us (HD) (WljSD84R3Vo)
tp17
a(V"7 Days"
p18
VCraig David - 7 Days (Official Music Video) (Mpeohn2EdVc)
tp19
a(V"Blurry"
p20
VPuddle Of Mudd - Blurry (xJJsoquu70o)
tp21
a(V"Can't Get You Out of My Head"
p22
VKylie Minogue - Can't Get You Out Of My Head (c18441Eh_WE)
tp23
a(V"Oops (Oh My)"
p24
VTweet feat. Missy Elliott - Oops (Oh My) (Hb37Nh_Sg4g)
tp25
a(V"What's Luv?"
p26
VWhat's Luv? Lyrics [HQ] Fat Joe feat. Ashanti and Ja Rule (pesOprbsDaI)
tp27
a(V"Foolish"
p28
VAshanti - Foolish (gUPrnu3BEU8)
tp29
a(V"Girlfriend"
p30
V'N Sync - Girlfriend (saxnXiBKEaY)
tp31
a(V"U Don't Have to Call"
p32
VUsher - U Don't Have To Call (Official Video) (3AszPTJXIgM)
tp33
a(V"A Thousand Miles"
p34
VVanessa Carlton - A Thousand Miles (Cwkej79U3ek)
tp35
a(V"I Need a Girl (Part One)"
p36
VP. Diddy Feat. Usher & Loon - I Need A Girl (Part One) (HD / Dirty) (lQIGdXtHiLE)
tp37
a(V"Don't Let Me Get Me"
p38
VP!nk - Don't Let Me Get Me (asaCQOZpqUQ)
tp39
a(V"All You Wanted"
p40
VMichelle Branch-all you wanted-Lyrics. (qFFuue0nyRI)
tp41
a(V"Underneath Your Clothes"
p42
VShakira - Underneath Your Clothes (uwBwKcQ1k84)
tp43
a(V"The Middle"
p44
VJimmy Eat World - The Middle - Lyrics (FV-HPOHu8mY)
tp45
a(V"Without Me"
p46
VEminem - Without Me (YVkUvmDQ3HY)
tp47
a(V"Hot in Herre"
p48
VNelly - Hot In Herre (GeZZr_p6vB8)
tp49
a(V"Addictive"
p50
VTRUTH HURTS + RAKIM - ADDICTIVE [HD] (1Sw77Dminl8)
tp51
a(V"Oh Boy"
p52
VCam'Ron - Oh Boy ft. Juelz Santana (9GvB9ySUJ3A)
tp53
a(V"Hero"
p54
VChad Kroeger feat. Josey Scott - Hero (2002) HQ (TmSRMWw8Y_0)
tp55
a(V"I'm Gonna Be Alright"
p56
VJennifer Lopez - I'm Gonna Be Alright (Official Video) (LzX23qVqyJg)
tp57
a(V"Complicated"
p58
VAvril Lavigne - Complicated (Official Video) (5NPBIwQyPWE)
tp59
a(V"I Need a Girl (Part Two)"
p60
VP.Diddy ft Ginuwine & Loon - I Need A Girl (Part 2)* (HX-ZEtLL7ZA)
tp61
a(V"Dilemma"
p62
VNelly - Dilemma ft. Kelly Rowland (8WYHDfJDPDc)
tp63
a(V"Down 4 U"
p64
VJa rule ft ashanti vita and charlie (MJKCq_bjP4c)
tp65
a(V"Just a Friend 2002"
p66
VMario - Just A Friend 2002 (q4BTLoHSGMk)
tp67
a(V"Heaven"
p68
VDJ Sammy feat. Yanou & Do - Heaven (Official Video) (rogM1w6lfBM)
tp69
a(V"Nothin'"
p70
VN.O.R.E. - Nothin' (sul16s0VSzs)
tp71
a(V"Just Like a Pill"
p72
VP!nk - Just Like A Pill (JDKGWaCglRM)
tp73
a(V"Gangsta Lovin'"
p74
VEve - Gangsta Lovin' ft. Alicia Keys (aNI8XFEAyI0)
tp75
a(V"Happy"
p76
VAshanti - Happy ft. Ja Rule (MrCsubL_OSQ)
tp77
a(V"Cleanin' Out My Closet"
p78
VEminem - Cleanin' Out My Closet (RQ9_TKayu9s)
tp79
a(V"Long Time Gone"
p80
VDixie Chicks - Long Time Gone (2c5b8ZtjwwY)
tp81
a(V"One Last Breath"
p82
VCreed - One Last Breath (qnkuBUAwfe0)
tp83
a(V"Gotta Get thru This"
p84
VDaniel Bedingfield- Gotta Get Thru This (uk version) (b4eMyOzD9UI)
tp85
a(V"Hey Ma"
p86
Vcamron Hey Ma feat Juelz Santana & Freaky Zekey (1RPM7gLbA7M)
tp87
a(V"A Moment Like This"
p88
VKelly Clarkson - A Moment Like This (S7b8ADhadJU)
tp89
a(V"Move Bitch"
p90
VLudacris - Move Bitch (Dirty) *LYRICS* (8iOpUdsMeqM)
tp91
a(V"Work It"
p92
VMissy Elliott - Work It (HQ) (zm28EEeyLek)
tp93
a(V"Lose Yourself"
p94
VEminem - Lose Yourself (Official Music Video) (bmXumtgwtak)
tp95
a(V"Luv U Better"
p96
VLL Cool J - Luv U Better (udEN8EdJT9k)
tp97
a(V"Underneath It All"
p98
VNo Doubt - Underneath It All ft. Lady Saw (RvuVFHTvdaY)
tp99
a(V"The Game of Love"
p100
VSantana - The Game Of Love ft. Michelle Branch (HKLnmMacEB4)
tp101
a(V"Sk8er Boi"
p102
VAvril Lavigne - Sk8er Boi (TIy3n2b7V9k)
tp103
a(V"Die Another Day"
p104
VMadonna - Die Another Day  (Official Music Video) (BfvD_brrrTc)
tp105
a(V"Gimme the Light"
p106
VSean Paul - Gimme The Light (Video) Aquired from VP Records (8MmW_GOFS8I)
tp107
a(V"Jenny from the Block"
p108
VJennifer Lopez ft Jadakiss & Styles P - Jenny From The Block (OFFICIAL VIDEO) (wAspbMssXB8)
tp109
a(V"'03 Bonnie & Clyde"
p110
VBeyonce feat Jay Z Bonnie & Clyde (copiznIfV3E)
tp111
a(V"Don't Mess with My Man"
p112
VNivea - Don't mess with my man (ft. Brian and Brandon Casey of Jagged Edge) (8DeUoWIxvsw)
tp113
a.