(lp1
(VLemony Snicket's A Series of Unfortunate Events movie trailer
p2
VLemony Snicket's A series of Unfortunate Events - Trailer (fccho1IyX8Y)
tp3
a(VMean Girls movie trailer
p4
VMean Girls - Trailer (KAOmTMCtGkI)
tp5
a(VThe Notebook movie trailer
p6
VThe Notebook Movie Trailer [HD] (FC6biTjEyZw)
tp7
a(VTroy movie trailer
p8
VTroy (2004) Official Trailer - Brad Pitt, Eric Bana, Orlando Bloom Movie HD (znTLzRJimeY)
tp9
a(VThe Village movie trailer
p10
VThe Village - Movie Trailer (vb0Y89m6fj0)
tp11
a(VThe Incredibles movie trailer
p12
VThe Incredibles (2004) Trailer (eZbzbC9285I)
tp13
a(VWhite Chicks movie trailer
p14
VWhite Chicks - Trailer (xebjMIYduxQ)
tp15
a(VEternal Sunshine of the Spotless Mind movie trailer
p16
VEternal Sunshine of the Spotless Mind Official Trailer (lnSgSe2GzDc)
tp17
a(VThe Girl Next Door movie trailer
p18
VThe Girl Next Door (2004) Trailer Movie (HD) (fX0yxwpR8v8)
tp19
a(VHarry Potter and the Prisoner of Azkaban movie trailer
p20
VHarry Potter and the Prisoner of Azkaban Official Trailer #1 - (2004) HD (lAxgztbYDbs)
tp21
a(VNapoleon Dynamite movie trailer
p22
VNapoleon Dynamite Official Trailer! (ZHDi_AnqwN4)
tp23
a(VThe Aviator movie trailer
p24
VThe Aviator (2004) Official Trailer #1 - Leonardo DiCaprio (FebPJlmgldE)
tp25
a(VCrash movie trailer
p26
VCRASH - Trailer - (2004) (durNwe9pL0E)
tp27
a(VSaw movie trailer
p28
VSaw Re-Release Trailer (2014) - James Wan Horror Movie HD (xDoxuZzhrnw)
tp29
a(VPrimer movie trailer
p30
VPrimer (2004) - Trailer *HD* (3nj5MMURCm8)
tp31
a(VI, Robot movie trailer
p32
VI, Robot - Official Trailer [HD] (rL6RRIOZyCM)
tp33
a(VThe Machinist movie trailer
p34
VThe Machinist trailer (H0fuHY4U1UA)
tp35
a(VDawn of the Dead movie trailer
p36
VDawn Of The Dead 1978 Trailer (PpuNE1cX03c)
tp37
a(VMillion Dollar Baby movie trailer
p38
VMillion Dollar Baby (2004) Official Trailer - Hilary Swank, Clint Eastwood Movie HD (5_RsHRmIRBY)
tp39
a(V13 Going on 30 movie trailer
p40
V13 going on 30 (2004) trailer (j47O_X7y9T0)
tp41
a(VSpider-Man 2 movie trailer
p42
VSpiderman 2 Trailer [HD] (enmFqm_N_ZE)
tp43
a(VThe Phantom of the Opera movie trailer
p44
VPhantom of the Opera Trailer (44w6elsJr_I)
tp45
a(VShaun of the Dead movie trailer
p46
VShaun of the Dead Official Trailer #1 - Simon Pegg Movie (2004) HD (LIfcaZ4pC-4)
tp47
a(VKing Arthur movie trailer
p48
VKing Arthur 2004 Trailer (fqZh1tg_bF4)
tp49
a(VKung Fu Hustle movie trailer
p50
VKung Fu Hustle - Trailer (-m3IB7N_PRk)
tp51
a(VEuroTrip movie trailer
p52
VEuroTrip Trailer (SeoX8MZd81E)
tp53
a(VKill Bill: Vol. 2 movie trailer
p54
VKill Bill: Vol. 2 (2004) Official Trailer - Uma Thurman, David Carradine Action Movie HD (WTt8cCIvGYI)
tp55
a(VNational Treasure movie trailer
p56
VNational Treasure Official Trailer (2004) (mcf4tXYjaxo)
tp57
a(V50 First Dates movie trailer
p58
V50 First Dates Official Trailer 2004 (H1SVxJZTgI4)
tp59
a(VTeam America: World Police movie trailer
p60
VTeam America: World Police (2/10) Movie CLIP - America F*** Yeah (2004) HD (TmoeZHnOJKA)
tp61
a(VDodgeball: A True Underdog Story movie trailer
p62
VDodgeball: A True Underdog Story - Movie Trailer (qUpzAw5Kw7M)
tp63
a(VCollateral movie trailer
p64
VCollateral Movie Trailer (9BDx6ZPHV4w)
tp65
a(VThe Punisher movie trailer
p66
VThe Punisher (2004) Official Marvel trailer (G59cD1NSbS8)
tp67
a(VHellboy movie trailer
p68
VHellboy (2004) - Trailer #1 (557Qpie_KWk)
tp69
a(VThe Butterfly Effect movie trailer
p70
VThe Butterfly Effect (2004) Trailer (B8_dgqfPXFg)
tp71
a(VHowl's Moving Castle movie trailer
p72
VHowl's Moving Castle Official Trailer (MhaAj62njgs)
tp73
a(VDownfall movie trailer
p74
VDownfall trailer (Bp1RXmM1-60)
tp75
a(VA Cinderella Story movie trailer
p76
VA Cinderella Story (2004) Official Trailer - Hilary Duff, Jennifer Coolidge Movie HD (B_VFs9j95gc)
tp77
a(VAnchorman: The Legend of Ron Burgundy movie trailer
p78
VAnchorman: The Legend of Ron Burgundy - Trailer (NJQ4qEWm9lU)
tp79
a(VThe Passion of the Christ movie trailer
p80
VThe Passion of the Christ (2004) Trailer (oSMA5UU8eI4)
tp81
a(VCloser movie trailer
p82
VCLOSER (2004) - Official Movie Trailer (4i1SlznIaZk)
tp83
a(VAlexander movie trailer
p84
VAlexander (2004) Official Trailer - Colin Farell, Angelina Jolie Epic Movie HD (Bh6LKIdxqCU)
tp85
a(VThe Bourne Supremacy movie trailer
p86
VThe Bourne Supremacy Official Trailer #1 - Brian Cox Movie (2004) HD (Y-HqyyfBbSo)
tp87
a(VThe Day After Tomorrow movie trailer
p88
VTHE DAY AFTER TOMORROW (2004) - Official Movie Trailer (jBD9EkOLgiI)
tp89
a(VMan on Fire movie trailer
p90
V"Man On Fire (2004)" Theatrical Trailer (g4kLizDXLY0)
tp91
a(VThe Princess Diaries 2: Royal Engagement movie trailer
p92
VThe Princess Diaries 2: Royal Engagement (2004) Official HQ Trailer (EtVXlpWD6yI)
tp93
a(VAVP: Alien vs. Predator movie trailer
p94
VAVP: Alien vs. Predator (3/5) Movie CLIP - Marking the Hunter (2004) HD (-64q4HpZyaY)
tp95
a(VVan Helsing movie trailer
p96
VVan Helsing Official Trailer #1 (2004) - Hugh Jackman, Kate Beckinsale Movie HD (7pBmXkyycWE)
tp97
a(VThe Life Aquatic with Steve Zissou movie trailer
p98
VThe Life Aquatic with Steve Zissou (2004) Official Trailer #1 - Bill Murray Movie HD (yh401Rmkq0o)
tp99
a(VBefore Sunset movie trailer
p100
VBefore Sunset (2004) Official Trailer #1 - Ethan Hawke Movie (oI3UuneLcyU)
tp101
a.