(lp1
(VTerminator Salvation movie trailer
p2
VTerminator Salvation - Movie Trailer (7MKkkmq-6wo)
tp3
a(VWatchmen movie trailer
p4
VOfficial Watchmen Trailer (R3orQKBxiEg)
tp5
a(VInglourious Basterds movie trailer
p6
VInglourious Basterds Official Trailer #1 - Brad Pitt Movie (2009) HD (KnrRy6kSFF0)
tp7
a(VAvatar movie trailer
p8
VAvatar Movie Trailer [HD] (d1_JBMrrYw8)
tp9
a(VG.I. Joe: The Rise of Cobra movie trailer
p10
VG.I. Joe: Rise of Cobra (2009) Official Trailer - Channing Tatum Movie HD (lDVvFUbnqEM)
tp11
a(VThe Hangover movie trailer
p12
VThe Hangover (2009) Official Trailer #1 - Comedy Movie (tcdUhdOlz9M)
tp13
a(VX-Men Origins: Wolverine movie trailer
p14
VX-Men Origins: Wolverine Trailer (LPmbGzQaOCs)
tp15
a(VHarry Potter and the Half-Blood Prince movie trailer
p16
VHarry Potter Half Blood Prince Full Movie Trailer 2009 HD (L0Jv5DFQW4M)
tp17
a(VSherlock Holmes movie trailer
p18
VSherlock Holmes (2009) Official Trailer #1 - Robert Downey Jr., Jude Law Movie HD (J7nJksXDBWc)
tp19
a(V(500) Days of Summer movie trailer
p20
V500 Days of Summer - Official Full Length Trailer (PsD0NpFSADM)
tp21
a(VStar Trek movie trailer
p22
VStar Trek (2009) Official Trailer - Chris Pine, Eric Bana, Zoe Saldana Movie HD (pKFUZ10Wmbw)
tp23
a(VUp movie trailer
p24
VUP Official Movie Trailer #3 (pkqzFUhGPJg)
tp25
a(VZombieland movie trailer
p26
VZombieland Trailer(HD) (c1-jFLlHLPw)
tp27
a(VThe Human Centipede (First Sequence) movie trailer
p28
VThe Human Centipede (First Sequence) (2009) [Official HD Movie Trailer] ~720p~ (wfvRgp-LTaI)
tp29
a(VMr. Nobody movie trailer
p30
VMr Nobody (2009) [Trailer] (9k8SoLS0KwU)
tp31
a(VThe Proposal movie trailer
p32
VThe Proposal Official Movie Trailer [HQ] (EAtxSDL9uF0)
tp33
a(VMoon movie trailer
p34
V"Moon" - Official Trailer [HQ] (twuScTcDP_Q)
tp35
a(VDistrict 9 movie trailer
p36
VDistrict 9 - trailer (DyLUwOcR5pk)
tp37
a(VOrphan movie trailer
p38
VOrphan - Official Trailer - HD (2009) (WgxVIB2WuHU)
tp39
a(VJennifer's Body movie trailer
p40
VJennifer's Body (official movie trailer) [HQ] (LzuwVIRXAr4)
tp41
a(V3 Idiots movie trailer
p42
V3 Idiots | OFFICIAL trailer #1 US/indian (2009) (K0eDlFX9GMc)
tp43
a(VThe Lovely Bones movie trailer
p44
VThe Lovely Bones - Official Trailer (SQZq0d1vzOE)
tp45
a(VTransformers: Revenge of the Fallen movie trailer
p46
VTransformers 2: Revenge of the Fallen - latest full movie trailer (HQ) (M_5shN_wUUc)
tp47
a(VFast & Furious movie trailer
p48
VFurious 7 - Official Trailer (HD) (Skpu5HaVkOc)
tp49
a(VThe Secret in Their Eyes movie trailer
p50
VSecret in Their Eyes Official Trailer #1 (2015) - Nicole Kidman, Julia Roberts Movie HD (N3b0PFCrayE)
tp51
a(VTriangle movie trailer
p52
VTriangle - Trailer (17XqBdCiHOI)
tp53
a(V2012 movie trailer
p54
V2012 - Full HD trailer - At UK Cinemas November 13 (rvI66Xaj9-o)
tp55
a(V17 Again movie trailer
p56
V17 Again (2009) Official Trailer - Zac Efron, Matthew Perry Movie HD (UQK5Hh0L1Sg)
tp57
a(VThe Blind Side movie trailer
p58
VThe Blind Side (2009) Official Trailer - Sandra Bullock, Tim McGraw Movie HD (gvqj_Tk_kuM)
tp59
a(VFriday the 13th movie trailer
p60
VFriday The 13th Official Trailer (jT-ar9fnjW0)
tp61
a(VPublic Enemies movie trailer
p62
VPublic Enemies Official Trailer #1 - Johnny Depp Movie (2009) HD (Ee92mDZu_PI)
tp63
a(VThe Road movie trailer
p64
VThe Road Movie Trailer HD (94KcI0gLq1A)
tp65
a(VPaul Blart: Mall Cop movie trailer
p66
VPaul Blart: Mall Cop - Official Movie Trailer (LphF3NeOcwo)
tp67
a(VThe Twilight Saga: New Moon movie trailer
p68
VTHE TWILIGHT SAGA: NEW MOON - Trailer (q58iQSHhZGg)
tp69
a(VHe's Just Not That Into You movie trailer
p70
VHe's Just Not That Into You (2009) Theatrical Trailer - Jennifer Aniston Movie HD (3_DHhPckJNo)
tp71
a(VNight at the Museum: Battle of the Smithsonian movie trailer
p72
VNight at the Museum: Battle of the Smithsonian Movie Trailer (g5E7KgkuF9A)
tp73
a(VUp in the Air movie trailer
p74
VUP IN THE AIR (2009) - Official Movie Trailer (rTL1FmvVCuA)
tp75
a(VBride Wars movie trailer
p76
VBRIDE WARS (2009) - Official Movie Trailer (f0Osia6HHXs)
tp77
a(VThe Girl with the Dragon Tattoo movie trailer
p78
VThe Girl With the Dragon Tattoo (2011) NEW Extended Movie Trailer - HD (nCEuGHhU9U8)
tp79
a(VPandorum movie trailer
p80
VPANDORUM - HD TRAILER (PItZ-qr9jG8)
tp81
a(VUnderworld: Rise of the Lycans movie trailer
p82
VUnderworld: Rise of the Lycans - Movie Trailer HQ (English) (RDwogfIAHhs)
tp83
a(VThe Ugly Truth movie trailer
p84
VThe Ugly Truth - Movie Trailer (3FP20RVjzwM)
tp85
a(VCoraline movie trailer
p86
V"Coraline" Official Trailer (LO3n67BQvh0)
tp87
a(VFantastic Mr. Fox movie trailer
p88
VFANTASTIC MR. FOX - Official Theatrical Trailer (n2igjYFojUo)
tp89
a(VChloe movie trailer
p90
VChloe - Official Trailer (JWLEz-1VzSk)
tp91
a(VHachi: A Dog's Tale movie trailer
p92
VHatchi: A Dog's Tale - HD Trailer - Coming Soon (Y6U7mAnPtw4)
tp93
a(VThe Imaginarium of Doctor Parnassus movie trailer
p94
VThe Imaginarium of Doctor Parnassus Trailer HD (Heath's Last Film) (6jU3AimFaz0)
tp95
a(VAntichrist movie trailer
p96
VAntichrist - Official Trailer (eBdDcQONmkM)
tp97
a(VAngels & Demons movie trailer
p98
VANGELS & DEMONS (2009) - Official Movie Trailer (dhMQVeL8Kqw)
tp99
a(VIt's Complicated movie trailer
p100
VIT'S COMPLICATED (2009) - Official Movie Trailer (XltvOeIBVVI)
tp101
a.