(lp1
(VA Clockwork Orange movie trailer
p2
VA Clockwork Orange (1971) HD Trailer (1080p) (xHFPi_3kc1U)
tp3
a(VWilly Wonka & the Chocolate Factory movie trailer
p4
VWilly Wonka & The Chocolate Factory (1971) Official Trailer - Gene Wilder, Roald Dahl Movie HD (2cBja3AbahY)
tp5
a(VDiamonds Are Forever movie trailer
p6
VDiamonds Are Forever (1971) Official Trailer - Sean Connery James Bond Movie HD (9yOamj4mlnE)
tp7
a(VDirty Harry movie trailer
p8
VDirty Harry (1971)  Official Trailer - Clint Eastwood Movie (HjBNldYiUmg)
tp9
a(VThe French Connection movie trailer
p10
VThe French Connection | #TBT Trailer | 20th Century FOX (T76K3RxJY0A)
tp11
a(VThe Last Picture Show movie trailer
p12
VThe Last Picture Show - Movie Trailer (3YQomR5xJ_Y)
tp13
a(VBedknobs and Broomsticks movie trailer
p14
VBedknobs and Broomsticks (1971) Full Movie | Full Fantasy Movie | Family Movie (hDTga2nThwE)
tp15
a(VHarold and Maude movie trailer
p16
VHAROLD AND MAUDE [1971 TRAILER] (5mz3TkxJhPc)
tp17
a(VSupport Your Local Gunfighter movie trailer
p18
VSupport Your Local Sheriff! Official Trailer #1 - Jack Elam Movie (1969) HD (kSYjf8V8GF0)
tp19
a(VStraw Dogs movie trailer
p20
VStraw Dogs (2011) - Official Trailer [HD] (TCrwSCHC6n8)
tp21
a(VFiddler on the Roof movie trailer
p22
VFiddler On The Roof - Trailer (QegNUOg2ajE)
tp23
a(VThe Beguiled movie trailer
p24
VThe Beguiled Official Trailer #1 - Clint Eastwood Movie (1971) HD (n47_BZ2pj5U)
tp25
a(VWalkabout movie trailer
p26
VWalkabout (1971) Trailer (pyMSzeXI5NE)
tp27
a(VVanishing Point movie trailer
p28
VVanishing Point 1971) trailer (fh6ET39xtpw)
tp29
a(VTHX 1138 movie trailer
p30
VTHX 1138  (1971) Official Trailer - George Lucas, Robert Duvall Movie (eHgqfVQWv7s)
tp31
a(VKlute movie trailer
p32
VKlute Trailer 1971 (jE9mCKAfAVQ)
tp33
a(VThe Omega Man movie trailer
p34
VThe Omega Man -Trailer (NUkU18MrBzU)
tp35
a(VSex in the Office movie trailer
p36
VCrossdressing and Changing Sex in the Office Movie Trailer (lGdxVxRNgBQ)
tp37
a(VThe Andromeda Strain movie trailer
p38
VThe Andromeda Strain 2008 Movie Trailer (Qj1XFZN0JzA)
tp39
a(VPlay Misty for Me movie trailer
p40
VPlay Misty For Me Trailer 1971 Movie with Clint Eastwood (HVSw5H0MkpY)
tp41
a(VLawman movie trailer
p42
VKorean Movie \uce58\uc678\ubc95\uad8c (Untouchable Lawmen, 2015) \uc608\uace0\ud3b8 (Trailer) (BIKRrzZi854)
tp43
a(VShaft movie trailer
p44
VShaft - Trailer (DcLG3AfyVDI)
tp45
a(VThe Devils movie trailer
p46
VTHE DEVILS (Ken Russell) 1971 UK-Trailer (tPConeKY3WA)
tp47
a(VCarnal Knowledge movie trailer
p48
VCarnal Knowledge Trailer (sWVknWuUJHE)
tp49
a(VSummer of '42 movie trailer
p50
VSummer of '42 1971 theatrical trailer (l_86PDoqvoI)
tp51
a(VThe Big Boss movie trailer
p52
VThe Big Boss movie trailer (2Vx81Zfc1z0)
tp53
a(VDuck, You Sucker movie trailer
p54
VDUCK YOU SUCKER - TRAILER (THn36Mwmv7U)
tp55
a(VJohnny Got His Gun movie trailer
p56
VMovie Trailer - 1971 - Johnny Got His Gun (yz6dAxRIwBY)
tp57
a(VBig Jake movie trailer
p58
VBig Jake John Wayne Full Movie HD (ic9UtWih194)
tp59
a(VDr Jekyll & Sister Hyde movie trailer
p60
VDR Jekyll Sister Hyde (1971 Trailer) (P6D7bzltR2U)
tp61
a(VThe Panic in Needle Park movie trailer
p62
VThe Panic in Needle Park (1971) Trailer (eNeN9ZU2CSM)
tp63
a(VGet Carter movie trailer
p64
VGet Carter (1971) Official Trailer - Michael Caine, Ian Hendry Movie HD (kV4XrUDBlfM)
tp65
a(VThe Last Valley movie trailer
p66
VLast Valley, The 1971) trailer (jePTp8ckzFo)
tp67
a(VLe Mans movie trailer
p68
VLE MANS - THE MOVIE TRAILER (ybiwlHadCVI)
tp69
a(VBananas movie trailer
p70
VBananas Official Trailer #1 - Woody Allen Movie (1971) HD (8tO1xhgYvUM)
tp71
a(VBilly Jack movie trailer
p72
VBilly Jack (1971) Theatrical Trailer (ZqXvqaBw_iA)
tp73
a(VKidnapped movie trailer
p74
VKidnapped Trailer 2011 HD (Hdwh2c94tzQ)
tp75
a(VTwo-Lane Blacktop movie trailer
p76
VTWO LANE BLACKTOP (trailer) (JKcIGPQST9s)
tp77
a(VMacbeth movie trailer
p78
VMACBETH - OFFICIAL TEASER TRAILER (RgH_OnrYlCk)
tp79
a(VWake in Fright movie trailer
p80
VWake in Fright | 40th Anniversary trailer (2012) (oqWvWR8KYFw)
tp81
a(VEscape from the Planet of the Apes movie trailer
p82
VEscape from the Planet of the Apes (1971 Trailer) (t4OQqg-oL2M)
tp83
a(VDeath in Venice movie trailer
p84
VDeath In Venice (1971) Official Trailer - Luchino Visconti Drama Movie D (-pxn49yWVJk)
tp85
a(VMcCabe & Mrs. Miller movie trailer
p86
VMcCabe & Mrs. Miller (1/8) Movie CLIP - The Arrival of Mrs. Miller (1971) HD (PBAzBWYoR9U)
tp87
a(VFools' Parade movie trailer
p88
VCashing A Check In Amerika: Coming To A Bank Near You... (q1geDeECTBk)
tp89
a(VWomen in Revolt movie trailer
p90
VAndy Warhol's Women In Revolt (1971 Theatrical Trailer) (GE5nowJbjg4)
tp91
a(VJ.W. Coop movie trailer
p92
VJ.w. Coop - Trailer (BiKfffA0Wyo)
tp93
a(VSunday Bloody Sunday movie trailer
p94
VSunday Bloody Sunday Official Trailer #1 - Maurice Denham Movie (1971) HD (YLYLasLqII4)
tp95
a(VBorn to Win movie trailer
p96
VBorn to Win Movie Cinematic Trailer (-QXi1NzUBoE)
tp97
a(VVampyros Lesbos movie trailer
p98
V1971 - Vampyros Lesbos [Trailer] Soledad Miranda LESBIAN Vampires Jesus Franco (5T3Bu7VuZCg)
tp99
a(VThe Hospital movie trailer
p100
VThe Hospital Official Trailer #1 - George C. Scott Movie (1971) HD (HftRP0NAJYg)
tp101
a.