(lp1
(VMad Max movie trailer
p2
VMad Max: Fury Road Official Trailer #1 (2015) - Tom Hardy, Charlize Theron Movie HD (b_4nzm9ICuo)
tp3
a(VThe Warriors movie trailer
p4
VThe Warriors Trailer (MV4cgs-bPic)
tp5
a(VAlien movie trailer
p6
VAlien (1979) Trailer (LjLamj-b0I8)
tp7
a(VApocalypse Now movie trailer
p8
VApocalypse Now (1979) - Original Extended Trailer (IkrhkUeDCdQ)
tp9
a(VRocky II movie trailer
p10
VRocky 2 Official Trailer #1 - Burgess Meredith Movie (1979) HD (6PSSxAGSiCY)
tp11
a(VStar Trek: The Motion Picture movie trailer
p12
VStar Trek: The Motion Picture (2/9) Movie CLIP - Kirk Needs Bones (1979) HD (Rn2-wALgmMk)
tp13
a(VCaligula movie trailer
p14
VCaligula 1979 720p Full movie (mkpQR9wHwbE)
tp15
a(VEscape from Alcatraz movie trailer
p16
VEscape from Alcatraz Trailer [HQ] (UT4kc5jG990)
tp17
a(VKramer vs. Kramer movie trailer
p18
VKRAMER VS. KRAMER - Trailer ( 1979 ) (jNLcfJ06y34)
tp19
a(V10 movie trailer
p20
VTop 10 Best Movie Trailers (QsCbQKqiW-g)
tp21
a(VLife of Brian movie trailer
p22
VLife of Brian (1979) - Terry Jones - Trailer - [HD] (TKPmGjVFbrY)
tp23
a(VMeatballs movie trailer
p24
VMeatballs movie trailer (bwwk9__2qIM)
tp25
a(VThe Rose movie trailer
p26
VThe Rose Trailer (Eq25dUr8M6E)
tp27
a(VThe Jerk movie trailer
p28
VThe Jerk Official Trailer #1 - Steve Martin Movie (1979) HD (goat7QZohhc)
tp29
a(VHair movie trailer
p30
VHair (1979) - Official Trailer (tC0FRKPuZM4)
tp31
a(VThe Amityville Horror movie trailer
p32
VAmityville Horror, The (2005) - Trailer (c5Maq9H1lZ8)
tp33
a(VManhattan movie trailer
p34
VManhattan Trailer 1979 (BNiIMhC8oII)
tp35
a(VMoonraker movie trailer
p36
VMoonraker (1979) Official Trailer - Roger Moore James Bond Movie HD (KFOOjYU16KE)
tp37
a(V1941 movie trailer
p38
V1941 Official Trailer #1 - (1979) HD (6_KOLqpo7z8)
tp39
a(VThe Black Hole movie trailer
p40
VTHE BLACK HOLE Movie Trailer (CqoPFwALnUA)
tp41
a(VOver the Edge movie trailer
p42
VOver The Edge (1979) trailer (ereen__ld8g)
tp43
a(VBeing There movie trailer
p44
V"Being There" Movie Trailer starring Peter Sellers and Shirley MacLaine (FcPQ9gww_qc)
tp45
a(VThe Black Stallion movie trailer
p46
VThe Black Stallion | Original Trailer (8GlZJ4wVLdA)
tp47
a(VStalker movie trailer
p48
VStalker (\u0421\u0442\u0430\u043b\u043a\u0435\u0440) (1979) trailer (GM_GOpfEQUw)
tp49
a(VBreaking Away movie trailer
p50
VBreaking Away trailer (J1jzs6dk4bs)
tp51
a(VThe Muppet Movie movie trailer
p52
V"The Muppet Movie" Original Trailer (1979) (WAYIRDx0AQ0)
tp53
a(VAll That Jazz movie trailer
p54
VAll That Jazz - Chicago (1/12) Movie CLIP (2002) HD (HVyg4MchBYM)
tp55
a(VThe Wanderers movie trailer
p56
VThe Wanderers Trailer 1979 Movie Starring Ken Wahl Jim Youngs (FB7fsg42kXc)
tp57
a(VThe Villain movie trailer
p58
VEk Villain - New Official Trailer (ruO0VrqOkdE)
tp59
a(VHanover Street movie trailer
p60
VHanover Street - Trailer (aouDmt0UPwM)
tp61
a(VQuadrophenia movie trailer
p62
VQuadrophenia (1979) Movie Trailer (Xwp5Fu2KZsc)
tp63
a(V...And Justice for All. movie trailer
p64
V...And Justice for All (1979) Movie Trailer (yUH_iu4SLBw)
tp65
a(VTess movie trailer
p66
V'Tess'  [01] movie trailer & TV commercial - 1981 (xvGZ5XXPCSM)
tp67
a(VNosferatu the Vampyre movie trailer
p68
VUS-Trailer 'Nosferatu the Vampyre' (ZeYpGsEdEZU)
tp69
a(VThe Champ movie trailer
p70
VThe Champ 1979 (Trailor) (BZy04-UWe00)
tp71
a(VHardcore movie trailer
p72
VFirst Look at 'HARDCORE' - The World's First Action P.O.V. Film (UMnURHXFhuE)
tp73
a(VThe Brood movie trailer
p74
VTHE BROOD (1979) Trailer for David Cronenberg's ultimate experience in inner terror (WywpJCF8Dtc)
tp75
a(VPhantasm movie trailer
p76
VPhantasm Official Trailer #1 - Angus Scrimm Movie (1979) HD (RIRVOepV9Ik)
tp77
a(VThe Tin Drum movie trailer
p78
VThe Tin Drum (1979) - Trailer [English Version] (2ewzWkFZOFk)
tp79
a(VZombie movie trailer
p80
VZone 261 (Zon 261) - Official Trailer (Zombie Movie) (YydrzUF6QYE)
tp81
a(VWhen a Stranger Calls movie trailer
p82
VWhen a Stranger Calls (2006) - Official Trailer [HQ] (1U8QyDsjgIo)
tp83
a(VTime After Time movie trailer
p84
VTime After Time (1979) Official Trailer - Malcolm McDowell Movie Adventure Movie HD (huziaaaEd1s)
tp85
a(VThe Concorde... Airport '79 movie trailer
p86
VThe Concorde ... Airport '79 Official Trailer #1 - George Kennedy Movie (1979) HD (BdwoWbBduxw)
tp87
a(VLupin III: The Castle of Cagliostro movie trailer
p88
VCastle of Cagliostro - Char Chase (oxbum3is6G0)
tp89
a(VThe China Syndrome movie trailer
p90
VThe China Syndrome (1979) HD trailer (6PJ-BzXAN1c)
tp91
a(VThe Electric Horseman movie trailer
p92
VTHE ELECTRIC HORSEMAN (F_010gRfwBQ)
tp93
a(VBeneath the Valley of the Ultra-Vixens movie trailer
p94
VBeneath the valley Ultra Vixens Trailer (FOg00xb4zIU)
tp95
a(VBirth of the Beatles movie trailer
p96
VBirth of The Beatles (Uncut European version) (HKQDLVIPmTo)
tp97
a(VThe Frisco Kid movie trailer
p98
VThe Frisco Kid (1979) Trailer (q9EySCBPodM)
tp99
a(VScum movie trailer
p100
VScum Trailer (UNTeYJE5Q0k)
tp101
a.