(lp1
(VMary Poppins movie trailer
p2
VMary Poppins (1964): Trailer HQ (nOfH7uEojKk)
tp3
a(VDr. Strangelove or: How I Learned to Stop Worrying and Love the Bomb movie trailer
p4
VDr. Strangelove Or: How I Learned To Stop Worrying And Love The Bomb - Trailer (98NaJ8ss4sY)
tp5
a(VMy Fair Lady movie trailer
p6
VMy Fair Lady Trailer (C0xhzA78u4Q)
tp7
a(VMarnie movie trailer
p8
VMarnie Official Trailer #1 - Sean Connery Movie (1964) HD (QV_2-v_dsAU)
tp9
a(VGoldfinger movie trailer
p10
V007 #3: Goldfinger - Official Trailer [1964] (94UpZMvUvEk)
tp11
a(VA Fistful of Dollars movie trailer
p12
VA Fistful of Dollars (1/9) Movie CLIP - Get Three Coffins Ready (1964) HD (Sv_GcxkmW4Y)
tp13
a(VZorba the Greek movie trailer
p14
VZorba O Grego (1964) - Trailer (6KWxpZHdE9E)
tp15
a(VZulu movie trailer
p16
VZulu Theatrical Movie Trailer (1964) (JNV2M-WOgMM)
tp17
a(VA Hard Day's Night movie trailer
p18
VA Hard Day's Night Official Remastered Trailer (2014) - The Beatles Movie HD (TWbiVqlSMgc)
tp19
a(VHush...Hush, Sweet Charlotte movie trailer
p20
VHush Hush...Sweet Charlotte movie trailer. (MxBvn_-WIo4)
tp21
a(VFather Goose movie trailer
p22
VFather Goose (1964) Trailer (0wD8Nm_13w4)
tp23
a(VThe Fall of the Roman Empire movie trailer
p24
VThe Fall Of The Roman Empire Trailer (ekY9D1USKM0)
tp25
a(VTopkapi movie trailer
p26
VTopkapi Official Trailer #1 - Robert Morley Movie (1964) HD (Giv4-gNKePg)
tp27
a(VThe Last Man on Earth movie trailer
p28
VThe Last Man On Earth Trailer (FjZkORiXIrE)
tp29
a(VA Shot in the Dark movie trailer
p30
VA Shot in the Dark Official Trailer #1 (1964) - Peter Sellers Movie HD (v8K1e2hxqs4)
tp31
a(VFail Safe movie trailer
p32
VFail Safe (2000) - Trailer (p-6xcIUwPto)
tp33
a(VGodzilla vs. The Thing movie trailer
p34
VGodzilla Vs The Thing Trailer 1964 (UsP_vCffBe4)
tp35
a(VBecket movie trailer
p36
VBecket (1964) Trailer (ArLJHj4WKYA)
tp37
a(VThe Night of the Iguana movie trailer
p38
VThe Night of the Iguana Official Trailer #1 - Deborah Kerr Movie (1964) HD (edTOpGBylNI)
tp39
a(VThe Train movie trailer
p40
VThe Train - Trailer (DTXxsFYZCtc)
tp41
a(VViva Las Vegas movie trailer
p42
VViva Las Vegas Official Trailer #1 - Elvis Presley Movie (1964) HD (4CUpdmvx9Ok)
tp43
a(VThe Umbrellas of Cherbourg movie trailer
p44
VThe Umbrellas of Cherbourg - 50th Anniversary - on Blu-Ray and DVD (eqzQn15mFao)
tp45
a(VThe Yellow Rolls-Royce movie trailer
p46
VIngrid Bergman -- The Yellow Rolls-Royce # 01 (kEc6TlANrmI)
tp47
a(VSeven Days in May movie trailer
p48
VSeven Days In May (1964) Official Trailer - Burt Lancaster, Kirk Douglas Conspiracy Movie HD (HWL06waOAGw)
tp49
a(VParis When It Sizzles movie trailer
p50
VParis When It Sizzles (1964) Official Trailer #1 - Audrey Hepburn Movie HD (arz6IfPTGsM)
tp51
a(VRed Desert movie trailer
p52
VRED DESERT Trailer (1964) - The Criterion Collection (0uVPQG01JHk)
tp53
a(VThe Incredible Mr. Limpet movie trailer
p54
VThe Incredible Mr. Limpet (1964) Official Trailer - Don Knotts, Carole Cook Movie HD (pSm6oQcsc3I)
tp55
a(VThe Killers movie trailer
p56
V'Killers' Movie Trailer (k6SgvLYQV3s)
tp57
a(VRobin and the 7 Hoods movie trailer
p58
VRobin and the 7 Hoods (1964) Official Trailer - Frank Sinatra, Dean Martin Comedy Movie HD (19GsHdus_Vs)
tp59
a(VMarriage Italian Style movie trailer
p60
VMovie Trailer: Marriage Italian Style [Classic Italian Comedy by Vittorio De Sica] (P6uet52rP6k)
tp61
a(VBand of Outsiders movie trailer
p62
VBande a Part Trailer (HzVNh8glTok)
tp63
a(VSurf Party movie trailer
p64
VSurf Party Trailer (2013) - National Lampoon Movie (H2lBRT86FWw)
tp65
a(VGhidorah, the Three-Headed Monster movie trailer
p66
VGhidorah, the Three-Headed Monster (trailer) (vC4rMWD7MXw)
tp67
a(VThe Pawnbroker movie trailer
p68
VYou People - The Pawnbroker (3/8) Movie CLIP (1964) HD (5clBF38sqqw)
tp69
a(VKing & Country movie trailer
p70
VKing and Country - Trailer (WyJbgh9ZNZg)
tp71
a(VSanta Claus Conquers the Martians movie trailer
p72
VSanta Claus Conquers The Martians (Trailer) (HnEJrwYXXsI)
tp73
a(VOnibaba movie trailer
p74
VOnibaba 1964 (ydCt3cVCPew)
tp75
a(VKwaidan movie trailer
p76
VKwaidan Trailer (XG5mvupo9Wc)
tp77
a(VThe Unsinkable Molly Brown movie trailer
p78
VThe Unsinkable Molly Brown - Trailer (Vk10MoMpMIA)
tp79
a(VDead Ringer movie trailer
p80
VDead Ringers 1988 Trailer (_xmheE3L19c)
tp81
a(VThe Troops of St. Tropez movie trailer
p82
Vextrait - Le Gendarme De Saint Tropez (Lc-sZBVcLRE)
tp83
a(VThe Moon-Spinners movie trailer
p84
VThe Moon-Spinners | Full Kids Movie | Family Film (IK7LNPeuC1s)
tp85
a(VKiss Me, Stupid movie trailer
p86
VKiss Me, Stupid   Original Trailer (6B0UT8jgXc4)
tp87
a(VRobinson Crusoe on Mars movie trailer
p88
VRobinson Crusoe on Mars - Theatrical Trailer (pyn-xqmMt_g)
tp89
a(VThe Masque of the Red Death movie trailer
p90
VTheatrical Trailer - The Masque of the Red Death (Vincent Price) (vCUtm7mCF4I)
tp91
a(VThe Naked Kiss movie trailer
p92
VThe Naked Kiss (1964) trailer (rY0qic-i38k)
tp93
a(VThe Gospel According to St. Matthew movie trailer
p94
VThe Gospel According to St. Matthew - Trailer (k7DnjPrpc4E)
tp95
a(VThe Americanization of Emily movie trailer
p96
VThe Americanization of Emily Official Trailer #1 - Keenan Wynn Movie (1964) HD (kuSBTMk1hKM)
tp97
a(VBehold a Pale Horse movie trailer
p98
VBehold A Pale Horse - Trailer (4cAwvmJkJxo)
tp99
a(VRide the Wild Surf movie trailer
p100
VRIDE THE WILD SURF 1964 Movie Trailer (AIWqIBLzCeM)
tp101
a.