(lp1
(VBeyond the Valley of the Dolls movie trailer
p2
VBEYOND THE VALLEY OF THE DOLLS TRAILER with ERICA GAVIN (aG1Evpq2wXA)
tp3
a(VThe Railway Children movie trailer
p4
VThe Railway Childern Full  TV Movie  2000. (hrRAiBkKAgY)
tp5
a(VMASH movie trailer
p6
VMASH - Movie Trailer (1gNvuJ7IbTw)
tp7
a(VThe AristoCats movie trailer
p8
VAristocats - Trailer (wjA5LWNUPDY)
tp9
a(VFive Easy Pieces movie trailer
p10
VFive Easy Pieces - Trailer - (1970) (inIRtrZIvwU)
tp11
a(VKelly's Heroes movie trailer
p12
VKelly's Heroes (1970) Official Trailer - Clint Eastwood, Donald Sutherland War Movie HD (Iby1Ni0VJxg)
tp13
a(VLove Story movie trailer
p14
VIts Kind of a Funny Story Movie Trailer (HD) (cyFCpQK-j7U)
tp15
a(VPatton movie trailer
p16
VPatton Theatrical Movie Trailer (1970) (g-0dTpzNzwo)
tp17
a(VLittle Big Man movie trailer
p18
VLittle Big Man 1970 Trailer VHS Rip (QPTjmpOusm4)
tp19
a(VCatch-22 movie trailer
p20
VNo Clothes - Catch-22 (7/10) Movie CLIP (1970) HD (0bkaFNVY2UQ)
tp21
a(VDonkey Skin movie trailer
p22
VDonkey Skin (baking the magic cake) (1HysasPjF84)
tp23
a(VEl Topo movie trailer
p24
VEl Topo (Official Trailer)- Alejandro Jodorowsky (6Uqb4Jy0GTg)
tp25
a(VTora! Tora! Tora! movie trailer
p26
VTora! Tora! Tora! - Trailer (-n1pKsGqrqQ)
tp27
a(VValerie and Her Week of Wonders movie trailer
p28
VVALERIE & HER WEEK OF WONDERS Trailer (LPyPEraG74c)
tp29
a(VAirport movie trailer
p30
VAirport Trailer (n7H9phhHlog)
tp31
a(VRyan's Daughter movie trailer
p32
VRyan's Daughter (1970) Trailer (T0qXgUvQo2s)
tp33
a(VBeneath the Planet of the Apes movie trailer
p34
VMovie Trailer - 1970 - Beneath The Planet of the Apes (c60UFX1hcas)
tp35
a(VThere's a Girl in My Soup movie trailer
p36
VTheres A Girl In My Soup    Movie Clip Good Taste Funny Clip - Everything Peter Sellers \u2013 (WnrEBAGJMPk)
tp37
a(VThey Call Me Trinity movie trailer
p38
VTHEY CALL ME TRINITY TRAILER (fkZQ5iXSMs8)
tp39
a(VCount Dracula movie trailer
p40
VDracula Untold Official Trailer #1 (2014) - Luke Evans, Dominic Cooper Movie HD (hZFZxEnB7ws)
tp41
a(VThe Conformist movie trailer
p42
VThe Conformist ( il conformista ) Theatrical Trailer by Bernardo Bertolucci (QWZO1GLMD2Y)
tp43
a(VTwo Mules for Sister Sara movie trailer
p44
VTwo Mules for Sister Sara Official Trailer #1 - Alberto Morin Movie (1970) HD (6fYdd6EFVrY)
tp45
a(VRio Lobo movie trailer
p46
VRio Lobo 1970 John Wayne High Definition Full Western Movie English (VCy4g3tEVsM)
tp47
a(VLe Cercle Rouge movie trailer
p48
VLe cercle rouge - bande annonce (fAWnRWlhhRA)
tp49
a(VPerformance movie trailer
p50
VPerformance (1970) Vintage Trailer (Uncut and Uncensored) Mick Jagger And James Fox (wFxfn3LakeM)
tp51
a(VZabriskie Point movie trailer
p52
VPink Floyd - Zabriskie Point - Love Scene Version 4 (nZVKJwRUjlE)
tp53
a(VA Man Called Horse movie trailer
p54
VA Man Called Horse 1970 (Q0aR4XNcroM)
tp55
a(VWaterloo movie trailer
p56
VOriginal Movie Trailer  'Waterloo'(1970) (JmRDwWiz6kw)
tp57
a(VChisum movie trailer
p58
VChisum - Trailer (_V291WgiyRU)
tp59
a(VBloody Mama movie trailer
p60
VBloody Mama (Trailer) (vw6XpAkpXws)
tp61
a(VThe Boys in the Band movie trailer
p62
VThe Boys In The Band (1970) Trailer | William Friedkin (WIeQwDRHrKc)
tp63
a(VThe Private Life of Sherlock Holmes movie trailer
p64
VThe Private Life of Sherlock Holmes - Trailer (jTBTDeFfAE0)
tp65
a(VMyra Breckinridge movie trailer
p66
VMyra Breckinridge (1970) "A" trailer (xlgBq_7UvkE)
tp67
a(VThe Twelve Chairs movie trailer
p68
VThe Twelve Chairs (1970) Movie Trailer (starring Frank Langella) (Wt1lHyuTDWE)
tp69
a(VSoldier Blue movie trailer
p70
VSoldier Blue | 1970 | Original Trailer | Ralph Nelson (LqgXa1NUExI)
tp71
a(VScars of Dracula movie trailer
p72
VScars of Dracula / Original Theatrical Trailer (1970) (Zw1HJEQjz60)
tp73
a(VColossus: The Forbin Project movie trailer
p74
VWidescreen Trailer for "Colossus: The Forbin Project" (SmSsXoPxi0M)
tp75
a(VThe Out of Towners movie trailer
p76
VTHE OUT OF TOWNERS (1999) - Official Movie Trailer #2 HD (erByzW27zEM)
tp77
a(VEugenie... the Story of Her Journey Into Perversion movie trailer
p78
VEugenie: Story of Her Journey into Perversion (1970) trailer (xIc6pxEFHJs)
tp79
a(VThe Ballad of Cable Hogue movie trailer
p80
VBallad of Cable Hogue - Trailer (_4WgxKTJ09E)
tp81
a(VThe Vampire Lovers movie trailer
p82
VThe Vampire Lovers trailer (1970) (StTTfl8SU5k)
tp83
a(VRoxanna movie trailer
p84
VRoxanne.1987.Trailer.avi (sUgPNU_mRLQ)
tp85
a(VJoe movie trailer
p86
VJOE Trailer (Nicolas Cage - 2014) (3WPLVEUx5AU)
tp87
a(VMonte Walsh movie trailer
p88
VMonte Walsh 1970 mp4 ger. (zUjCz0x2gTY)
tp89
a(VOn a Clear Day You Can See Forever movie trailer
p90
VOn A Clear Day... (8/8) Movie CLIP - On a Clear Day You Can See Forever (1970) HD (x1BpKIb7Ces)
tp91
a(VThe Confession movie trailer
p92
VThe Confession Trailer (cdPxJTwAYZI)
tp93
a(VWhere's Poppa? movie trailer
p94
VWHERE'S POPPA? [1970 TRAILER] (z4qUk0EcMt4)
tp95
a(VLovers and Other Strangers movie trailer
p96
VLOVERS AND OTHER STRANGERS Veiny Veal Bea Arthur & Richard Castellano 1970 (rOxm5D-brf4)
tp97
a(VSometimes a Great Notion movie trailer
p98
VSometimes A Great Notion 1970) trailer (kJz8JEEjGrI)
tp99
a(VThey Call Me Mister Tibbs! movie trailer
p100
VThey Call Me MISTER Tibbs! Official Trailer #1 - Jeff Corey Movie (1970) HD (BbVpiDD1EQE)
tp101
a.