(lp1
(VFight Club movie trailer
p2
VFight Club Official Trailer (1999) Brad Pitt, Edward Norton Movie HD (_XgQA9Ab0Gw)
tp3
a(VThe Matrix movie trailer
p4
VThe Matrix (1999) Official Trailer #1 - Sci-Fi Action Movie (vKQi3bBA1y8)
tp5
a(VAmerican Beauty movie trailer
p6
VAmerican Beauty - Trailer (3ycmmJ6rxA8)
tp7
a(VBig Daddy movie trailer
p8
VBig Daddy Trailer HD (J_l5fMb1oxg)
tp9
a(VAmerican Pie movie trailer
p10
VAmerican Pie Official Trailer #1 - (1999) HD (iUZ3Yxok6N8)
tp11
a(VStar Wars: Episode I - The Phantom Menace movie trailer
p12
VSTAR WARS Episode I: THE PHANTOM MENACE (1999) - Official Movie Trailer (qV1T2DJBwIs)
tp13
a(V10 Things I Hate About You movie trailer
p14
V10 Things I Hate About You -Official Trailer #1 (1999) Heath Ledger Movie (uE7qjQlfoRs)
tp15
a(VThe Sixth Sense movie trailer
p16
VThe Sixth Sense (1999) - Official Trailer (lXO0he1WjYw)
tp17
a(VDrive Me Crazy movie trailer
p18
VDrive Me Crazy - Trailer (1_f1dGF9U8c)
tp19
a(VThe Green Mile movie trailer
p20
VThe Green Mile (1999) Official Trailer - Tom Hanks Movie HD (Ki4haFrqSrw)
tp21
a(VEyes Wide Shut movie trailer
p22
VEyes Wide Shut - Official Trailer [1999] HD (YEfyfcEdW4Y)
tp23
a(VThe Mummy movie trailer
p24
VThe Mummy Official Trailer #1 - Brendan Fraser Movie (1999) HD (f7oKxlaUBac)
tp25
a(VOffice Space movie trailer
p26
VOffice Space - Movie Trailer (_IwzZYRejZQ)
tp27
a(VCruel Intentions movie trailer
p28
VCruel Intentions Trailer 1999 (SCFR2vpMIQU)
tp29
a(VNotting Hill movie trailer
p30
VNotting Hill Official Trailer #1 - (1999) HD (4RI0QvaGoiI)
tp31
a(VShe's All That movie trailer
p32
VShe's All That - Trailer (kI9fYsgduGE)
tp33
a(VVarsity Blues movie trailer
p34
VVarsity Blues - Trailer (eSnkWiacUW4)
tp35
a(VTarzan movie trailer
p36
VTarzan (1999) Trailer (lfciC33t3M0)
tp37
a(VGirl, Interrupted movie trailer
p38
VGirl, Interrupted - Trailer (5BHHUBZf7y4)
tp39
a(VToy Story 2 movie trailer
p40
VToy Story 2 - Official Trailer #2 [1999] (Lu0sotERXhI)
tp41
a(VThe 13th Warrior movie trailer
p42
VThe 13th Warrior - Trailer (MajXUcUI9D0)
tp43
a(VThe Boondock Saints movie trailer
p44
VBoondock Saints (Official Trailer) (ydXojYfCF3I)
tp45
a(VThe Virgin Suicides movie trailer
p46
VThe Virgin Suicides - Movie Trailer (Lvtf70G_b44)
tp47
a(VThe Iron Giant movie trailer
p48
VTHE IRON GIANT trailer (OTnu-cGP17w)
tp49
a(VThe Talented Mr. Ripley movie trailer
p50
VThe Talented Mr. Ripley [Trailer] (1CfVgcSltjc)
tp51
a(VWild Wild West movie trailer
p52
VWild Wild West (1999) Official Trailer - Will Smith, Salma Hayek Movie HD (It89i3W-v4s)
tp53
a(VMagnolia movie trailer
p54
VMagnolia (1999) Official Trailer #1 - Paul Thomas Anderson Movie (KnamcFv_N9Q)
tp55
a(VSleepy Hollow movie trailer
p56
VSleepy Hollow - Trailer - (1999) - HQ (R6O4Himch7g)
tp57
a(VDeep Blue Sea movie trailer
p58
VDeep Blue Sea - Trailer (GCs2slK8GkY)
tp59
a(VThe Blair Witch Project movie trailer
p60
VThe Blair Witch Project (1999) - Trailer (a_Hw4bAUj8A)
tp61
a(VAustin Powers: The Spy Who Shagged Me movie trailer
p62
VAustin Powers: The Spy Who Shagged Me - Trailer (mYVb4OLk4NQ)
tp63
a(VThe Thomas Crown Affair movie trailer
p64
VThe Thomas Crown Affair (1999) - Trailer (B3AlaszZSJU)
tp65
a(VBeing John Malkovich movie trailer
p66
VBeing John Malkovich (8/11) Movie CLIP - Malkovich Inside Malkovich (1999) HD (Q6Fuxkinhug)
tp67
a(VDogma movie trailer
p68
VDogma trailer (20CRw3XdETA)
tp69
a(VPayback movie trailer
p70
VPayback - Trailer (vpV9eIXbVlU)
tp71
a(VAny Given Sunday movie trailer
p72
VAny Given Sunday - Official Movie Trailer (SpiN87Miqrg)
tp73
a(VThe World Is Not Enough movie trailer
p74
VThe World Is Not Enough (1999) Official Trailer - Pierce Brosnan James Bond Movie HD (9nH1DwQP2Xs)
tp75
a(VEntrapment movie trailer
p76
VEntrapment Official Trailer (y9I9gKyaH18)
tp77
a(VStuart Little movie trailer
p78
VStuart Little - Movie Trailer (Rpl4NI5GT-c)
tp79
a(VTitus movie trailer
p80
VTitus (1999) - Trailer (OvZRvKf78yY)
tp81
a(VMansfield Park movie trailer
p82
VMansfield Park (1999) HQ trailer (LaiSsbu3Yv4)
tp83
a(VGalaxy Quest movie trailer
p84
VGalaxy Quest - Trailer [HD] (VtHM77IRkus)
tp85
a(VDetroit Rock City movie trailer
p86
VDetroit Rock City Trailer (JBTg_CW9kQQ)
tp87
a(VThree Kings movie trailer
p88
VThree Kings - Movie Trailer (g-3jXrNUsLY)
tp89
a(VEnd of Days movie trailer
p90
VEnd of Days Official Trailer (SzkwtbyiaME)
tp91
a(VNever Been Kissed movie trailer
p92
VNever Been Kissed Trailer (1999) (d97O5zOBwcw)
tp93
a(VThe Insider movie trailer
p94
VThe Insider 1999 Movie Trailer (zaYNT9ZMqW4)
tp95
a(VeXistenZ movie trailer
p96
VeXistenZ (1999) - Trailer (HAdbdUt_h9M)
tp97
a(VSouth Park: Bigger Longer & Uncut movie trailer
p98
VSouth Park: Bigger, Longer & Uncut - Trailer (aav9EyVjtWc)
tp99
a(VMystery Men movie trailer
p100
VMystery Men Official Trailer #1 - (1999) HD (weL-NjlIQ0E)
tp101
a.