(lp1
(VJaws 2 movie trailer
p2
VJaws 2 (1978) - Movie Trailer (xJi8Oek6_iU)
tp3
a(VGrease movie trailer
p4
VGrease (1978) - Trailer (yNhZNp9GXb8)
tp5
a(VSuperman movie trailer
p6
VBatman v Superman: Dawn of Justice Official Trailer #1 (2016) - Henry Cavill, Ben Affleck Movie HD (bha24P9uw-E)
tp7
a(VThe Deer Hunter movie trailer
p8
VThe Deer Hunter - Trailer - (1978) - HQ (3Gqit3zVmyc)
tp9
a(VHalloween movie trailer
p10
VHalloween (Movie Trailer) (_u8blffLgtc)
tp11
a(VAnimal House movie trailer
p12
VAnimal House Official Trailer #1 - Tom Hulce Movie (1978) HD (KWjtI6n5xWM)
tp13
a(VPretty Baby movie trailer
p14
VPretty Baby 1978 Trailer (MMkgknh-DxU)
tp15
a(VInvasion of the Body Snatchers movie trailer
p16
VInvasion of the Body Snatchers Official Trailer #1 - Donald Sutherland Movie (1978) HD (4Y4dv1TWv5M)
tp17
a(VMidnight Express movie trailer
p18
VMidnight Express Trailer (1978) (CymAuZx4G1U)
tp19
a(VI Spit on Your Grave movie trailer
p20
VI Spit On Your Grave - Official Trailer 2010 (J3zDSzULMqM)
tp21
a(VThe Inglorious Bastards movie trailer
p22
VInglourious Basterds Official Trailer #1 - Brad Pitt Movie (2009) HD (KnrRy6kSFF0)
tp23
a(VDawn of the Dead movie trailer
p24
VDawn Of The Dead 1978 Trailer (PpuNE1cX03c)
tp25
a(VWatership Down movie trailer
p26
VWatership Down - Trailer (1978) (ji-LqBskNyE)
tp27
a(VThe Wiz movie trailer
p28
VThe Wiz Official Trailer #1 - Michael Jackson Movie (1978) HD (CGtnHaEK66s)
tp29
a(VDays of Heaven movie trailer
p30
VDays Of Heaven -  Trailer (1978) (LlZDsMCW0U4)
tp31
a(VDeath on the Nile movie trailer
p32
VDeath On The Nile Trailer 1978 (zrbO9JjmWMc)
tp33
a(VUp in Smoke movie trailer
p34
VUp In Smoke - Trailer (dK8ay-DlTzM)
tp35
a(VEvery Which Way But Loose movie trailer
p36
VEvery Which Way But Loose Trailer 1978 Movie with Clint Eastwood (OEnU6K_gpbo)
tp37
a(VThe Lord of the Rings movie trailer
p38
VThe Lord of the Rings: The Return of the King Official Trailer #1 - (2003) HD (r5X-hFf6Bwo)
tp39
a(VHeaven Can Wait movie trailer
p40
VHeaven Can Wait - Trailer (EAQ828xEADw)
tp41
a(VPiranha movie trailer
p42
VPiranha 2010 HD (QFe_CI7U3Lw)
tp43
a(VThe Fury movie trailer
p44
VFury Official Trailer (2014) - Brad Pitt, Shia LaBeouf War Movie HD (DNHuK1rteF4)
tp45
a(VFoul Play movie trailer
p46
VFOUL PLAY (1978) - ORIGINAL THEATRICAL TRAILER (elHoRhGrTiE)
tp47
a(VConvoy movie trailer
p48
VConvoy (1978) U.S. Trailer Directed by Sam Peckinpah (T5RI30RJIPk)
tp49
a(VThe Boys from Brazil movie trailer
p50
VBoys From Brazil Trailer (WzKkgg8Aw_0)
tp51
a(VDamien: Omen II movie trailer
p52
VDamien: Omen 2 (1978) - Trailer (tidGIbqEvdA)
tp53
a(VF.I.S.T. movie trailer
p54
VF.I.S.T (1978) Trailer (rAndBxYrTBE)
tp55
a(VGame of Death movie trailer
p56
VGame of Death - Official Trailer (2010) (973jeNA7SFc)
tp57
a(VDrunken Master movie trailer
p58
VThe Legend of Drunken Master (4/12) Movie CLIP - The Purse Snatchers (1994) HD (Nlyai-wfZLw)
tp59
a(VComa movie trailer
p60
VComa [1978] (Dhm4w-6JqUQ)
tp61
a(VComing Home movie trailer
p62
VComing Home Official US Release Trailer #1 (2015) - Gong Li Movie HD (BPy52ucN0aM)
tp63
a(VParadise Alley movie trailer
p64
VParadise Alley Trailer 1978 Movie Sylvester Stallone Armand Assante (4eqizD3oH60)
tp65
a(VForce 10 from Navarone movie trailer
p66
VForce 10 from Navarone Official Trailer #1 - Harrison Ford Movie (1978) HD (AsNs9ICmJ3g)
tp67
a(VSgt. Pepper's Lonely Hearts Club Band movie trailer
p68
VSgt. Pepper's Lonely Hearts Club Movie Trailer (OJtHExo_Jqk)
tp69
a(VGoin' South movie trailer
p70
VGoin' South (1/8) Movie CLIP - I'll Take Him (1978) HD (d51N1kUa4lw)
tp71
a(VA Wedding movie trailer
p72
VJenny's Wedding Official Trailer #1 (2015) - Alexis Bledel, Katherine Heigl Movie HD (MsRh-PTeXzw)
tp73
a(VSame Time, Next Year movie trailer
p74
VSame Time Next Year opening (vKlOdxY9OdI)
tp75
a(VThe Driver movie trailer
p76
VDrive - Movie Trailer (2011) HD (KBiOF3y1W0Y)
tp77
a(VThe Wild Geese movie trailer
p78
VTHE WILD GEESE(1978) Original Theatrical Trailer (nNef4MC4ldo)
tp79
a(VThe Great Train Robbery movie trailer
p80
VThe First Great Train Robbery (1978) - Official movie trailer (WYuWpiu6QVM)
tp81
a(VRevenge of the Pink Panther movie trailer
p82
VRevenge of the Pink Panther (1/12) Movie CLIP - A Bomb! (1978) HD (8P2ERa5beGw)
tp83
a(VCalifornia Suite movie trailer
p84
VCalifornia Suite(1978)  - Walter Matthau Tribute (GTHhNdCj9Fc)
tp85
a(VBattlestar Galactica movie trailer
p86
VBattlestar Galactica HD trailer (TnYsf2Yv8i8)
tp87
a(VCandido erotico movie trailer
p88
VCandido Erotico - Scena Hippy - film  1977-78 (iwGSPmZKSmc)
tp89
a(VAttack of the Killer Tomatoes! movie trailer
p90
VAttack of the Killer Tomatoes Trailer (txfdGlxEsG8)
tp91
a(VLa Cage aux Folles movie trailer
p92
VLa cage aux folles Official Trailer #1 - Michel Serrault Movie (1978) HD (ESj8IEcyixg)
tp93
a(VThe Cheap Detective movie trailer
p94
VAnn Margret in The Cheap Detective (1978) [HD] (d_h3PCIVSXo)
tp95
a(VThe Buddy Holly Story movie trailer
p96
VThe Buddy Holly Story Trailer 1978 (rjzaqY-FA9Q)
tp97
a(VAutumn Sonata movie trailer
p98
VAutumn Sonata - trailer (wHd4ymdGAGA)
tp99
a(VStraight Time movie trailer
p100
VStraight Time (1978) Official Trailer - Dustin Hoffman, Theresa Russell Movie HD (A-K6_DPjrTU)
tp101
a.