(lp1
(VHarry Potter and the Deathly Hallows: Part 2 movie trailer
p2
V"Harry Potter and the Deathly Hallows - Part 2" Trailer 2 (5NYt1qirBWg)
tp3
a(VCaptain America: The First Avenger movie trailer
p4
VCaptain America: The First Avenger Movie Trailer 2 Official (HD) (ZCTv6i3589A)
tp5
a(VWarrior movie trailer
p6
VWarrior (2011) Movie Trailer HD (I5kzcwcQA1Q)
tp7
a(VThe Help movie trailer
p8
VThe Help Movie Trailer Official (HD) (J_ajv_6pUnI)
tp9
a(VBridesmaids movie trailer
p10
VBridesmaids Movie Trailer Official (HD) (1UW9Zks5L2A)
tp11
a(VX-Men: First Class movie trailer
p12
VX-Men: First Class Movie Trailer 2 Official (HD) (frcCCHb9LHc)
tp13
a(VCrazy, Stupid, Love. movie trailer
p14
VCrazy, Stupid, Love. Official Trailer #1 - (2011) HD (8iCwtxJejik)
tp15
a(VThor movie trailer
p16
VThor - Trailer (OFFICIAL) (JOddp-nlNvQ)
tp17
a(VThe Girl with the Dragon Tattoo movie trailer
p18
VThe Girl With the Dragon Tattoo (2011) NEW Extended Movie Trailer - HD (nCEuGHhU9U8)
tp19
a(VReal Steel movie trailer
p20
VNew Real Steel Movie: Official Theatrical Trailer (SwfmV3nn6QA)
tp21
a(VSucker Punch movie trailer
p22
VSucker Punch Full Trailer 1 Official (HD) (MnF4SpS9gUw)
tp23
a(VThe Intouchables movie trailer
p24
VThe Intouchables Official Trailer #1 (2012) HD Movie (34WIbmXkewU)
tp25
a(VDrive movie trailer
p26
VDrive - Movie Trailer (2011) HD (KBiOF3y1W0Y)
tp27
a(VGreen Lantern movie trailer
p28
VGreen Lantern Movie Trailer Official (HD) (f8ZPg8uaoR0)
tp29
a(VPirates of the Caribbean: On Stranger Tides movie trailer
p30
VPirates of the Caribbean 4: On Stranger Tides Movie Trailer 1 Official (HD) (wZTtvYLvCRI)
tp31
a(VColombiana movie trailer
p32
VColombiana Trailer 2011 Official (GygXjwoXKKk)
tp33
a(VMidnight in Paris movie trailer
p34
VMidnight in Paris (2011) Trailer - HD Movie (U_3gIxrcWK8)
tp35
a(VScream 4 movie trailer
p36
VScream 4: Official HD Trailer 2 (IaCvEwm3SXs)
tp37
a(VThe Grey movie trailer
p38
VThe Grey Official Trailer #2 - Liam Neeson Movie (2012) HD (ujrBaHS8UTg)
tp39
a(VMission: Impossible - Ghost Protocol movie trailer
p40
VMission Impossible 4 - Ghost Protocol - Official Trailer (V0LQnQSrC-g)
tp41
a(VIn Time movie trailer
p42
VOfficial In Time Trailer [HD] (fdadZ_KrZVw)
tp43
a(VSource Code movie trailer
p44
VSource Code - Official Trailer [HD] (WatVodRARsU)
tp45
a(VLimitless movie trailer
p46
VLimitless Movie Trailer Official (HD) (jOLqNOfzus4)
tp47
a(VJust Go with It movie trailer
p48
VJust Go With It Movie Trailer Official (HD) (Jz5Ubqhru7g)
tp49
a(VFriends with Benefits movie trailer
p50
VFriends with Benefits Movie Trailer Official (HD) (iJS-wWqVAyk)
tp51
a(VBad Teacher movie trailer
p52
VBad Teacher Movie Trailer Official (HD) (VihlsPKMh4U)
tp53
a(VI Am Number Four movie trailer
p54
VI am Number Four - Official Trailer [HD] (g5djHG3hPu0)
tp55
a(VThe Best Exotic Marigold Hotel movie trailer
p56
VThe Best Exotic Marigold Hotel Trailer Official [HD] (dDY89LYxK0w)
tp57
a(VSoul Surfer movie trailer
p58
VSoul Surfer Movie Trailer Official (HD) (isjY34VD5jE)
tp59
a(VTransformers: Dark of the Moon movie trailer
p60
VTransformers 3 Dark of the Moon Trailer 3 Official (HD) (kHRf01Gjosk)
tp61
a(VSuper 8 movie trailer
p62
VSuper 8 Trailer 2 official movie trailer 2011 (FYzXaYmFQjo)
tp63
a(VSherlock Holmes: A Game of Shadows movie trailer
p64
VSherlock Holmes: A Game of Shadows (2011) EXCLUSIVE HD Trailer (DpxtbtnC1u8)
tp65
a(VHorrible Bosses movie trailer
p66
VHorrible Bosses 2 Official Trailer #1 (2014) - Kevin Spacey, Jason Bateman Comedy HD (k7bDzOfakDk)
tp67
a(VImmortals movie trailer
p68
VImmortals - Official Trailer [HD] (7VdONYkKFmQ)
tp69
a(VYou're Next movie trailer
p70
VYou're Next Official Trailer #1 (2013) - Horror Movie HD (ufUQWpEkbf0)
tp71
a(VThe Human Centipede II (Full Sequence) movie trailer
p72
VHuman Centipede 2 - Full Sequence (2011) Official Trailer - HD Movie (GpcCJ8ozirU)
tp73
a(VThe Change-Up movie trailer
p74
VThe Change-Up (2011) Movie Trailer HD (43Qc70ZeMFw)
tp75
a(VAttack the Block movie trailer
p76
VAttack the Block Movie Trailer Official (HD) (l3tOFejxPH0)
tp77
a(VFootloose movie trailer
p78
VFootloose Movie Trailer Official (HD) (gtjI6OHVk00)
tp79
a(VThe Adjustment Bureau movie trailer
p80
VThe Adjustment Bureau Official Trailer #1 - (2010) HD (fSeWHl1PaKs)
tp81
a(VNo Strings Attached movie trailer
p82
V'No Strings Attached' Trailer HD (Ubfcfs98MBw)
tp83
a(VRise of the Planet of the Apes movie trailer
p84
VRise of the Planet of the Apes Official Trailer #2 - (2011) (T3tidwW1gGM)
tp85
a(VTinker Tailor Soldier Spy movie trailer
p86
VTinker Tailor Soldier Spy - Official US Trailer (VW-F1H-Nonk)
tp87
a(VOne Day movie trailer
p88
VOne Day Official Trailer #1 - (2011) HD (zVuuooZqVaU)
tp89
a(VTake Me Home Tonight movie trailer
p90
VTake Me Home Tonight Movie Trailer Official (HD) (Mt8m1FJKXtY)
tp91
a(VMoneyball movie trailer
p92
VMoneyball (2011) Movie Trailer - HD - Brad Pitt (-4QPVo0UIzc)
tp93
a(VConan the Barbarian movie trailer
p94
VConan the Barbarian trailer 2011 official (o1iJZIMddpM)
tp95
a(VHugo movie trailer
p96
VHugo - Official Trailer [HD] (hR-kP-olcpM)
tp97
a(V50/50 movie trailer
p98
V50/50 Movie Trailer - Official [HD] (gsEOl7nlXcA)
tp99
a(VShame movie trailer
p100
VShame (2011) Official Trailer - Michael Fassbender, Carey Mulligan (zyUqkoJC3pQ)
tp101
a.