(lp1
(VThe Lost World: Jurassic Park movie trailer
p2
VThe Lost World: Jurassic Park Official Trailer #1 - Jeff Goldblum Movie (1997) HD (RxrvaneULkE)
tp3
a(VTitanic movie trailer
p4
VTitanic - Movie Trailer (uWNVbFArFDQ)
tp5
a(VHercules movie trailer
p6
VHercules Official Trailer #2 (2014) - Dwayne Johnson, Ian McShane Movie HD (OwlynHlZEc4)
tp7
a(VBoogie Nights movie trailer
p8
VBoogie Nights (1997) Official Trailer #1 - Paul Thomas Anderson Movie (pOk0fsMGyck)
tp9
a(VThe Fifth Element movie trailer
p10
VThe Fifth Element - Official Movie Trailer (fQ9RqgcR24g)
tp11
a(VGood Will Hunting movie trailer
p12
VGood Will Hunting (1997) Movie Trailer (nH9LZOXBMUE)
tp13
a(VBatman & Robin movie trailer
p14
VBatman & Robin (1997) - Movie Trailer (VK7wRdzg0MM)
tp15
a(VStarship Troopers movie trailer
p16
VStarship Troopers - Movie Trailer - 1997 (Y07I_KER5fE)
tp17
a(VLife Is Beautiful movie trailer
p18
VLife is Beautiful (1998) Official Trailer - Robert Benigni Movie HD (pAYEQP8gx3w)
tp19
a(VMen in Black movie trailer
p20
VMen In Black (1997) - Trailer (HYUd7AOw_lk)
tp21
a(VContact movie trailer
p22
V"Contact" Theatrical Trailer (1997) (SRoj3jK37Vc)
tp23
a(VSpawn movie trailer
p24
VSpawn (1997) Official Trailer - John Leguizamo, Michael Jai White Movie HD (WukhbpAhvrc)
tp25
a(VAustin Powers: International Man of Mystery movie trailer
p26
VAustin Powers: International Man of Mystery - Movie Trailer (hVfGZMpRtzU)
tp27
a(VThe Game movie trailer
p28
VTHE GAME - Trailer - HQ (0kqQNBR09Rc)
tp29
a(VL.A. Confidential movie trailer
p30
VL.A. Confidential - Trailer - HQ (C4XbnrmbEME)
tp31
a(VFace/Off movie trailer
p32
VFACE OFF -  Trailer ( 1997 ) (Vlg-VRc6TbY)
tp33
a(VThe Devil's Advocate movie trailer
p34
VTHE DEVIL'S ADVOCATE (1997) - Official Movie Trailer (TyfdNj6b_NM)
tp35
a(VPrincess Mononoke movie trailer
p36
VPrincess Mononoke Trailer (pkWWWKKA8jY)
tp37
a(VGattaca movie trailer
p38
VGattaca - Movie Trailer (ZppWok6SX88)
tp39
a(VAlien: Resurrection movie trailer
p40
VAlien: Resurrection Trailer [1997] (4ZzRFT3k7Q4)
tp41
a(VCon Air movie trailer
p42
VCon Air Movie Trailer (mzg3ND-ITjU)
tp43
a(VScream 2 movie trailer
p44
VScream 2 (1997) - Movie Trailer (URol0LObm_M)
tp45
a(VJackie Brown movie trailer
p46
VJackie Brown Official Trailer #1 - (1997) HD (G7HkBDNZV7s)
tp47
a(VLolita movie trailer
p48
VLolita (1997) Trailer (vaO_L0n0zhc)
tp49
a(VAnastasia movie trailer
p50
VAnastasia 1997- Official Trailer. (eNj53-mu7xw)
tp51
a(VEvent Horizon movie trailer
p52
VEvent Horizon Trailer HD (OVlnER8SxfQ)
tp53
a(VI Know What You Did Last Summer movie trailer
p54
V'I Know What You Did Last Summer' - Trailer (1997) (EcWK0M4VMjA)
tp55
a(VVegas Vacation movie trailer
p56
VVegas Vacation (1997) Trailer (hRPSSF-T4Ck)
tp57
a(VThe Jackal movie trailer
p58
VThe Jackal Official Trailer #1 - Bruce Willis Movie (1997) HD (nszMBbCZKo4)
tp59
a(VAs Good as It Gets movie trailer
p60
VAs Good As It Gets - Trailer (rrRl2QQKkI8)
tp61
a(VLiar Liar movie trailer
p62
VLiar Liar Official Trailer #1 - Jim Carrey, Cary Elwes Movie (1997) HD (C1no75lpOiw)
tp63
a(VIn & Out movie trailer
p64
VInside Out Official Trailer #2 (2015) - Disney Pixar Movie HD (seMwpP0yeu4)
tp65
a(VDonnie Brasco movie trailer
p66
VDonnie Brasco (1997) - Official Trailer (ilJ_ROLClZQ)
tp67
a(VPrivate Parts movie trailer
p68
VPrivate Parts - Trailer (RQFfqUUaNqs)
tp69
a(VAmistad movie trailer
p70
VAmistad - Trailer (BJFDOvGMD0U)
tp71
a(VMidnight in the Garden of Good and Evil movie trailer
p72
VMidnight In The Garden Of Good And Evil (1997) Official Trailer - Kevin Spacey Movie HD (8CD9ksgofU0)
tp73
a(VCube movie trailer
p74
VCube (trailer) (MY5PkidV1cM)
tp75
a(VAnaconda movie trailer
p76
VAnaconda (1997) Official Trailer #1 - Jennifer Lopez Movie HD (zkX5t5ZJLEk)
tp77
a(VG.I. Jane movie trailer
p78
VG.I.Jane Trailer [HQ] (FDrXl6WOPZA)
tp79
a(VMortal Kombat: Annihilation movie trailer
p80
VMortal Kombat: Annihilation (1997) Official Trailer - Fantasy Movie HD (ObHbkrh8qZM)
tp81
a(VChasing Amy movie trailer
p82
VChasing Amy Official Trailer #1 - (1997) HD (EiATQ04pH14)
tp83
a(VAir Force One movie trailer
p84
VAir Force One Movie Trailer (AApP9Ry0ggg)
tp85
a(VHome Alone 3 movie trailer
p86
VHome Alone 3 (1997) Trailer (CK0j5OMApkw)
tp87
a(VThe Rainmaker movie trailer
p88
VThe Rainmaker - Trailer (SapUva6f_b0)
tp89
a(VTomorrow Never Dies movie trailer
p90
VTomorrow Never Dies (1997) Official Trailer - Pierce Brosnan James Bond Movie HD (eqrk7-mx2D0)
tp91
a(VLost Highway movie trailer
p92
VLost Highway Trailer (DMWMCbQxEsE)
tp93
a(VMimic movie trailer
p94
VMimic: The Director's Cut - Trailer (GqwY-ejYiCg)
tp95
a(VGeorge of the Jungle movie trailer
p96
VGeorge of the Jungle Theatrical Trailer (1997) (opqC7DhdaTM)
tp97
a(VMy Best Friend's Wedding movie trailer
p98
VMy Best Friend's Wedding (1997) HD trailer (qF8Kly68x_U)
tp99
a(VRomy and Michele's High School Reunion movie trailer
p100
VRomy and Michele's High School Reunion trailer (iYPnUrREbRg)
tp101
a.