(lp1
(VMad Max 2: The Road Warrior movie trailer
p2
VMad Max 2: The Road Warrior (1981) Mel Gibson Post-Apocalypse Movie HD (UlwtiOyaoo0)
tp3
a(VRaiders of the Lost Ark movie trailer
p4
VRaiders of the Lost Ark theatrical trailer (0ZOcoxjeUYo)
tp5
a(VThe Evil Dead movie trailer
p6
VEvil Dead Trailer 2013 Movie - Official [HD] (FKFDkpHCQz4)
tp7
a(VDas Boot movie trailer
p8
VDas Boot - Trailer (7pzKyeIex2Y)
tp9
a(VEscape from New York movie trailer
p10
VESCAPE FROM NEW YORK (1981) Official Movie Trailer [1080p] (8-LDW7tWwAI)
tp11
a(VTaps movie trailer
p12
VTaps Trailer (Ob2DIURBXts)
tp13
a(VRoar movie trailer
p14
VRoar Official Re-Release Trailer 1 (2015) - Melanie Griffith Movie HD (cny_D50Rr44)
tp15
a(VAn American Werewolf in London movie trailer
p16
VAn American Werewolf in London (4/10) Movie CLIP - Jack's Warning (1981) HD (J2Ws0QEADsU)
tp17
a(VStripes movie trailer
p18
VSean Young: Stripes Trailer (1981) (n-alQs9WZn4)
tp19
a(VFor Your Eyes Only movie trailer
p20
VFor Your Eyes Only (1981) Official Trailer - Roger Moore James Bond Movie HD (e0iF8TCk4Fw)
tp21
a(VThe Fox and the Hound movie trailer
p22
VThe Fox and the Hound 30th Anniversary 2-Movie Collection Trailer (_LaljvQAg8I)
tp23
a(VExcalibur movie trailer
p24
VExcalibur Theatrical Movie Trailer #1 (1981) (WCoqdyjVnkk)
tp25
a(VClash of the Titans movie trailer
p26
VOfficial Clash of the Titans Movie Trailer 2010 [HD] (XJNenKqmOMU)
tp27
a(VMommie Dearest movie trailer
p28
VMommie Dearest, 1981 - Trailer (EliGqYkFUyY)
tp29
a(VScanners movie trailer
p30
VScanners (1981) - trailer (PmJC3ZaXBEc)
tp31
a(VEndless Love movie trailer
p32
VEndless Love Official Trailer #1 (2014) - Alex Pettyfer Drama HD (TRXGch6675Q)
tp33
a(VBody Heat movie trailer
p34
VTrailer:  Body Heat 1981 (7AA_OzWyBqs)
tp35
a(VTime Bandits movie trailer
p36
VTime Bandits - OFFICIAL TRAILER (Yd4DBq8a2y0)
tp37
a(VHalloween II movie trailer
p38
VHalloween 2 Official Trailer #1 - Donald Pleasence Movie (1981) HD (vzOdUKVD8Ac)
tp39
a(VThe Cannonball Run movie trailer
p40
VThe Cannonball Run (trailer) (j2hGFN8NlLQ)
tp41
a(VOn Golden Pond movie trailer
p42
VOn Golden Pond (1981) Trailer (HWjBM48YP0s)
tp43
a(VChariots of Fire movie trailer
p44
VChariots of Fire Trailer [HD] (U3pqrv003sE)
tp45
a(VHistory of the World: Part I movie trailer
p46
VHistory of the World : Part 1 Trailer (1981) (CDf5IkKAv-s)
tp47
a(VHeavy Metal movie trailer
p48
VHeavy Metal - Original 1981 Trailer (ZMNjdCel8L8)
tp49
a(VArthur movie trailer
p50
VArthur Movie Trailer Official (HD) (rtTVquZ2TFk)
tp51
a(VFriday the 13th Part 2 movie trailer
p52
VFriday the 13th Part 2 Official Trailer #1 (2016) - Horror Sequel HD (2qrmTQSWskQ)
tp53
a(VTarzan, the Ape Man movie trailer
p54
VTarzan the Ape Man Official Trailer #1 - C. Aubrey Smith Movie (1932) HD (lIoPPD0NKhA)
tp55
a(VRagtime movie trailer
p56
VRagtime (1981) trailer (dTt7RL0PLbA)
tp57
a(VThe Postman Always Rings Twice movie trailer
p58
VThe Postman Always Rings Twice Trailer 1981 (r9QjcGgV9c8)
tp59
a(VThe Professional movie trailer
p60
VProfessional Official Movie Trailer (0tKiApz_N2o)
tp61
a(VPiranha Part Two: The Spawning movie trailer
p62
VPiranha 2 the spawning movie trailer (scGjDZbEFn4)
tp63
a(VCaveman movie trailer
p64
VCavemen Official Trailer #1 (2014) - Skylar Astin Comedy Movie HD (BoAi-SZccf0)
tp65
a(VVictory movie trailer
p66
VVictory Trailer 1981 Movie Sylvester Stallone Michael Caine Pele (I_H5GmSwEek)
tp67
a(VThief movie trailer
p68
VIdentity Thief Official Trailer #2 (2013) - Jason Bateman, Melissa McCarthy Movie HD (uO12W35DpsQ)
tp69
a(VBlow Out movie trailer
p70
VBLOW OUT - Trailer - (1981) - HQ (rM4fM-R3HC8)
tp71
a(VThe Howling movie trailer
p72
VThe Howling (1981) - Trailer (fU_rnrt4I8E)
tp73
a(VMy Dinner with Andre movie trailer
p74
VA Conscious Conversation - clip from the movie ''My Dinner With Andre'' (8vNuXcmhamQ)
tp75
a(VNighthawks movie trailer
p76
VNighthawks (1981) - Trailer (cnvbtAoucPU)
tp77
a(VGallipoli movie trailer
p78
VGallipoli - Trailer (9LBpsMqNEV0)
tp79
a(VQuest for Fire movie trailer
p80
VQuest for Fire (1981) - Trailer (2pcGGKtPpSE)
tp81
a(VCannibal Ferox movie trailer
p82
VCannibal Ferox (1981) By Umberto Lenzi - Trailer (J9aGzwEENSg)
tp83
a(VThe Burning movie trailer
p84
VThe Burning Official UK Trailer 1 (2015) - Gael Garcia Bernal Movie HD (PAduwD9hq4s)
tp85
a(VReds movie trailer
p86
VReds - Official Trailer [1981] (WjjRDJ039FI)
tp87
a(VDragonslayer movie trailer
p88
VCurse Of The Dragon Slayer Official Trailer (2014) - Danielle Chuchran Fantasy Movie HD (KSro9Wlmjzk)
tp89
a(VOutland movie trailer
p90
VOutland (1981) Trailer (chOPGE71ces)
tp91
a(VNeighbors movie trailer
p92
VNeighbors Official Trailer #3 (2014) - Zac Efron, Seth Rogen Movie HD (kL5c2szf3E4)
tp93
a(VPossession movie trailer
p94
VThe Possession - Official Trailer (2012) Horror Movie [HD] (0gBeG31fX40)
tp95
a(VNice Dreams movie trailer
p96
VCheech and Chong's Nice Dreams (YRd1REDjJNo)
tp97
a(VSharky's Machine movie trailer
p98
VSharky's Machine (1981) Official Trailer - Burt Reynolds, Rachel Ward Movie HD (Nv3RsHiWSUo)
tp99
a(VEye of the Needle movie trailer
p100
VEye of the Needle 1981 Trailer (A-sA3Xs232U)
tp101
a.