(lp1
(VJurassic Park movie trailer
p2
VJurassic World Official Trailer #1 (2015) - Chris Pratt, Jake Johnson Movie HD (ZXiahojLbOw)
tp3
a(VSchindler's List movie trailer
p4
VSchindler's List - Official Movie Trailer (aZTVBMqFij8)
tp5
a(VDazed and Confused movie trailer
p6
VDazed and Confused (1993) - Official Trailer - Matthew McConaughey Movie HD (3aQuvPlcB-8)
tp7
a(VTombstone movie trailer
p8
VTombstone (Official Movie Trailer) in HQ (Mtu4ThDIdoA)
tp9
a(VThe Sandlot movie trailer
p10
VThe Sandlot (1993) - Trailer (ec9W8JbFykw)
tp11
a(VThe Fugitive movie trailer
p12
VThe Fugitive (1993) Official Trailer #1 - Harrison Ford, Tommy Lee Jones Movie (ETPVU0acnrE)
tp13
a(VWhat's Eating Gilbert Grape movie trailer
p14
V1993: What's Eating Gilbert Grape Trailer HQ (X6sLIP3908w)
tp15
a(VTrue Romance movie trailer
p16
VTrue Romance (1993) Official Trailer # 1 - Christian Slater HD (_wNYNDzKpuQ)
tp17
a(VHocus Pocus movie trailer
p18
VHocus Pocus (1993) Trailer (2UUMsInka2s)
tp19
a(VAlive movie trailer
p20
VAlive movie trailer HD (avd6bDMCLpw)
tp21
a(VRudy movie trailer
p22
VRudy Movie Trailer (eDKOlH0I0nQ)
tp23
a(VMrs. Doubtfire movie trailer
p24
VMrs. Doubtfire - Movie Trailer (JERURjEQ4sY)
tp25
a(VGroundhog Day movie trailer
p26
VGroundhog Day Trailer HD (tSVeDx9fk60)
tp27
a(VConeheads movie trailer
p28
VConeheads - Trailer (_Q8CpaejCk8)
tp29
a(VLast Action Hero movie trailer
p30
VLAST ACTION HERO - Trailer ( 1993 ) (szd8mujONkA)
tp31
a(VThe Nightmare Before Christmas movie trailer
p32
VThe Nightmare Before Christmas (1993) Official Trailer #1 - Animated Movie (wr6N_hZyBCk)
tp33
a(VIndecent Proposal movie trailer
p34
VIndecent Proposal (1993) Official Trailer #1 - Demi Moore Movie HD (HumfQ0xklFU)
tp35
a(VPhiladelphia movie trailer
p36
VPhiladelphia (1993) - Movie Trailer (cl4B9AU45P4)
tp37
a(VAddams Family Values movie trailer
p38
VAddams Family Values - Trailer (IHgfQ-0lYbg)
tp39
a(VRobin Hood: Men in Tights movie trailer
p40
VRobin Hood: Men in Tights (1993) Trailer (dX4Ik-cyp-I)
tp41
a(VThe Beverly Hillbillies movie trailer
p42
V1993: The Beverly Hillbillies Trailer HQ (Sy0tjb-Gjqw)
tp43
a(VSleepless in Seattle movie trailer
p44
VSleepless in Seattle (1993) Trailer HQ (4J7gg1V0oak)
tp45
a(VDemolition Man movie trailer
p46
VDemolition Man Trailer HD (1993) (GTrELyA8prM)
tp47
a(VBlood In, Blood Out movie trailer
p48
VBLOOD IN BLOOD OUT Bound By Honor 1993 MOVIE TRAILER (ac1e5H4Cs5M)
tp49
a(VA Bronx Tale movie trailer
p50
VA Bronx Tale Trailer (1bkIqZfviXU)
tp51
a(VBenny & Joon movie trailer
p52
VBenny & Joon Official Trailer #1 - Johnny Depp, Julianne Moore Movie (1993) HD (LlmtpC2sRC8)
tp53
a(VThe Firm movie trailer
p54
VThe Firm Movie Trailer (D-FldpeZmlc)
tp55
a(VThe Three Musketeers movie trailer
p56
VThe Three Musketeers Trailer 2011 - Official Movie Trailer 2 (bhXPhTekVCo)
tp57
a(VFree Willy movie trailer
p58
VFree Willy (1993) trailer (HAGBn6PmnFU)
tp59
a(VCliffhanger movie trailer
p60
VCLIFFHANGER - Trailer - (1993) - HQ (IydM8H49MuA)
tp61
a(VSuper Mario Bros. movie trailer
p62
VSuper Mario Brothers Trailer (wtMZKYnLg5c)
tp63
a(VHomeward Bound: The Incredible Journey movie trailer
p64
VHomeward Bound: The Incredible Journey (1993) Trailer (U8LO9hRL3fQ)
tp65
a(VGettysburg movie trailer
p66
VGettysburg (1993) Official Trailer - Martin Sheen, Stephen Lang Civil War Movie HD (9Vz5f9NOVuk)
tp67
a(VWayne's World 2 movie trailer
p68
VWayne's World 2 - Trailer (duii3yOD4jw)
tp69
a(VFalling Down movie trailer
p70
V"Falling Down (1993)" Theatrical Trailer (X9W2fxdWVAM)
tp71
a(VCarlito's Way movie trailer
p72
VCarlito's Way (1993) - Official Trailer (0yehgqPtG3Y)
tp73
a(VThe Piano movie trailer
p74
VThe Piano Trailer HD - Original (LJieK2sFnWo)
tp75
a(VDennis the Menace movie trailer
p76
V1993: Dennis The Menace Trailer HQ (s68Zr0JHNMg)
tp77
a(VFire in the Sky movie trailer
p78
VFIRE In The SKY trailer 1993 (9LhshgLJuuM)
tp79
a(VRookie of the Year movie trailer
p80
VRookie of the Year trailer (Heoa-AI42bA)
tp81
a(VCool Runnings movie trailer
p82
V1993: Cool Runnings Trailer HQ (wLlmymHRNZg)
tp83
a(VIn the Name of the Father movie trailer
p84
VIn the Name of the Father Official Trailer #1 - Daniel Day-Lewis Movie (1993) HD (04ZYTB2ZXVc)
tp85
a(VGrumpy Old Men movie trailer
p86
VGrumpy Old Men Official Trailer #1 - (1993) HD (2A-SOVQvPyg)
tp87
a(VDave movie trailer
p88
VDave - Trailer (PTTe-rxTyh0)
tp89
a(VMenace II Society movie trailer
p90
Vmenace II society Trailer Deutsch (0uyaftInXA8)
tp91
a(VThe Secret Garden movie trailer
p92
VThe Secret Garden (1993) Trailer (cl6ihoF8Hrg)
tp93
a(VHard Target movie trailer
p94
VHard Target (1/9) Movie CLIP - Chance Rescues Natasha (1993) HD (kC44tlr_KsU)
tp95
a(VKalifornia movie trailer
p96
VKalifornia Official Trailer #1 - Brad Pitt Movie (1993) HD (MsjoXPA_fVA)
tp97
a(VRoboCop 3 movie trailer
p98
VRoboCop 3 Trailer (rOdELisKpP4)
tp99
a(VThe Age of Innocence movie trailer
p100
VThe Age Of Innocence - Trailer - (1993) - HQ (K0bENHsyGPg)
tp101
a.