(lp1
(VGoodfellas movie trailer
p2
VGoodfellas - Trailer - (1990) - HQ (qo5jJpHtI1Y)
tp3
a(VTremors movie trailer
p4
VTremors Official Trailer #1 - (1990) HD (liJfZvXdiTE)
tp5
a(VTotal Recall movie trailer
p6
VTOTAL RECALL Trailer 2012 Movie - Official [HD] (4SerZm7DheA)
tp7
a(VPretty Woman movie trailer
p8
VPretty Woman Trailer (jvd3TjJaf3c)
tp9
a(VHome Alone movie trailer
p10
VHome Alone (1990) - Movie Trailer (sHbo6zjTW6s)
tp11
a(VRocky V movie trailer
p12
VRocky Balboa Official Trailer #1 - Sylvester Stallone, Burt Young Movie (2006) HD (8tab8fK2_3w)
tp13
a(VThe Godfather: Part III movie trailer
p14
VThe Godfather: Part 3 (1/10) Movie CLIP - I Dread You (1990) HD (DBZUhOSY6g0)
tp15
a(VEdward Scissorhands movie trailer
p16
VEdward Scissorhands (1990) - Trailer (HD/1080p) (M94yyfWy-KI)
tp17
a(VBack to the Future Part III movie trailer
p18
VBack to the Future Part 3 (4/10) Movie CLIP - Marty the Marksman (1990) HD (yo7C-Sp_-MI)
tp19
a(VGhost movie trailer
p20
VParanormal Activity: The Ghost Dimension Official Trailer #1 (2015) - Horror Movie HD (zR2cc1BwdmI)
tp21
a(VKindergarten Cop movie trailer
p22
VKindergarten Cop Trailer (xyuNE397jr4)
tp23
a(VDances with Wolves movie trailer
p24
VDances With Wolves (1990) - Kevin Costner Western Movie HD (uc8NMbrW7mI)
tp25
a(VTeenage Mutant Ninja Turtles movie trailer
p26
VTeenage Mutant Ninja Turtles Official Trailer #2 (2014) - Whoopi Goldberg, Megan Fox Movie HD (OdgNSJiWJTo)
tp27
a(VPredator 2 movie trailer
p28
VPredator 2 (1990) Theatrical Trailer #2 (pLe_1SheJms)
tp29
a(VMisery movie trailer
p30
VMisery (1990) - Movie Trailer (IbP4YLsdBBE)
tp31
a(VThe Hunt for Red October movie trailer
p32
VThe Hunt for Red October Trailer (3C2tE7vjdHk)
tp33
a(VCry-Baby movie trailer
p34
VCry-Baby Official Trailer #1 - Johnny Depp Movie (1990) HD (yB1bLlguZVY)
tp35
a(VDie Hard 2 movie trailer
p36
VDIE HARD 2 TRAILER (gUg4gWjOgXs)
tp37
a(VRevenge movie trailer
p38
VRevenge trailer (QILIRoDUiNU)
tp39
a(VAwakenings movie trailer
p40
VAwakenings - Trailer - (1990) - HQ (JAz-prw_W2A)
tp41
a(VRoboCop 2 movie trailer
p42
VRobocop II Movie Trailer (1990) (Z2TA2PqVyPc)
tp43
a(VFlatliners movie trailer
p44
VFlatliners Trailer (oCm_NMU6Phw)
tp45
a(VJacob's Ladder movie trailer
p46
VOfficial Jacob's Ladder Movie Trailer (I0kW6xuxtPU)
tp47
a(VHouse Party movie trailer
p48
VHouse Party (1990) Trailer (XzRfOiNFBkc)
tp49
a(VLord of the Flies movie trailer
p50
VLord of the Flies Trailer (2013) [HD] (CX4vZflew_A)
tp51
a(VDick Tracy movie trailer
p52
VDick Tracy (1990) - Original Theatrical Trailer (-4rzqSsqaqA)
tp53
a(VWild at Heart movie trailer
p54
VWild at Heart (1990) Trailer (QCQwumNQL9E)
tp55
a(VDays of Thunder movie trailer
p56
VDays of Thunder Trailer (AhUhuDW_jOw)
tp57
a(VQuigley Down Under movie trailer
p58
VQuigley Down Under Official Trailer #1 - Alan Rickman Movie (1990) HD (K2PmovA7XxE)
tp59
a(VLionheart movie trailer
p60
VLionheart (1990) Official Trailer - Jean-Claude Van Damme Movie HD (QKqjwvWNnzg)
tp61
a(VMiller's Crossing movie trailer
p62
VMiller's Crossing - Official Movie Trailer (1GKCk9Bwrx4)
tp63
a(VArachnophobia movie trailer
p64
VArachnophobia (1990) Theatrical Trailer (4aQ6vg3JB2U)
tp65
a(VMemphis Belle movie trailer
p66
VMemphis Belle - Trailer. (lKkBdvS5kso)
tp67
a(VDarkman movie trailer
p68
VDarkman Trailer 1990 Movie Starring Liam Neeson (-m9FR63-bds)
tp69
a(VTroll 2 movie trailer
p70
VTroll 2 Trailer (9KCct4RwLNM)
tp71
a(VNightbreed movie trailer
p72
VNightbreed (Clive Barker, 1990) - Trailer (FJ-0pCmXhfw)
tp73
a(VLa Femme Nikita movie trailer
p74
VLa Femme Nikita Official Trailer #1 - Jacques Boudet Movie (1990) HD (MploONnAKhI)
tp75
a(VAir America movie trailer
p76
VAir America Trailer (Goj3RGld4mI)
tp77
a(VGraveyard Shift movie trailer
p78
VStephen King's Graveyard Shift - Trailer (W6u4z-OqgSM)
tp79
a(VMarked for Death movie trailer
p80
VMarked For Death Trailer 1990 (FmYqVNu1YZ0)
tp81
a(VThe Adventures of Ford Fairlane movie trailer
p82
VThe Adventures of Ford Fairlane "HQ Trailer" (Z_jB6tfjTbE)
tp83
a(VMermaids movie trailer
p84
VMermaids Official Trailer #1 - Bob Hoskins Movie (1990) HD (DUSPGXmZQbM)
tp85
a(VThe Witches movie trailer
p86
VThe Witches (1990) Official Trailer #1 - Anjelica Huston Family Horror Movie (d_ZyqaN_XNM)
tp87
a(VGremlins 2: The New Batch movie trailer
p88
VGremlins 2: The New Batch (1990) Official Trailer #1 - Horror Comedy (AdCp0qLqnCY)
tp89
a(VNight of the Living Dead movie trailer
p90
VNight of the Living Dead (1990) - Trailer (r0r7L8tS2L0)
tp91
a(VProblem Child movie trailer
p92
VProblem Child Official Trailer #1 - Jack Warden Movie (1990) HD (cxFT8zYZ3dU)
tp93
a(VThe Rescuers Down Under movie trailer
p94
VThe Rescuers Down Under - 1990 Theatrical Trailer (bJMlNrEbk0k)
tp95
a(VHenry & June movie trailer
p96
VHenry   &  June  (Trailer) (78FMYn-96oE)
tp97
a(VThe Comfort of Strangers movie trailer
p98
VThe Comfort Of Strangers movie trailer (8JYxhS9bQhw)
tp99
a(V3 Men and a Little Lady movie trailer
p100
VThree Men and a Little Lady - Trailer (tzwQWUYtiUE)
tp101
a.