(lp1
(VNational Lampoon's Vacation movie trailer
p2
VNational Lampoon's Vacation (1983) Official Trailer - Chevy Chase Comedy Movie HD (FHThGmVfE3A)
tp3
a(VThe Outsiders movie trailer
p4
VThe Outsiders (1983) - Trailer (OJmi3-Eau00)
tp5
a(VScarface movie trailer
p6
VScarface Trailer HD (1983) (7pQQHnqBa2E)
tp7
a(VStar Wars: Episode VI - Return of the Jedi movie trailer
p8
VSTAR WARS Episode VI: RETURN OF THE JEDI (1983) - Official Movie Trailer (kry8snMVv7c)
tp9
a(VJaws 3-D movie trailer
p10
VJAWS 3D MOVIE TRAILER HD (zMlx33ov82c)
tp11
a(VFlashdance movie trailer
p12
VFlashdance - Official Trailer ( 1983 ) (nqBQWbjqCRo)
tp13
a(VThe Big Chill movie trailer
p14
VThe Big Chill trailer (1983) (O19k-YtwXTg)
tp15
a(VWarGames movie trailer
p16
VWarGames Official Trailer #1 - Dabney Coleman Movie (1983) HD (hbqMuvnx5MU)
tp17
a(VThe Right Stuff movie trailer
p18
VThe Right Stuff (1983) Official Trailer - Ed Harris, Dennis Quaid Movie HD (ElzIPn1pXWE)
tp19
a(VCujo movie trailer
p20
VCUJO Trailer (v0k21yeVMbM)
tp21
a(VTwilight Zone: The Movie movie trailer
p22
VThe Twilight Zone - The Movie (Trailer) (6C_sKKTTMX4)
tp23
a(VRisky Business movie trailer
p24
VRisky Business Official Trailer #1 - (1983) HD (3JXcqzJjHf0)
tp25
a(VTrading Places movie trailer
p26
VTrading Places (1983) Trailer (ZjDbJQKDXCY)
tp27
a(VChristine movie trailer
p28
VChristine (1983) Trailer (O08w8CegEeg)
tp29
a(VSuperman III movie trailer
p30
VNew Superman III Trailer (2013) (SeQYjh_PkGI)
tp31
a(VOctopussy movie trailer
p32
VOctopussy Trailer (HD) (IwHbCvXMbS8)
tp33
a(VTerms of Endearment movie trailer
p34
VTerms of Endearment - Movie Trailer (zY0GM9KHU8o)
tp35
a(VA Christmas Story movie trailer
p36
VA Christmas Story - Original Theatrical Trailer (LBe0Bl0wYHU)
tp37
a(VAll the Right Moves movie trailer
p38
VAll the Right Moves Trailer (eS5MtPXo13k)
tp39
a(VUncommon Valor movie trailer
p40
VUncommon Valor Theatrical Movie Trailer (1983) (9OHpT6vk7EA)
tp41
a(VStaying Alive movie trailer
p42
VStaying Alive (1983) Original Trailer (eEhzjIjmICM)
tp43
a(VNever Say Never Again movie trailer
p44
VNever Say Never Again (1983) trailer (HQ) (0RIICiAaEwI)
tp45
a(VValley Girl movie trailer
p46
VValley Girl Official Trailer #1 - Nicolas Cage Movie (1983) HD (VSX4YgdKKMk)
tp47
a(VKrull movie trailer
p48
VKrull (1983) - Trailer (v6i2par2Fv0)
tp49
a(VThe Dead Zone movie trailer
p50
VThe Dead Zone - Official Trailer (lmC5oPc7L3M)
tp51
a(VThe Meaning of Life movie trailer
p52
VThe Meaning of Life Official Trailer #1 - Graham Chapman Movie (1983) HD (vabfV4HRvRY)
tp53
a(VMr. Mom movie trailer
p54
VMr. Mom (1983) Trailer (solr1W5idNY)
tp55
a(VRumble Fish movie trailer
p56
VRumble Fish Trailer 1983 with Matt Dillion Diane Lane Mickey Rourke (z36lpFRrEUg)
tp57
a(VSudden Impact movie trailer
p58
VSudden Impact movie trailer 2012 (pDs1mG6PLOc)
tp59
a(VVideodrome movie trailer
p60
VVideodrome Trailer (M6AXQeCE9Rw)
tp61
a(VSleepaway Camp movie trailer
p62
VSleepaway Camp (1983) Horror Movie Trailer (gm5hsw2NFUo)
tp63
a(VPrivate School movie trailer
p64
VPrivate School Official Trailer #1 - Matthew Modine Movie (1983) HD (sYdfpvE1Lu0)
tp65
a(VClass movie trailer
p66
VClass Official Trailer #1 - Cliff Robertson Movie (1983) HD (dttMFWjjFBQ)
tp67
a(VYellowbeard movie trailer
p68
VYellowbeard Trailer (1983) (lpf-xMB-ml8)
tp69
a(VBad Boys movie trailer
p70
VBad Boys - Trailer (6GaPkMqAS44)
tp71
a(VEasy Money movie trailer
p72
VEasy Money - Official Trailer (2012) Joel Kinnaman [HD] (FaZ6tX-N0Pk)
tp73
a(VPsycho II movie trailer
p74
VPsycho II (1983) Official Trailer - Anthony Perkins, Vera Miles Movie HD (LKprv08HI0s)
tp75
a(VYentl movie trailer
p76
VYentl- film trailer (pL5_ErSq9EM)
tp77
a(VSilkwood movie trailer
p78
VSilkwood Official Trailer #1 - Meryl Streep Movie (1983) HD (iNyrSR5JGh8)
tp79
a(VThe Hunger movie trailer
p80
VThe Hunger (1983) Trailer (l9IDoAPC6Ps)
tp81
a(VBrainstorm movie trailer
p82
VBrainstorm (1983) [Trailer] (NNiZP2G-nEM)
tp83
a(VStrange Brew movie trailer
p84
VStrange Brew - Original Trailer (yZCI39NWZ5g)
tp85
a(VLocal Hero movie trailer
p86
VLocal Hero - Theatrical Trailer (R4WQZbGMrl4)
tp87
a(VCross Creek movie trailer
p88
VCROSS CREEK - Trailer (Hsi6IA__aTw)
tp89
a(VBreathless movie trailer
p90
VBreathless Official Trailer #1 - Richard Gere Movie (1983) HD (eGhcrT3ux58)
tp91
a(VSomething Wicked This Way Comes movie trailer
p92
VMovie Trailer - 1983 - Something Wicked This Way Comes (Up7KHbJTmoo)
tp93
a(VFire and Ice movie trailer
p94
VFire and Ice Movie Trailer (Sz-yLWGaIxM)
tp95
a(VLone Wolf McQuade movie trailer
p96
VLone Wolf McQuade Official Trailer #1 - David Carradine Movie (1983) HD (vFyTfEvlIWc)
tp97
a(VBlue Thunder movie trailer
p98
VBlue Thunder Movie Trailer (sd3lDhyM21M)
tp99
a(VMy Tutor movie trailer
p100
VMY TUTOR (1983) (4oy5fO81WUE)
tp101
a.