(lp1
(VCan't Buy Me Love movie trailer
p2
Vcan't buy me love (hiS42RHaKyg)
tp3
a(VThe Princess Bride movie trailer
p4
VThe Princess Bride (1987) - Modern Trailer (GNvy61LOqY0)
tp5
a(VPredator movie trailer
p6
VPredator Movie Trailer (1987) (f4YKFAjPj9o)
tp7
a(VOverboard movie trailer
p8
VOverboard (1987) Trailer (YfBuaRgos1o)
tp9
a(VFull Metal Jacket movie trailer
p10
VFull Metal Jacket (1987) Official Trailer - Stanley Kubrick Movie HD (x9f6JaaX7Wg)
tp11
a(VDirty Dancing movie trailer
p12
VDirty Dancing (1987) Official Trailer  - Patrick Swayze, Jennifer Grey Movie HD (eIcmQNy9FsM)
tp13
a(VRoboCop movie trailer
p14
VRoboCop TRAILER 1 (2014) - Samuel L. Jackson, Abbie Cornish Movie HD (UuVphAuRo7Q)
tp15
a(VThe Lost Boys movie trailer
p16
VThe Lost Boys Trailer  (1987) (U_lwtRMg0ts)
tp17
a(VSpaceballs movie trailer
p18
VSpaceballs Official Trailer #1 - Bill Pullman Movie (1987) HD (kGIM_yNzeUo)
tp19
a(VJaws: The Revenge movie trailer
p20
VJaws: The Revenge Official Trailer #1 - Michael Caine Movie (1987) HD (opiCMIN3PNg)
tp21
a(VPlanes, Trains & Automobiles movie trailer
p22
VPlanes, Trains & Automobiles TRAILER (SNWx7_tZRcI)
tp23
a(VThe Untouchables movie trailer
p24
VTHE UNTOUCHABLES -   Trailer ( 1987 ) (eCeDBqvwLCw)
tp25
a(VThe Running Man movie trailer
p26
V1987 - The Running Man - Trailer (-ceegnWSENQ)
tp27
a(VEmpire of the Sun movie trailer
p28
VEmpire of the Sun Official Trailer (1987) - Christian Bale, Steven Spielberg Movie HD (i_WiDVA1kLY)
tp29
a(VLethal Weapon movie trailer
p30
VLethal Weapon 1 - Trailer (GUorM4nTX7k)
tp31
a(VHarry and the Hendersons movie trailer
p32
VHarry and the Hendersons Official Trailer #1 - M. Emmet Walsh Movie (1987) HD (5DOX1Poxro4)
tp33
a(VAdventures in Babysitting movie trailer
p34
VAdventures in Babysitting Original Movie Trailer [1987] (Sj_WCLmAx7o)
tp35
a(VWall Street movie trailer
p36
VWALL STREET - Trailer ( 1987 ) (FCctqbRrsBQ)
tp37
a(VSome Kind of Wonderful movie trailer
p38
VSome Kind of Wonderful Trailer (xlUkeCN3Eu4)
tp39
a(VFatal Attraction movie trailer
p40
VFatal Attraction - Trailer (e3oF8Po4qWc)
tp41
a(VMasters of the Universe movie trailer
p42
VMasters Of The Universe Trailer 1987 (Kfy0mgAx2-0)
tp43
a(VEvil Dead II movie trailer
p44
VEvil Dead 2 (1987) - Trailer (Bruce Campbell) 720P HD (6lM3NPeEG24)
tp45
a(VHellraiser movie trailer
p46
V"Hellraiser (1987)" Theatrical Trailer (P7TWm3Akw-s)
tp47
a(VOver the Top movie trailer
p48
VOver the Top - Movie Trailer (HkKLVlx4WMw)
tp49
a(VRoxanne movie trailer
p50
VRoxanne.1987.Trailer.avi (sUgPNU_mRLQ)
tp51
a(VThe Living Daylights movie trailer
p52
VThe Living Daylights (1987) Official Trailer - Timothy Dalton James Bond Movie Hd (IXAVKJTIM1E)
tp53
a(VBaby Boom movie trailer
p54
VBaby Boom Official Trailer #1 - Sam Shepard Movie (1987) HD (UOpOaGdLj_8)
tp55
a(VMannequin movie trailer
p56
VMannequin (1987) Trailer (N6gpndlepiM)
tp57
a(VLa Bamba movie trailer
p58
VLa Bamba (trailer) (QX_TUO_rZl0)
tp59
a(VThe Secret of My Succe$s movie trailer
p60
VThe Secret of My Succe$s Official Trailer #1 - Michael J. Fox Movie (1987) HD (rGHDATIJIX8)
tp61
a(VGood Morning, Vietnam movie trailer
p62
VGood Morning Vietnam - Trailer. (3mJoHqmtFcQ)
tp63
a(VRaising Arizona movie trailer
p64
VRaising Arizona (1987) - Original Theatrical Trailer (2AIfVoGUs6c)
tp65
a(V3 Men and a Baby movie trailer
p66
V3 Men and a Baby Trailer (1987) (ohBNZZKmtnw)
tp67
a(VFlowers in the Attic movie trailer
p68
VLifetime  Flowers in the Attic Trailer movie 2014 (eaxWP3htqNs)
tp69
a(VMoonstruck movie trailer
p70
VMoonstruck (official trailer) Cher (FtvJexR4iVg)
tp71
a(VAngel Heart movie trailer
p72
VAngel Heart (1986) TRAILER (DTC9Lt3hiWo)
tp73
a(VThe Witches of Eastwick movie trailer
p74
VThe Witches of Eastwick - Movie Trailer (ip1a-QEJY3Q)
tp75
a(VThe Last Emperor movie trailer
p76
VThe Last Emperor (1987) Trailer (A4cH6g1wD5g)
tp77
a(VThe Monster Squad movie trailer
p78
VThe Monster Squad Trailer (TeZs0B0mjXY)
tp79
a(VA Nightmare on Elm Street 3: Dream Warriors movie trailer
p80
VA Nightmare on Elm Street 3: Dream Warriors trailer (1987) (8PlwfVhY_-Q)
tp81
a(VBeverly Hills Cop II movie trailer
p82
VBeverly Hills Cop 2 (10/10) Movie CLIP - Lutz Gets Fired (1987) HD (3SLoG8B0HTg)
tp83
a(VSuperman IV: The Quest for Peace movie trailer
p84
VHonest Trailers - Superman IV: The Quest for Peace (QWNqbqcV4dU)
tp85
a(VSummer School movie trailer
p86
VSUMMER SCHOOL (1987)  TRAILER HQ MARK HARMON, KIRSTIE ALLEY (VijCU3fPp3s)
tp87
a(VDragnet movie trailer
p88
VDragnet Trailer 1987 Movie with Dan Aykroyd Tom Hanks (vt3VGqclCeI)
tp89
a(VInnerspace movie trailer
p90
VInnerspace Official Trailer (1987) - Martin Short, Dennis Quaid Movie HD (7kQDIosuZuo)
tp91
a(VWings of Desire movie trailer
p92
VSymphony of Thought   Wings of Desire 1 4 Movie CLIP 1987 HD (OjQ8yZDQyEw)
tp93
a(VWithnail & I movie trailer
p94
VWithnail and I Original Theatrical Trailer (d9Z0DV33gAY)
tp95
a(VPrince of Darkness movie trailer
p96
VPrince Of Darkness (1987) Official Trailer - Full HD 1080p (PKI2kI6Flw0)
tp97
a(V*batteries not included movie trailer
p98
V"*batteries not included"  Official Trailer (h25ZL7fxZ8o)
tp99
a(VNo Way Out movie trailer
p100
VNo Way Out Official Trailer #1 - Gene Hackman Movie (1987) HD (lypNWLvpb0I)
tp101
a.