(lp1
(VBatman movie trailer
p2
VBatman v Superman: Dawn of Justice Official Trailer #1 (2016) - Henry Cavill, Ben Affleck Movie HD (bha24P9uw-E)
tp3
a(VRoad House movie trailer
p4
VRoad House Official Trailer #1 - Red West Movie (1989) HD (oByMeAfwARs)
tp5
a(VSteel Magnolias movie trailer
p6
VSteel Magnolias - Official Trailer (1989) (v2IGgZgWj0k)
tp7
a(VField of Dreams movie trailer
p8
VField of Dreams Official Trailer #1 - (1989) HD (Ut06d4dptWo)
tp9
a(VBack to the Future Part II movie trailer
p10
VBack to the Future Part 2 (8/12) Movie CLIP - The Almanac (1989) HD (l9c1k_m6POA)
tp11
a(VIndiana Jones and the Last Crusade movie trailer
p12
VIndiana Jones And The Last Crusade (1989) Trailer (Harrison Ford, Sean Connery and Alison Doody) (MW6SAYjR-wA)
tp13
a(VDead Poets Society movie trailer
p14
VDead Poets Society (1989) Original Trailer (wrBk780aOis)
tp15
a(VThe Little Mermaid movie trailer
p16
VLittle Mermaid Trailer (DW) (KONJfS1LMv4)
tp17
a(VBorn on the Fourth of July movie trailer
p18
VBorn on the Fourth of July Official Trailer #1 - Tom Cruise Movie (1989) HD (OwNNUVbdfzI)
tp19
a(VChristmas Vacation movie trailer
p20
VChristmas Vacation Official Trailer #1 - (1989) HD (NBTTipJX-h4)
tp21
a(VBill & Ted's Excellent Adventure movie trailer
p22
VBill & Ted's Excellent Adventure Official Trailer #1 - Keanu Reeves Movie (1989) HD (q3fx6TugN7g)
tp23
a(VParenthood movie trailer
p24
VParenthood Movie Trailer (RgrbuRNc-AQ)
tp25
a(VPet Sematary movie trailer
p26
VPet Sematary - Trailer (jpjpUOXQZac)
tp27
a(VThe Abyss movie trailer
p28
VThe Abyss (1989) - Trailer (WYPcLYPoaxo)
tp29
a(VSay Anything... movie trailer
p30
VSay Anything Trailer (QeUnT3f7eAA)
tp31
a(VHoney, I Shrunk the Kids movie trailer
p32
VHoney, I Shrunk the Kids (1989) Classic Trailer - Rick Moranis Movie HD (L9nCNJ3cZSk)
tp33
a(VGlory movie trailer
p34
VGlory - Movie Trailer (qLALgaug8Ic)
tp35
a(VThe 'Burbs movie trailer
p36
V"The 'Burbs (1989)" Theatrical Trailer (qg7RpL3kTBk)
tp37
a(VListen to Me movie trailer
p38
VThe Revenant Official Teaser Trailer #1 (2015) - Leonardo DiCaprio, Tom Hardy Movie HD (oYiT-vLjhC4)
tp39
a(VUncle Buck movie trailer
p40
VUncle Buck Official Trailer #1 - John Candy, Macaulay Culkin Movie (1989) HD (JQaeUz7K83w)
tp41
a(VGhostbusters II movie trailer
p42
VGhostbusters 2 trailer (1989 original) (_64lZ6m6Foc)
tp43
a(VWhen Harry Met Sally... movie trailer
p44
VWhen Harry Met Sally... Official Trailer #1 - Billy Crystal Movie (1989) HD (k7utaa1Ify4)
tp45
a(VTroop Beverly Hills movie trailer
p46
VTROOP BEVERLY HILLS Trailer (B8fGHmk5wB4)
tp47
a(VMiss Firecracker movie trailer
p48
VHolly Hunter in Miss Firecracker (1989) (J_0MEABvCKE)
tp49
a(VWeekend at Bernie's movie trailer
p50
VWeekend at Bernie's Official Trailer #1 - Andrew McCarthy Movie (1989) HD (VMCh9gLZofo)
tp51
a(VLittle Monsters movie trailer
p52
VLittle Monsters 1989 DVDrip AC3 Eng (IfhnZpWV2c0)
tp53
a(VKickboxer movie trailer
p54
VJean-Claude Van Damme - KickBoxer Trailer [1989] (e1vPYM1d3wo)
tp55
a(VLethal Weapon 2 movie trailer
p56
VLethal Weapon 2 (1989) Official Trailer - Mel Gibson, Danny Glover Action Movie HD (ZbFE2P3tASI)
tp57
a(VDo the Right Thing movie trailer
p58
VDo the Right Thing (1989) - Official Trailer (BT2al2t2jnU)
tp59
a(VMajor League movie trailer
p60
VMajor League - Trailer (59L-YMhWaZg)
tp61
a(VLook Who's Talking movie trailer
p62
VLook Who's Talking (1989) Trailer (yOB_MqcaZHw)
tp63
a(VDriving Miss Daisy movie trailer
p64
VDriving Miss Daisy (1989) Official Trailer #1 - Morgan Freeman Movie HD (TQ3wXC5jqKE)
tp65
a(VSex, Lies, and Videotape movie trailer
p66
VSex, Lies, and Videotape 1989 trailer (rxdQQpJ9t-4)
tp67
a(VKiki's Delivery Service movie trailer
p68
VKiki's Delivery Service Official Japanese Trailer 1 (2014) - Fantasy Movie HD (NUKOmo0OabA)
tp69
a(VLoverboy movie trailer
p70
VLoverboy Trailer 1989 (Lyeuxv5O4kU)
tp71
a(VLicence to Kill movie trailer
p72
VLicence to Kill (1989) Official Trailer - Timothy Dalton James Bond Movie Hd (quHQAuO0lkg)
tp73
a(VTeen Witch movie trailer
p74
VTeen Witch Official Trailer #1 - Dick Sargent Movie (1989) HD (u33P5zDhsC8)
tp75
a(VNext of Kin movie trailer
p76
VNext Of Kin Trailer 1989 (be7EYaZ3y7g)
tp77
a(VRobot Jox movie trailer
p78
VRobot Jox Trailer (8Kd642Ix5ks)
tp79
a(VUHF movie trailer
p80
VUHF Official Trailer #1 - Kevin McCarthy Movie (1989) HD (Iih5a2Zq_JU)
tp81
a(VMy Left Foot movie trailer
p82
VMy Left Foot (1989) Trailer (Fan-Made) (2dRdWJfv-cM)
tp83
a(VBlack Rain movie trailer
p84
VBLACK RAIN - Trailer - (1989) - HQ (95-bc1DZovg)
tp85
a(VGoing Overboard movie trailer
p86
VGoing Overboard (Adam Sandler) -- Movie Review #JPMN (0TN28GwFfAU)
tp87
a(VTango & Cash movie trailer
p88
VTango & Cash, Trailer (1989) (qwzkxI6b9Go)
tp89
a(VHarlem Nights movie trailer
p90
VHarlem Nights - Trailer (En27DgNW0nY)
tp91
a(VThe Punisher movie trailer
p92
VThe Punisher (2004) Official Marvel trailer (G59cD1NSbS8)
tp93
a(VLock Up movie trailer
p94
VLock Up - Trailer - (1989) - HQ (1mRBoP0HBaE)
tp95
a(VDead Calm movie trailer
p96
VDead Calm Trailer [HD] (jO6UmoEg9SI)
tp97
a(VThe Karate Kid, Part III movie trailer
p98
VThe Karate Kid: Part III (1989) - Movie Trailer (6UIfk99IZPk)
tp99
a(VSea of Love movie trailer
p100
VSea Of Love - Trailer -  (1989) - HQ (8DQJIoyqn7w)
tp101
a.