(lp1
(VButch Cassidy and the Sundance Kid movie trailer
p2
VButch Cassidy and the Sundance Kid (2/5) Movie CLIP - Butch's Bike (1969) HD (8_JPDEHU1ok)
tp3
a(VMidnight Cowboy movie trailer
p4
VMidnight Cowboy Official Trailer #1 - Dustin Hoffman Movie (1969) HD (vS2IdfBkkj0)
tp5
a(VEasy Rider movie trailer
p6
VEasy Rider - Intro - Born to be wild! (J1cDECkN2xg)
tp7
a(VMarlowe movie trailer
p8
VMarlowe (1969) Official Trailer - James Garner, Bruce Lee Movie HD (mIgTl-rXmOk)
tp9
a(VHercules in New York movie trailer
p10
VTrailer: Hercules in New York (mvhfdZz9AuU)
tp11
a(VOn Her Majesty's Secret Service movie trailer
p12
VOn Her Majesty's Secret Service (1969) Official Trailer - George Lazenby Movie HD (dOLq5Rg9N-c)
tp13
a(VTrue Grit movie trailer
p14
VTrue Grit  2010 HD Movie Trailer (vXCmUEaPQPM)
tp15
a(VPaint Your Wagon movie trailer
p16
V"Paint Your Wagon" Trailer (B0idoJnBAvk)
tp17
a(VThe Wild Bunch movie trailer
p18
VThe Wild Bunch - Movie Trailer (L5nn-Vr6irk)
tp19
a(VHello, Dolly! movie trailer
p20
VHELLO DOLLY - Theatrical Trailer (9Ej80IMmXcA)
tp21
a(VThe Italian Job movie trailer
p22
VThe Italian Job - Movie Trailer (7HZndLdQOPk)
tp23
a(VAlice's Restaurant movie trailer
p24
VAlice's Restaurant Official Trailer #1 - Arlo Guthrie Movie (1969) HD (jNBurHDrZwM)
tp25
a(VWomen in Love movie trailer
p26
VWomen in Love (1969) Trailer (ARDQeNzXCXU)
tp27
a(VTopaz movie trailer
p28
VAlfred Hitchcock - Topaz | Trailer (English) (5U1XQH78gwc)
tp29
a(VThe Prime of Miss Jean Brodie movie trailer
p30
VTHE PRIME OF MISS JEAN BRODIE 1969 MOVIE TRAILER. (MkLAmvbW4as)
tp31
a(VBattle of Britain movie trailer
p32
VBattle Of Britain Theatrical Movie Trailer (1969) (dqqZ99u4xGk)
tp33
a(VSupport Your Local Sheriff! movie trailer
p34
VSupport Your Local Sheriff! Official Trailer #1 - Jack Elam Movie (1969) HD (kSYjf8V8GF0)
tp35
a(VKes movie trailer
p36
VKes (1969) - Original trailer (HRYvUpsrqmg)
tp37
a(VThey Shoot Horses, Don't They? movie trailer
p38
VThey Shoot Horses, Don't They? Official Trailer #1 - Bruce Dern Movie (1969) HD (ke-sWMXspNA)
tp39
a(VBob & Carol & Ted & Alice movie trailer
p40
VBob & Carol & Ted & Alice (1969) Tribute (LhWo7kKU_So)
tp41
a(VAge of Consent movie trailer
p42
VAge Of Consent Trailer (RGZSby00WXs)
tp43
a(VPippi Longstocking movie trailer
p44
VThe New Adventures Of Pippi Longstocking (1988) - Trailer (uNIsjZBnRR8)
tp45
a(VChe! movie trailer
p46
VOfficial Che Trailer HD (fqTw2dtVQzw)
tp47
a(VMackenna's Gold movie trailer
p48
VMackenna's Gold: Canyon of Gold (VxJesXhxMrI)
tp49
a(VFellini Satyricon movie trailer
p50
VFellini - Satyricon Official Trailer #1 - Martin Potter Movie (1969) HD (RrBUdUYL71s)
tp51
a(VCactus Flower movie trailer
p52
VCactus Flower Trailer (i3dRtKT04sw)
tp53
a(VZ movie trailer
p54
VWorld War Z TRAILER 2 (2013) - Brad Pitt Movie HD (4EC7P5WdUko)
tp55
a(VThe Undefeated movie trailer
p56
VUNDEFEATED (The Official Trailer of the Oscar Winning Documentary) (ckku5qEt-vA)
tp57
a(VThe Army of Shadows movie trailer
p58
V"Army of Shadows" Trailer (on38oTESbHU)
tp59
a(VAnne of the Thousand Days movie trailer
p60
VAnne of the Thousand Days 1969 (to3-WN8qvJU)
tp61
a(VLinda and Abilene movie trailer
p62
VLinda And Abilene (1969) (3uF1-DQIX-c)
tp63
a(VThe Magic Christian movie trailer
p64
VThe Magic Christian Original Trailer (szpXshpuAso)
tp65
a(VThe Illustrated Man movie trailer
p66
VThe Illustrated Man 1969 theatrical trailer (Q9uDkTHj6k0)
tp67
a(VThe Damned movie trailer
p68
VTHE DAMNED: Don't You Wish That We Were Dead (Official Trailer) (GVI8SOt3OvI)
tp69
a(VTake the Money and Run movie trailer
p70
VWoody Allen - Take the money and run - Bank robbery (-UHOgkDbVqc)
tp71
a(VMore Dead Than Alive movie trailer
p72
VMore Dead Than Alive Official Trailer #1 - Vincent Price Movie (1968) HD (UY0XzUTlTjU)
tp73
a(VGodzilla's Revenge movie trailer
p74
VGodzillas Revenge 1969  Trailer (OTd0HAMA50U)
tp75
a(VCarry on Camping movie trailer
p76
VCarry On Camping - UK Trailer (lFGWrL5FJ9Q)
tp77
a(VGoodbye, Mr. Chips movie trailer
p78
VGoodbye, Mr. Chips Official Trailer #1 - Peter O'Toole Movie (1969) HD (52t3sIdNTWk)
tp79
a(VRascal movie trailer
p80
VRascals Theatrical Trailer (D8npeWX8cJw)
tp81
a(VHeaven with a Gun movie trailer
p82
VHeaven with a Gun (Original Theatrical Trailer) (NIvnH2xrGkk)
tp83
a(VThe Computer Wore Tennis Shoes movie trailer
p84
VThe Computer Wore Tennis Shoes (1969) Full Movie - Kurt Russell (XS0Wf-TEZzc)
tp85
a(VJourney to the Far Side of the Sun movie trailer
p86
VJourney To The Far Side Of The Sun (Doppleganger 1969) | Original Film Trailer - Ian Hendry (-3YmE5yhKxM)
tp87
a(VImpasse movie trailer
p88
VCarlito's Way (1993) - Official Trailer (0yehgqPtG3Y)
tp89
a(VThe Arrangement movie trailer
p90
VThe Arrangement 2013 trailer (a_m-4cWs1X0)
tp91
a(VThe Gypsy Moths movie trailer
p92
VThe Gypsy Moths (1969) Official Trailer - Gene Hackman, Burt Lancaster Movie HD (Dg_eYSQlM28)
tp93
a(VLa Piscine movie trailer
p94
VLa Piscine 1969) trailer (6-Y_6pnkN20)
tp95
a(VThe Love Factor movie trailer
p96
VLove Factor (Premachi Trilogy) Official Trailer | Marathi Movie | Kishor Vibhandik (nOcPlLYwEDw)
tp97
a(VThe Reivers movie trailer
p98
Vreivers-trailer.flv (b54hl_1msMY)
tp99
a(V100 Rifles movie trailer
p100
V100 RIFLES - TRAILER (wlRYOdsHwy4)
tp101
a.