(lp1
(VThe Exorcist movie trailer
p2
Vthe exorcist 1973 Trailer (0iS59iV2Ffs)
tp3
a(VAmerican Graffiti movie trailer
p4
VAmerican Graffiti Official Trailer #1 - Richard Dreyfuss Movie (1973) HD (OZ9Gp6Qc8LQ)
tp5
a(VLive and Let Die movie trailer
p6
VLive and Let Die (1973) Official Trailer - Roger Moore James Bond Movie HD (KTzsm9-XWQo)
tp7
a(VPapillon movie trailer
p8
VPapillon (1973) Official Trailer - Dustin Hoffman, Steve McQueen Movie HD (lW_IWHw3z-U)
tp9
a(VEnter the Dragon movie trailer
p10
VEnter the Dragon Official Trailer #1 - (1973) HD (81jCPIag4KA)
tp11
a(VThe Sting movie trailer
p12
VThe Sting Official Trailer #1 - Charles Durning Movie (1973) HD (_nAIb_J9T5M)
tp13
a(VRobin Hood movie trailer
p14
VRobin Hood Official Trailer #1 - (2010) HD (hkuy44c0Hx8)
tp15
a(VHigh Plains Drifter movie trailer
p16
VHigh Plains Drifter Official Trailer #1 - Clint Eastwood Movie (1973) HD (Ek9CwmjisLE)
tp17
a(VThe Long Goodbye movie trailer
p18
VThe Long Goodbye Official Trailer #1 - Elliott Gould Movie (1973) HD (fAYheZweypk)
tp19
a(VThe Wicker Man movie trailer
p20
VThe Wicker Man Movie Trailer 2006 - Nicolas Cage (JRDJX2--DXI)
tp21
a(VSerpico movie trailer
p22
VSERPICO - Trailer ( 1973 ) (hSZz5RI7KRQ)
tp23
a(VSoylent Green movie trailer
p24
VMovie Trailer - 1973 - Soylent Green (vGC3zNalXkQ)
tp25
a(VThe Holy Mountain movie trailer
p26
VThe holy mountain (1973), A. Jodorowsky - Trailer (ZqbJHbP61PY)
tp27
a(VBadlands movie trailer
p28
V1973 Badlands - Trailer (lcFx06cBmbk)
tp29
a(VMean Streets movie trailer
p30
VMean Streets - Trailer - HQ (1973) (rCwjzn0CncA)
tp31
a(VWestworld movie trailer
p32
VVintage - Westworld Movie Trailer (LcL3eP0Hfy4)
tp33
a(VMagnum Force movie trailer
p34
VMagnum Force (1973) Official Trailer - Clint Eastwood, Hal Holbrook Movie HD (qVk8NhLhZMk)
tp35
a(VWalking Tall movie trailer
p36
VWalking Tall - Movie Trailer (yyE3tPmKivc)
tp37
a(VThe Way We Were movie trailer
p38
VThe Way We Were - Trailer (3ow4dJEqfss)
tp39
a(VDon't Look Now movie trailer
p40
VDon't Look Now (1973) - TRAILER (AUWB-Kw4FiM)
tp41
a(VCleopatra Jones movie trailer
p42
VCleopatra Jones (1973) Official Trailer - Tamara Dobson Crime Thriller Movie HD (EtTLopqFWO8)
tp43
a(VPaper Moon movie trailer
p44
VPaper Moon - Trailer (ORTv3jORX-I)
tp45
a(VThe Three Musketeers movie trailer
p46
VThe Three Musketeers Trailer 2011 - Official Movie Trailer 2 (bhXPhTekVCo)
tp47
a(VThe Day of the Jackal movie trailer
p48
VTrailer The Day of the Jackal (h6xMnTPEzPo)
tp49
a(VAnita: Swedish Nymphet movie trailer
p50
VAnita (Swedish Nymphet) 1973  Full HD (CDY4UIr9T4E)
tp51
a(VJesus Christ Superstar movie trailer
p52
VJesus Christ Superstar Official Trailer #1 - Barry Dennen Movie (1973) HD (hIe8GA3VvYg)
tp53
a(VSisters movie trailer
p54
VSisters Official Trailer #1 (2015) - Amy Poehler, Tina Fey Movie HD (R11L9cI1dFE)
tp55
a(VThe Last American Hero movie trailer
p56
VThe Last American Hero - Trailer (VcCjU3fZTis)
tp57
a(VCharlotte's Web movie trailer
p58
VCharlotte's Web (2006) - Trailer (63Xh4T0qb-Y)
tp59
a(VThe Paper Chase movie trailer
p60
VPaper Chase, The 1973)trailer (wLZgjP-qgpQ)
tp61
a(VAmarcord movie trailer
p62
VAmarcord (1973) Trailer (W5PsIpaRIFs)
tp63
a(VMy Name Is Nobody movie trailer
p64
VMy Name Is Nobody - Trailer (HQ) (2RYq1PLdT0s)
tp65
a(VScarecrow movie trailer
p66
VSCARECROW \u2022 Original Syfy Movie \u2022 NOW AVAILABLE ON DVD & DIGITAL (3tKUal_UmaU)
tp67
a(VPat Garrett & Billy the Kid movie trailer
p68
VPat Garrett & Billy the Kid Official Trailer #1 - James Coburn Movie (1973) HD (a-e47wAkg9g)
tp69
a(VThe Big Feast movie trailer
p70
VFeast First Look (2014) - Disney Animated Short HD (JAIf4aIOYyY)
tp71
a(VThe Last Detail movie trailer
p72
VThe Last Detail Theatrical Trailer (6ZUfuN2DNJ0)
tp73
a(VSleeper movie trailer
p74
VSleeper - Movie Trailer (Woody Allen) (D0RMit1vbiU)
tp75
a(VWhite Lightning movie trailer
p76
VWhite Lightning - Trailer (3xeEdOrteX0)
tp77
a(VThe Stone Killer movie trailer
p78
VAmerican Ultra Red Band Trailer (2015) Jesse Eisenberg, Kristen Stewart Comedy Movie HD (2IzC7fqws3g)
tp79
a(VThe Friends of Eddie Coyle movie trailer
p80
VThe Friends of Eddie Coyle - Trailer (vWdqoPHW-F8)
tp81
a(VCoffy movie trailer
p82
VCoffy (trailer) (2jVAIitIP-4)
tp83
a(VTom Sawyer movie trailer
p84
VTOM SAWYER & HUCKLEBERRY FINN Trailer (OnJD6mWlbRw)
tp85
a(VCahill U.S. Marshal movie trailer
p86
VCahill : U.S. Marshal - Trailer (r0AM3JbIbBk)
tp87
a(VGodspell movie trailer
p88
VGodspell Original Film Trailer (bJ9X7OHAMs0)
tp89
a(VThe Last of Sheila movie trailer
p90
VThe Last of Sheila - Original Theatrical Trailer (NPHMoDpCHU8)
tp91
a(VBattle for the Planet of the Apes movie trailer
p92
VBattle for the Planet of the Apes - 1973 Theatrical Trailer (1zzrfXI27yE)
tp93
a(VBonnie's Kids movie trailer
p94
VBonnie's Kids (gfBICnMqL7s)
tp95
a(VThat'll Be the Day movie trailer
p96
VThat'll Be The Day (r9l-br92F-4)
tp97
a(VLost Horizon movie trailer
p98
VThe official theatrical trailer for LOST HORIZON in HD (w5Xz2zLUoEM)
tp99
a(VHostess in Heat movie trailer
p100
VHeat Andy Warhol & Paul Morrissey  - Full Movie (tEGv2eMcWVc)
tp101
a.