(lp1
(VIndependence Day movie trailer
p2
VIndependence Day (1996) Trailer (SBx5Jrs9eGc)
tp3
a(VScream movie trailer
p4
VScream (1996) - Movie Trailer (iAxJazoTZVY)
tp5
a(VFrom Dusk Till Dawn movie trailer
p6
VFrom Dusk Till Dawn (trailer) (-bBay_1dKK8)
tp7
a(VHappy Gilmore movie trailer
p8
VHappy Gilmore Official Trailer #1 - Christopher McDonald Movie (1996) HD (y1emDAYCfVQ)
tp9
a(VFargo movie trailer
p10
VFargo Official Trailer #1 - Steve Buscemi Movie (1996) HD (h2tY82z3xXU)
tp11
a(VTrainspotting movie trailer
p12
VTrainspotting (1996) Official Trailer - Ewan McGregor Movie HD (8LuxOYIpu-I)
tp13
a(VMatilda movie trailer
p14
VMatilda - Movie Trailer (hUGHWje7liM)
tp15
a(VMission: Impossible movie trailer
p16
VMission: Impossible Rogue Nation Official Trailer #1 (2015) - Tom Cruise, Simon Pegg Spy Movie HD (pXwaKB7YOjw)
tp17
a(VTwister movie trailer
p18
VTwister (1996) Official Trailer #1 - Helen Hunt, Bill Paxton Movie (HCIK_AN8Zn4)
tp19
a(VThat Thing You Do! movie trailer
p20
VThat Thing You Do! trailer 1 (1996) (Vs_h7YdIe_k)
tp21
a(VRomeo + Juliet movie trailer
p22
VRomeo Juliet Official Trailer | Jayam Ravi, Hansika | D. Imman (oYnJq-AcKJE)
tp23
a(VThe Rock movie trailer
p24
VThe Rock - Movie Trailer (m-m8QCR9iiM)
tp25
a(VThe Craft movie trailer
p26
VThe Craft Trailer (1996) (DoM4OXQVCcE)
tp27
a(VJerry Maguire movie trailer
p28
VJerry Maguire (1996) HD trailer (OKoKYk4jC84)
tp29
a(VSwingers movie trailer
p30
VSwingers (1996) Official Trailer #1 - Vince Vaughn, Jon Favreau Comedy (nWCct8XbQD0)
tp31
a(VMars Attacks! movie trailer
p32
VMARS ATTACKS (1996) - Official Movie Trailer (m0idkvjPcz8)
tp33
a(VThe Hunchback of Notre Dame movie trailer
p34
VHunchback of Notre Dame, The - Trailer (1939) (PxWoOQt7dLw)
tp35
a(VSpace Jam movie trailer
p36
VSpace Jam - Movie Trailer (xMOE5OVwWDE)
tp37
a(VThe First Wives Club movie trailer
p38
VThe First Wives Club Movie Trailer (1996) (AI5OgeZt020)
tp39
a(VThe English Patient movie trailer
p40
VThe English Patient - Trailer (N1OopmufwUo)
tp41
a(VA Time to Kill movie trailer
p42
VA Time To Kill Trailer (O90-DO9P6q0)
tp43
a(VPrimal Fear movie trailer
p44
VPrimal Fear - Trailer (PnmTi7hSjrA)
tp45
a(VCrash movie trailer
p46
VCRASH - Trailer - (2004) (durNwe9pL0E)
tp47
a(VSling Blade movie trailer
p48
VSling Blade | Official Trailer (HD) | MIRAMAX (DfnPrMypS8U)
tp49
a(VSleepers movie trailer
p50
VSleepers (1996) Official Trailer - Robert De Niro, Kevin Bacon, Brad Pitt Drama Movie HD (sVdiN_4gBWk)
tp51
a(VEscape from L.A. movie trailer
p52
VEscape from L.A. (1996) Official Trailer #1 - Kurt Russell Movie HD (o6SWofbYD90)
tp53
a(VStriptease movie trailer
p54
VStriptease HD Movie Trailer Demi Moore Burt Reynolds Armand Assante Ving Rhames Andrew Bergman (afVzVLMC8Os)
tp55
a(VFear movie trailer
p56
VFear Official Trailer #1 - Mark Wahlberg, Reese Witherspoon Movie (1996) HD (p2AlffKozbg)
tp57
a(V101 Dalmatians movie trailer
p58
V101 Dalmatians - Trailer (XBJD-lxh078)
tp59
a(VThe Birdcage movie trailer
p60
VThe Birdcage (1996) Trailer | Mike Nichols (hoJOol3aoJQ)
tp61
a(VJames and the Giant Peach movie trailer
p62
VJames and the Giant Peach (1996) Trailer (VHS Capture) (iqrGesf2xbg)
tp63
a(VDon't Be a Menace to South Central While Drinking Your Juice in the Hood movie trailer
p64
VDon't Be a Menace to South Central While Drinking Your Juice in the Hood funny scene  3 (r5Hsf-0B-Eo)
tp65
a(VStealing Beauty movie trailer
p66
VStealing Beauty (1996) Trailer (SStzlZz6lxc)
tp67
a(VKingpin movie trailer
p68
VKingpin - Movie Trailer (Sk1cT3XXej8)
tp69
a(VJack movie trailer
p70
VJack The Giant Slayer Official Trailer #1 (2013) - Bryan Singer Movie HD (ng9rjC8MOgU)
tp71
a(VThe Island of Dr. Moreau movie trailer
p72
VThe Island of Dr. Moreau Official Trailer #1 - Burt Lancaster Movie (1977) HD (2RAgnFAQ9s4)
tp73
a(VThe People vs. Larry Flynt movie trailer
p74
VTrailer: The People Vs Larry Flynt (FbvZtbeC0EM)
tp75
a(VThe Nutty Professor movie trailer
p76
VThe Nutty Professor Official Trailer #1 - Eddie Murphy Movie (1996) HD (o3wJ-jzZqBw)
tp77
a(VEraser movie trailer
p78
VEraser (1996) - Original Trailer (31_OEhX30sY)
tp79
a(VThe Cable Guy movie trailer
p80
VTrailer : The Cable Guy (Ben Stiller, 1996) (Xj259Pi_vrA)
tp81
a(VBound movie trailer
p82
VBound (2015) Trailer - Daniel Baldwin, Charisma Carpenter, Bryce Draper (Xr3Y0AKhWbw)
tp83
a(VDragonHeart movie trailer
p84
VDragonheart Official Trailer #1 - Dennis Quaid Movie (1996) HD (iRjSw-4qcgM)
tp85
a(VBottle Rocket movie trailer
p86
VBottle Rocket - Trailer - (1996) (hspUSez-rYY)
tp87
a(VBroken Arrow movie trailer
p88
VBroken Arrow: Trailer (1996) (De29KipeZQw)
tp89
a(VEmma movie trailer
p90
VEmma (1996) Official Trailer - Gwyneth Paltrow, Ewan McGregor Movie HD (Jz_P43jHN6w)
tp91
a(VBeautiful Girls movie trailer
p92
VBeautiful Girls - Trailer (0AvkCamSj5o)
tp93
a(VJingle All the Way movie trailer
p94
VJingle All the Way Trailer [HQ] (TwecyXBMDUQ)
tp95
a(VStar Trek: First Contact movie trailer
p96
VThe Line Must Be Drawn Here - Star Trek: First Contact (6/9) Movie CLIP (1996) HD (s3RNsZvdYZQ)
tp97
a(VThinner movie trailer
p98
VStephen King's Thinner (1996) trailer (7-b6Mb7vpwk)
tp99
a(VThe Long Kiss Goodnight movie trailer
p100
VThe Long Kiss Goodnight (1996) Trailer (Geena Davis, Samuel L. Jackson and Yvonne Zima) (tApZSKjDfOE)
tp101
a.