(lp1
(VTerminator 3: Rise of the Machines movie trailer
p2
VTerminator 3 Rise of the Machines (OFFICIAL MOVIE TRAILER HD) (_cEOqHFrQso)
tp3
a(VDaredevil movie trailer
p4
VDaredevil: Trailer (2003) (LmP3YFk_YHA)
tp5
a(VFinding Nemo movie trailer
p6
VFinding Nemo 3D Official Trailer #1 (2012) Pixar Movie HD (2zLkasScy7A)
tp7
a(VKill Bill: Vol. 1 movie trailer
p8
VKill Bill: Vol. 1 (2003) Official Trailer - Uma Thurman, Lucy Liu Action Movie HD (7kSuas6mRpk)
tp9
a(VPirates of the Caribbean: The Curse of the Black Pearl movie trailer
p10
VPirates of the Caribbean: Curse of the Black Pearl (trailer) (0Z1XpfbuZOA)
tp11
a(VUnderworld movie trailer
p12
VUnderworld Movie Trailer (2003) (ossBOHOTrBk)
tp13
a(VThe Lord of the Rings: The Return of the King movie trailer
p14
VThe Lord of the Rings: The Return of the King Official Trailer #1 - (2003) HD (r5X-hFf6Bwo)
tp15
a(VLove Actually movie trailer
p16
VLove Actually (2003) - Official Trailer (KdzH6a-XEGM)
tp17
a(VThe Dreamers movie trailer
p18
VThe Dreamers (2003) Trailer (cHaoi6CPDg8)
tp19
a(VOldboy movie trailer
p20
VOldboy Official Theatrical Trailer #1 (2013) - Josh Brolin, Elizabeth Olsen Movie HD (WKz_AUF0GcU)
tp21
a(VMonster movie trailer
p22
VMONSTER -  Trailer ( 2003 ) (vq70brIQP40)
tp23
a(VThe Matrix Reloaded movie trailer
p24
VThe Matrix Reloaded (2003) Official Trailer #1 - Keanu Reeves Movie HD (kYzz0FSgpSU)
tp25
a(VHulk movie trailer
p26
VThe Incredible Hulk (2008) Official Trailer - Edward Norton, Liv Tyler Movie HD (xbqNb2PFKKA)
tp27
a(VPeter Pan movie trailer
p28
VPan Official Trailer #1 (2015) - Hugh Jackman, Amanda Seyfried Movie HD (UHl8F60t-ss)
tp29
a(VSchool of Rock movie trailer
p30
VSchool of Rock Official Trailer (2003) (5afGGGsxvEA)
tp31
a(VBig Fish movie trailer
p32
VBig Fish - Trailer (M3YVTgTl-F0)
tp33
a(VX2 movie trailer
p34
VX2: X-Men United Trailer (2003) (voxI4h7Jzmo)
tp35
a(VThe Italian Job movie trailer
p36
VThe Italian Job - Movie Trailer (7HZndLdQOPk)
tp37
a(VHouse of 1000 Corpses movie trailer
p38
VHouse of 1000 Corpses - Trailer (fg1GiV7TXR4)
tp39
a(VMystic River movie trailer
p40
VMystic River - Movie Trailer (AvQaTV_lBuk)
tp41
a(VLost in Translation movie trailer
p42
VLost in Translation (2003) - Official Trailer (sU0oZsqeG_s)
tp43
a(VIdentity movie trailer
p44
VIdentity - Trailer (S8fjyxM7DgU)
tp45
a(VThe Matrix Revolutions movie trailer
p46
VThe Matrix Revolutions (2003) Official Trailer #1 - Keanu Reeves Movie HD (hMbexEPAOQI)
tp47
a(VFreddy vs. Jason movie trailer
p48
VFreddy vs. Jason (2003) Theatrical Trailer (zSLGPdpd2d0)
tp49
a(VOld School movie trailer
p50
VOld School - Trailer (VqtymOtKr48)
tp51
a(VCheaper by the Dozen movie trailer
p52
VCheaper by the Dozen - Movie Trailer (BvCWFO8Trdk)
tp53
a(VFreaky Friday movie trailer
p54
VFreaky Friday (2003) Trailer - Lindsay Lohan (mlmkMeWNmc0)
tp55
a(VWhat a Girl Wants movie trailer
p56
VWhat A Girl Wants: Trailer (2003) (-oKMDtq7uAY)
tp57
a(VThirteen movie trailer
p58
VThirteen (2003) Official Trailer #1 - Evan Rachel Wood Movie HD (dad4-gQfhMs)
tp59
a(VBad Boys II movie trailer
p60
VBad Boys 2 - Official Trailer (AURhd5TCG6U)
tp61
a(VHoles movie trailer
p62
VHoles - Trailer (NEvLRtDKT0c)
tp63
a(VIt Runs in the Family movie trailer
p64
VIt Runs in the Family Official Trailer #1 - Kirk Douglas Movie (2003) HD (MjBy15Th-PE)
tp65
a(V2 Fast 2 Furious movie trailer
p66
V2 Fast 2 Furious Official Trailer #1 - (2003) HD (F_VIM03DXWI)
tp67
a(VThe League of Extraordinary Gentlemen movie trailer
p68
VThe League of Extraordinary Gentlemen - Movie Trailer (qfdux5WPX2c)
tp69
a(VThe Last Samurai movie trailer
p70
VThe Last Samurai Official Trailer #1 - (2003) HD (T50_qHEOahQ)
tp71
a(VShanghai Knights movie trailer
p72
VShanghai Noon - Movie Trailer (yE9VSEgV90Y)
tp73
a(VHow to Lose a Guy in 10 Days movie trailer
p74
VHow to Lose a Guy in 10 Days (2003) Official Trailer #1 - Kate Hudson Movie HD (2ZMGk_Ml1fc)
tp75
a(VThe Room movie trailer
p76
VThe Room - Full Length Trailer (yCj8sPCWfUw)
tp77
a(VMaster and Commander: The Far Side of the World movie trailer
p78
VMaster And Commander: The Far Side Of The World Trailer [HQ] (6oyQGHHz8U8)
tp79
a(VDreamcatcher movie trailer
p80
VDreamcatcher (2003) Official Trailer #1 - Donnie Wahlberg Movie HD (FaAtvjev_So)
tp81
a(VTears of the Sun movie trailer
p82
VTears of the Sun - Trailer (yCEuSjWRJdU)
tp83
a(VElf movie trailer
p84
VElf - Movie Trailer (_TOQWF_-RWY)
tp85
a(VCold Mountain movie trailer
p86
VCold Mountain Official Trailer HQ (NveDcsO6DJ0)
tp87
a(VThe Texas Chainsaw Massacre movie trailer
p88
VThe Texas Chainsaw Massacre - Original Trailer 1974 (Vs3981DoINw)
tp89
a(VWrong Turn movie trailer
p90
VWrong Turn (2003) Trailer (naUUyD-_oPc)
tp91
a(VAmerican Wedding movie trailer
p92
VAmerican Wedding (2003) Trailer (KqiBn-97GEo)
tp93
a(VScary Movie 3 movie trailer
p94
VScary Movie 3 - Trailer (oZVyGtygM2A)
tp95
a(VAgent Cody Banks movie trailer
p96
VAgent Cody Banks Official Trailer! (dsBiW3L7-gc)
tp97
a(VSpy Kids 3-D: Game Over movie trailer
p98
VSpy Kids 3-D: Game Over (1/11) Movie CLIP - Private Detective Juni (2003) HD (lOmeZW0N10k)
tp99
a(VThe Rundown movie trailer
p100
VThe Rundown: Trailer (2003) (2-d1LJ66Nyw)
tp101
a.