(lp1
(VThe Goonies movie trailer
p2
VThe Goonies Trailer (1985) (kFEfHCJG4G4)
tp3
a(VBack to the Future movie trailer
p4
VBack To The Future (1985) Theatrical Trailer - Michael J. Fox Movie HD (qvsgGtivCgs)
tp5
a(VThe Breakfast Club movie trailer
p6
VThe Breakfast Club Official Trailer #1 - Paul Gleason Movie (1985) HD (BSXBvor47Zs)
tp7
a(VMad Max Beyond Thunderdome movie trailer
p8
VMad Max Beyond Thunderdome (1985) Official Trailer - Mel Gibson Post-Apocalypse Movie HD (9JKZKjFjHDM)
tp9
a(VRocky IV movie trailer
p10
VRocky 4 Official Trailer #1 - Burt Young Movie (1985) HD (mIE5HYkzvV0)
tp11
a(VLegend movie trailer
p12
VLegend Official Trailer #1 (2015) Tom Hardy, Emily Browning Crime Thriller Movie HD (yI3v6KfR9Mw)
tp13
a(VExplorers movie trailer
p14
VExplorers (1985) Original Trailer (3X3VxBJzH68)
tp15
a(VCommando movie trailer
p16
VCommando | Movie Trailer | Vidyut Jamwal & Pooja Chopra (sLIs-4oM3m4)
tp17
a(VClue movie trailer
p18
VClue - Trailer (cDDdeHtrxfA)
tp19
a(VReal Genius movie trailer
p20
VReal Genius Trailer 1985 Movie Starring Val Kilmer (Z-DO3W-ICYk)
tp21
a(VWeird Science movie trailer
p22
VWeird Science Official Trailer #1 - Robert Downey Jr. Movie (1985) HD (9qd04u2Yj44)
tp23
a(VSt. Elmo's Fire movie trailer
p24
V"St. Elmo's Fire (1985)" Theatrical Trailer (Y46Sw1BUHPs)
tp25
a(VBrazil movie trailer
p26
VBrazil(1985) Trailer (4Wh2b1eZFUM)
tp27
a(VThe Color Purple movie trailer
p28
VThe Color Purple Movie Trailer (MAaElqqAV_w)
tp29
a(VWitness movie trailer
p30
VWITNESS - Trailer - (1985) - HQ (DY3XnCyKAEU)
tp31
a(VEuropean Vacation movie trailer
p32
VNational Lampoon's European Vacation - Original Movie Trailer 1985 (rOmH-4INZ9I)
tp33
a(VTeen Wolf movie trailer
p34
VTeen Wolf : True Alpha - Becoming.  Movie Trailer. (MllygJ1VFgc)
tp35
a(VRed Sonja movie trailer
p36
VRed Sonja - Trailer (kUHsZEo4I24)
tp37
a(VPale Rider movie trailer
p38
VPale Rider - Theatrical Trailer (SGzz3hh1jHc)
tp39
a(VBetter Off Dead... movie trailer
p40
VBetter Off Dead 1985 Trailer (DWTouGjZt6A)
tp41
a(VRambo: First Blood Part II movie trailer
p42
VRambo: First Blood Part 2 (1985) - Trailer (HD) (WQGJAIYtWD4)
tp43
a(VSilver Bullet movie trailer
p44
VSilver Bullet (1985) Trailer (Version 2) (RMJTjw6vN5o)
tp45
a(VMask movie trailer
p46
VMask (4/10) Movie CLIP - First Day of School (1985) HD (yXl3ENKGAUQ)
tp47
a(VReturn to Oz movie trailer
p48
VReturn to Oz (1985) Original Trailer (CklyKCKFtwE)
tp49
a(VSilverado movie trailer
p50
VSilverado - Trailer (oPLSventoUI)
tp51
a(VA View to a Kill movie trailer
p52
V007 #14: A View to a Kill - Official Trailer [1985] (CMm9rZPIS5s)
tp53
a(VPee-wee's Big Adventure movie trailer
p54
VPee-wee's Big Adventure (1/10) Movie CLIP - Pee-wee's Breakfast (1985) HD (xO7O6zwFZ1k)
tp55
a(VOut of Africa movie trailer
p56
VOut of Africa Official Trailer #1 - Robert Redford Movie (1985) HD (2EW2kNCmZZ0)
tp57
a(VA Room with a View movie trailer
p58
VA Room with a View Trailer [HD] (WkrldSP4EU8)
tp59
a(VRan movie trailer
p60
VRan Trailer - Akira Kurosawa (AbbfDntoRRk)
tp61
a(VThe Last Dragon movie trailer
p62
VThe Last Dragon Trailer 1985 Kung Fu Movie with Taimak Vanity (0i5zVyyhtpA)
tp63
a(VFright Night movie trailer
p64
VFright Night (2011) Official Trailer #1 - Christopher Mintz-Plasse, Colin Farrell Comedy HD (6enhzzeK6l0)
tp65
a(VCocoon movie trailer
p66
VCocoon (1985) - Trailer (s9BSsIX2j7M)
tp67
a(VSummer Rental movie trailer
p68
VSummer Rental - Trailer (FnsdELHn0Po)
tp69
a(VJust One of the Guys movie trailer
p70
VJust One Of the Guys 1985 Trailer (dnD4kgZT9ow)
tp71
a(VGirls Just Want to Have Fun movie trailer
p72
VGirls Just Wanna Have Fun Official Trailer #1 - Sarah Jessica Parker Movie (1985) (hyQmsqs5jus)
tp73
a(VLadyhawke movie trailer
p74
VLadyhawke - Movie Trailer (QEh0kwDqZZ0)
tp75
a(VPolice Academy 2: Their First Assignment movie trailer
p76
VPolice Academy 2: Their First Assignment (1985) Official Trailer - Steve Guttenberg Movie HD (0b3WZ2K473s)
tp77
a(VJagged Edge movie trailer
p78
VJAGGED EDGE Trailer (ZnQa0AI10ic)
tp79
a(VEnemy Mine movie trailer
p80
VEnemy Mine Trailer (dRUdNhYoP_U)
tp81
a(VA Nightmare on Elm Street 2: Freddy's Revenge movie trailer
p82
VNightmare On Elm Street 2: Freddy's Revenge (1985) Official Trailer Movie HD (9iqNVyjwLFA)
tp83
a(VAfter Hours movie trailer
p84
VAfter Hours Trailer (lLHM-wPecz0)
tp85
a(VThe Jewel of the Nile movie trailer
p86
VThe Jewel Of The Nile Original Movie Trailer [1985] (TiG8ojJPtEE)
tp87
a(VThe Return of the Living Dead movie trailer
p88
VThe Return of the Living Dead Official Trailer #1 - James Karen Movie (1985) HD (GkhCAV3wmIU)
tp89
a(VTo Live and Die in L.A. movie trailer
p90
VTo Live and Die in L.A. Official Trailer #1 - Willem Dafoe Movie (1985) HD (I5JI_RclmIg)
tp91
a(VFletch movie trailer
p92
VFletch Official Trailer #1 - (1985) HD (4sMMt2M3RiU)
tp93
a(VRe-Animator movie trailer
p94
VRe-Animator (1985) - Trailer [HQ] (6NOcRIHiRtc)
tp95
a(VDay of the Dead movie trailer
p96
VDay of the Dead 2008 Trailer (LrI2xITvWts)
tp97
a(VDesperately Seeking Susan movie trailer
p98
VDesperately Seeking Susan Original Movie Trailer [1986] (lGDLAba7XV0)
tp99
a(VThe Black Cauldron movie trailer
p100
VThe Black Cauldron (1985) Trailer (lHiyYSuveJ4)
tp101
a.