(lp1
ccopy_reg
_reconstructor
p2
(c__main__
Song
p3
c__builtin__
object
p4
NtRp5
(dp6
S'keywords'
p7
VHow You Remind Me Nickelback
p8
sS'singer'
p9
VNickelback
p10
sS'title'
p11
VHow You Remind Me
p12
sbag2
(g3
g4
NtRp13
(dp14
g7
VFoolish Ashanti
p15
sg9
VAshanti
p16
sg11
VFoolish
p17
sbag2
(g3
g4
NtRp18
(dp19
g7
VHot in Herre Nelly
p20
sg9
VNelly
p21
sg11
VHot in Herre
p22
sbag2
(g3
g4
NtRp23
(dp24
g7
VDilemma Nelly featuring Kelly Rowland
p25
sg9
VNelly featuring Kelly Rowland
p26
sg11
VDilemma
p27
sbag2
(g3
g4
NtRp28
(dp29
g7
VWherever You Will Go The Calling
p30
sg9
VThe Calling
p31
sg11
VWherever You Will Go
p32
sbag2
(g3
g4
NtRp33
(dp34
g7
VA Thousand Miles Vanessa Carlton
p35
sg9
VVanessa Carlton
p36
sg11
VA Thousand Miles
p37
sbag2
(g3
g4
NtRp38
(dp39
g7
VIn the End Linkin Park
p40
sg9
VLinkin Park
p41
sg11
VIn the End
p42
sbag2
(g3
g4
NtRp43
(dp44
g7
VWhat's Luv? Fat Joe featuring Ashanti
p45
sg9
VFat Joe featuring Ashanti
p46
sg11
VWhat's Luv?
p47
sbag2
(g3
g4
NtRp48
(dp49
g7
VU Got It Bad Usher
p50
sg9
VUsher
p51
sg11
VU Got It Bad
p52
sbag2
(g3
g4
NtRp53
(dp54
g7
VBlurry Puddle of Mudd
p55
sg9
VPuddle of Mudd
p56
sg11
VBlurry
p57
sbag2
(g3
g4
NtRp58
(dp59
g7
VComplicated Avril Lavigne
p60
sg9
VAvril Lavigne
p61
sg11
VComplicated
p62
sbag2
(g3
g4
NtRp63
(dp64
g7
VAlways on Time Ja Rule featuring Ashanti
p65
sg9
VJa Rule featuring Ashanti
p66
sg11
VAlways on Time
p67
sbag2
(g3
g4
NtRp68
(dp69
g7
VAin't It Funny Jennifer Lopez featuring Ja Rule
p70
sg9
VJennifer Lopez featuring Ja Rule
p71
sg11
VAin't It Funny
p72
sbag2
(g3
g4
NtRp73
(dp74
g7
VThe Middle Jimmy Eat World
p75
sg9
VJimmy Eat World
p76
sg11
VThe Middle
p77
sbag2
(g3
g4
NtRp78
(dp79
g7
VI Need a Girl (Part One) P. Diddy featuring Usher and Loon
p80
sg9
VP. Diddy featuring Usher and Loon
p81
sg11
VI Need a Girl (Part One)
p82
sbag2
(g3
g4
NtRp83
(dp84
g7
VU Don't Have to Call Usher
p85
sg9
VUsher
p86
sg11
VU Don't Have to Call
p87
sbag2
(g3
g4
NtRp88
(dp89
g7
VFamily Affair Mary J. Blige
p90
sg9
VMary J. Blige
p91
sg11
VFamily Affair
p92
sbag2
(g3
g4
NtRp93
(dp94
g7
VI Need a Girl (Part Two) P. Diddy featuring Ginuwine, Loon and Mario Winans
p95
sg9
VP. Diddy featuring Ginuwine, Loon and Mario Winans
p96
sg11
VI Need a Girl (Part Two)
p97
sbag2
(g3
g4
NtRp98
(dp99
g7
VGangsta Lovin' Eve featuring Alicia Keys
p100
sg9
VEve featuring Alicia Keys
p101
sg11
VGangsta Lovin'
p102
sbag2
(g3
g4
NtRp103
(dp104
g7
VMy Sacrifice Creed
p105
sg9
VCreed
p106
sg11
VMy Sacrifice
p107
sbag2
(g3
g4
NtRp108
(dp109
g7
VWithout Me Eminem
p110
sg9
VEminem
p111
sg11
VWithout Me
p112
sbag2
(g3
g4
NtRp113
(dp114
g7
VHero Enrique Iglesias
p115
sg9
VEnrique Iglesias
p116
sg11
VHero
p117
sbag2
(g3
g4
NtRp118
(dp119
g7
VAll You Wanted Michelle Branch
p120
sg9
VMichelle Branch
p121
sg11
VAll You Wanted
p122
sbag2
(g3
g4
NtRp123
(dp124
g7
VGet the Party Started Pink
p125
sg9
VPink
p126
sg11
VGet the Party Started
p127
sbag2
(g3
g4
NtRp128
(dp129
g7
VHero Chad Kroeger featuring Josey Scott
p130
sg9
VChad Kroeger featuring Josey Scott
p131
sg11
VHero
p132
sbag2
(g3
g4
NtRp133
(dp134
g7
VWasting My Time Default
p135
sg9
VDefault
p136
sg11
VWasting My Time
p137
sbag2
(g3
g4
NtRp138
(dp139
g7
VOne Last Breath Creed
p140
sg9
VCreed
p141
sg11
VOne Last Breath
p142
sbag2
(g3
g4
NtRp143
(dp144
g7
VWhenever, Wherever Shakira
p145
sg9
VShakira
p146
sg11
VWhenever, Wherever
p147
sbag2
(g3
g4
NtRp148
(dp149
g7
VI'm Gonna Be Alright Jennifer Lopez featuring Nas
p150
sg9
VJennifer Lopez featuring Nas
p151
sg11
VI'm Gonna Be Alright
p152
sbag2
(g3
g4
NtRp153
(dp154
g7
VOh Boy Cam'ron featuring Juelz Santana
p155
sg9
VCam'ron featuring Juelz Santana
p156
sg11
VOh Boy
p157
sbag2
(g3
g4
NtRp158
(dp159
g7
VHeaven DJ Sammy featuring Yanou and Do
p160
sg9
VDJ Sammy featuring Yanou and Do
p161
sg11
VHeaven
p162
sbag2
(g3
g4
NtRp163
(dp164
g7
VHey Baby No Doubt featuring Bounty Killer
p165
sg9
VNo Doubt featuring Bounty Killer
p166
sg11
VHey Baby
p167
sbag2
(g3
g4
NtRp168
(dp169
g7
VGirlfriend 'N Sync featuring Nelly
p170
sg9
V'N Sync featuring Nelly
p171
sg11
VGirlfriend
p172
sbag2
(g3
g4
NtRp173
(dp174
g7
VJust a Friend 2002 Mario
p175
sg9
VMario
p176
sg11
VJust a Friend 2002
p177
sbag2
(g3
g4
NtRp178
(dp179
g7
VSoak Up the Sun Sheryl Crow
p180
sg9
VSheryl Crow
p181
sg11
VSoak Up the Sun
p182
sbag2
(g3
g4
NtRp183
(dp184
g7
VDon't Let Me Get Me Pink
p185
sg9
VPink
p186
sg11
VDon't Let Me Get Me
p187
sbag2
(g3
g4
NtRp188
(dp189
g7
VNothin' N.O.R.E.
p190
sg9
VN.O.R.E.
p191
sg11
VNothin'
p192
sbag2
(g3
g4
NtRp193
(dp194
g7
VOops (Oh My) Tweet featuring Missy Elliott
p195
sg9
VTweet featuring Missy Elliott
p196
sg11
VOops (Oh My)
p197
sbag2
(g3
g4
NtRp198
(dp199
g7
VA Moment Like This Kelly Clarkson
p200
sg9
VKelly Clarkson
p201
sg11
VA Moment Like This
p202
sbag2
(g3
g4
NtRp203
(dp204
g7
VAddictive Truth Hurts featuring Rakim
p205
sg9
VTruth Hurts featuring Rakim
p206
sg11
VAddictive
p207
sbag2
(g3
g4
NtRp208
(dp209
g7
VHappy Ashanti
p210
sg9
VAshanti
p211
sg11
VHappy
p212
sbag2
(g3
g4
NtRp213
(dp214
g7
VNo Such Thing John Mayer
p215
sg9
VJohn Mayer
p216
sg11
VNo Such Thing
p217
sbag2
(g3
g4
NtRp218
(dp219
g7
VJust Like a Pill Pink
p220
sg9
VPink
p221
sg11
VJust Like a Pill
p222
sbag2
(g3
g4
NtRp223
(dp224
g7
VDown 4 U Ja Rule featuring Ashanti, Charli Baltimore and Vita
p225
sg9
VJa Rule featuring Ashanti, Charli Baltimore and Vita
p226
sg11
VDown 4 U
p227
sbag2
(g3
g4
NtRp228
(dp229
g7
VCan't Get You Out of My Head Kylie Minogue
p230
sg9
VKylie Minogue
p231
sg11
VCan't Get You Out of My Head
p232
sbag2
(g3
g4
NtRp233
(dp234
g7
VSuperman (It's Not Easy) Five for Fighting
p235
sg9
VFive for Fighting
p236
sg11
VSuperman (It's Not Easy)
p237
sbag2
(g3
g4
NtRp238
(dp239
g7
VCleanin' Out My Closet Eminem
p240
sg9
VEminem
p241
sg11
VCleanin' Out My Closet
p242
sbag2
(g3
g4
NtRp243
(dp244
g7
VHalfcrazy Musiq Soulchild
p245
sg9
VMusiq Soulchild
p246
sg11
VHalfcrazy
p247
sbag2
(g3
g4
NtRp248
(dp249
g7
VLights, Camera, Action! Mr. Cheeks
p250
sg9
VMr. Cheeks
p251
sg11
VLights, Camera, Action!
p252
sbag2
(g3
g4
NtRp253
(dp254
g7
VStill Fly Big Tymers
p255
sg9
VBig Tymers
p256
sg11
VStill Fly
p257
sbag2
(g3
g4
NtRp258
(dp259
g7
VA Woman's Worth Alicia Keys
p260
sg9
VAlicia Keys
p261
sg11
VA Woman's Worth
p262
sbag2
(g3
g4
NtRp263
(dp264
g7
V7 Days Craig David
p265
sg9
VCraig David
p266
sg11
V7 Days
p267
sbag2
(g3
g4
NtRp268
(dp269
g7
VHey Ma Cam'ron featuring Juelz Santana and Freekey Zekey
p270
sg9
VCam'ron featuring Juelz Santana and Freekey Zekey
p271
sg11
VHey Ma
p272
sbag2
(g3
g4
NtRp273
(dp274
g7
VWork It Missy Elliott
p275
sg9
VMissy Elliott
p276
sg11
VWork It
p277
sbag2
(g3
g4
NtRp278
(dp279
g7
VMove Bitch Ludacris featuring Mystikal and I-20
p280
sg9
VLudacris featuring Mystikal and I-20
p281
sg11
VMove Bitch
p282
sbag2
(g3
g4
NtRp283
(dp284
g7
VCan't Fight the Moonlight LeAnn Rimes
p285
sg9
VLeAnn Rimes
p286
sg11
VCan't Fight the Moonlight
p287
sbag2
(g3
g4
NtRp288
(dp289
g7
VEscape Enrique Iglesias
p290
sg9
VEnrique Iglesias
p291
sg11
VEscape
p292
sbag2
(g3
g4
NtRp293
(dp294
g7
VMore than a Woman Aaliyah
p295
sg9
VAaliyah
p296
sg11
VMore than a Woman
p297
sbag2
(g3
g4
NtRp298
(dp299
g7
VHella Good No Doubt
p300
sg9
VNo Doubt
p301
sg11
VHella Good
p302
sbag2
(g3
g4
NtRp303
(dp304
g7
VI Love You Faith Evans
p305
sg9
VFaith Evans
p306
sg11
VI Love You
p307
sbag2
(g3
g4
NtRp308
(dp309
g7
VGotta Get thru This Daniel Bedingfield
p310
sg9
VDaniel Bedingfield
p311
sg11
VGotta Get thru This
p312
sbag2
(g3
g4
NtRp313
(dp314
g7
VPass the Courvoisier, Part II Busta Rhymes featuring P. Diddy and Pharrell
p315
sg9
VBusta Rhymes featuring P. Diddy and Pharrell
p316
sg11
VPass the Courvoisier, Part II
p317
sbag2
(g3
g4
NtRp318
(dp319
g7
VLose Yourself Eminem
p320
sg9
VEminem
p321
sg11
VLose Yourself
p322
sbag2
(g3
g4
NtRp323
(dp324
g7
VButterflies Michael Jackson
p325
sg9
VMichael Jackson
p326
sg11
VButterflies
p327
sbag2
(g3
g4
NtRp328
(dp329
g7
VWhat About Us? Brandy
p330
sg9
VBrandy
p331
sg11
VWhat About Us?
p332
sbag2
(g3
g4
NtRp333
(dp334
g7
VUnderneath Your Clothes Shakira
p335
sg9
VShakira
p336
sg11
VUnderneath Your Clothes
p337
sbag2
(g3
g4
NtRp338
(dp339
g7
VRainy Dayz Mary J. Blige featuring Ja Rule
p340
sg9
VMary J. Blige featuring Ja Rule
p341
sg11
VRainy Dayz
p342
sbag2
(g3
g4
NtRp343
(dp344
g7
VDifferences Ginuwine
p345
sg9
VGinuwine
p346
sg11
VDifferences
p347
sbag2
(g3
g4
NtRp348
(dp349
g7
VIf I Could Go! Angie Martinez featuring Lil' Mo and Sacario
p350
sg9
VAngie Martinez featuring Lil' Mo and Sacario
p351
sg11
VIf I Could Go!
p352
sbag2
(g3
g4
NtRp353
(dp354
g7
VThe Whole World Outkast featuring Killer Mike
p355
sg9
VOutkast featuring Killer Mike
p356
sg11
VThe Whole World
p357
sbag2
(g3
g4
NtRp358
(dp359
g7
VUnderneath It All No Doubt featuring Lady Saw
p360
sg9
VNo Doubt featuring Lady Saw
p361
sg11
VUnderneath It All
p362
sbag2
(g3
g4
NtRp363
(dp364
g7
VCaramel City High featuring Eve
p365
sg9
VCity High featuring Eve
p366
sg11
VCaramel
p367
sbag2
(g3
g4
NtRp368
(dp369
g7
VLuv U Better LL Cool J
p370
sg9
VLL Cool J
p371
sg11
VLuv U Better
p372
sbag2
(g3
g4
NtRp373
(dp374
g7
VGimme the Light Sean Paul
p375
sg9
VSean Paul
p376
sg11
VGimme the Light
p377
sbag2
(g3
g4
NtRp378
(dp379
g7
VGone 'N Sync
p380
sg9
V'N Sync
p381
sg11
VGone
p382
sbag2
(g3
g4
NtRp383
(dp384
g7
VLivin' It Up Ja Rule featuring Case
p385
sg9
VJa Rule featuring Case
p386
sg11
VLivin' It Up
p387
sbag2
(g3
g4
NtRp388
(dp389
g7
VRollout (My Business) Ludacris
p390
sg9
VLudacris
p391
sg11
VRollout (My Business)
p392
sbag2
(g3
g4
NtRp393
(dp394
g7
VHere Is Gone Goo Goo Dolls
p395
sg9
VGoo Goo Dolls
p396
sg11
VHere Is Gone
p397
sbag2
(g3
g4
NtRp398
(dp399
g7
VNo More Drama Mary J. Blige
p400
sg9
VMary J. Blige
p401
sg11
VNo More Drama
p402
sbag2
(g3
g4
NtRp403
(dp404
g7
VDays Go By Dirty Vegas
p405
sg9
VDirty Vegas
p406
sg11
VDays Go By
p407
sbag2
(g3
g4
NtRp408
(dp409
g7
VBaby Ashanti
p410
sg9
VAshanti
p411
sg11
VBaby
p412
sbag2
(g3
g4
NtRp413
(dp414
g7
VThe Good Stuff Kenny Chesney
p415
sg9
VKenny Chesney
p416
sg11
VThe Good Stuff
p417
sbag2
(g3
g4
NtRp418
(dp419
g7
VWe Thuggin' Fat Joe featuring R. Kelly
p420
sg9
VFat Joe featuring R. Kelly
p421
sg11
VWe Thuggin'
p422
sbag2
(g3
g4
NtRp423
(dp424
g7
VGood Morning Beautiful Steve Holy
p425
sg9
VSteve Holy
p426
sg11
VGood Morning Beautiful
p427
sbag2
(g3
g4
NtRp428
(dp429
g7
VRock the Boat Aaliyah
p430
sg9
VAaliyah
p431
sg11
VRock the Boat
p432
sbag2
(g3
g4
NtRp433
(dp434
g7
VDrive (For Daddy Gene) Alan Jackson
p435
sg9
VAlan Jackson
p436
sg11
VDrive (For Daddy Gene)
p437
sbag2
(g3
g4
NtRp438
(dp439
g7
VStanding Still Jewel
p440
sg9
VJewel
p441
sg11
VStanding Still
p442
sbag2
(g3
g4
NtRp443
(dp444
g7
VAnything Jaheim featuring Next
p445
sg9
VJaheim featuring Next
p446
sg11
VAnything
p447
sbag2
(g3
g4
NtRp448
(dp449
g7
VFull Moon Brandy
p450
sg9
VBrandy
p451
sg11
VFull Moon
p452
sbag2
(g3
g4
NtRp453
(dp454
g7
VUh Huh B2K
p455
sg9
VB2K
p456
sg11
VUh Huh
p457
sbag2
(g3
g4
NtRp458
(dp459
g7
VA New Day Has Come Celine Dion
p460
sg9
VCeline Dion
p461
sg11
VA New Day Has Come
p462
sbag2
(g3
g4
NtRp463
(dp464
g7
VTurn Off the Light Nelly Furtado
p465
sg9
VNelly Furtado
p466
sg11
VTurn Off the Light
p467
sbag2
(g3
g4
NtRp468
(dp469
g7
VLiving and Living Well George Strait
p470
sg9
VGeorge Strait
p471
sg11
VLiving and Living Well
p472
sbag2
(g3
g4
NtRp473
(dp474
g7
VMy List Toby Keith
p475
sg9
VToby Keith
p476
sg11
VMy List
p477
sbag2
(g3
g4
NtRp478
(dp479
g7
VHands Clean Alanis Morissette
p480
sg9
VAlanis Morissette
p481
sg11
VHands Clean
p482
sbag2
(g3
g4
NtRp483
(dp484
g7
VSk8er Boi Avril Lavigne
p485
sg9
VAvril Lavigne
p486
sg11
VSk8er Boi
p487
sbag2
(g3
g4
NtRp488
(dp489
g7
VLong Time Gone Dixie Chicks
p490
sg9
VDixie Chicks
p491
sg11
VLong Time Gone
p492
sbag2
(g3
g4
NtRp493
(dp494
g7
VWhere Were You (When the World Stopped Turning) Alan Jackson
p495
sg9
VAlan Jackson
p496
sg11
VWhere Were You (When the World Stopped Turning)
p497
sbag2
(g3
g4
NtRp498
(dp499
g7
VLike I Love You Justin Timberlake
p500
sg9
VJustin Timberlake
p501
sg11
VLike I Love You
p502
sbag2
(g3
g4
NtRp503
(dp504
g7
VI Do!! Toya
p505
sg9
VToya
p506
sg11
VI Do!!
p507
sba.