(lp1
ccopy_reg
_reconstructor
p2
(c__main__
Song
p3
c__builtin__
object
p4
NtRp5
(dp6
S'keywords'
p7
VWe Belong Together Mariah Carey
p8
sS'singer'
p9
VMariah Carey
p10
sS'title'
p11
VWe Belong Together
p12
sbag2
(g3
g4
NtRp13
(dp14
g7
VHollaback Girl Gwen Stefani
p15
sg9
VGwen Stefani
p16
sg11
VHollaback Girl
p17
sbag2
(g3
g4
NtRp18
(dp19
g7
VLet Me Love You Mario
p20
sg9
VMario
p21
sg11
VLet Me Love You
p22
sbag2
(g3
g4
NtRp23
(dp24
g7
VSince U Been Gone Kelly Clarkson
p25
sg9
VKelly Clarkson
p26
sg11
VSince U Been Gone
p27
sbag2
(g3
g4
NtRp28
(dp29
g7
V1, 2 Step Ciara and Missy Elliott
p30
sg9
VCiara and Missy Elliott
p31
sg11
V1, 2 Step
p32
sbag2
(g3
g4
NtRp33
(dp34
g7
VGold Digger Kanye West featuring Jamie Foxx
p35
sg9
VKanye West featuring Jamie Foxx
p36
sg11
VGold Digger
p37
sbag2
(g3
g4
NtRp38
(dp39
g7
VBoulevard of Broken Dreams Green Day
p40
sg9
VGreen Day
p41
sg11
VBoulevard of Broken Dreams
p42
sbag2
(g3
g4
NtRp43
(dp44
g7
VCandy Shop 50 Cent featuring Olivia
p45
sg9
V50 Cent featuring Olivia
p46
sg11
VCandy Shop
p47
sbag2
(g3
g4
NtRp48
(dp49
g7
VDon't Cha The Pussycat Dolls featuring Busta Rhymes
p50
sg9
VThe Pussycat Dolls featuring Busta Rhymes
p51
sg11
VDon't Cha
p52
sbag2
(g3
g4
NtRp53
(dp54
g7
VBehind These Hazel Eyes Kelly Clarkson
p55
sg9
VKelly Clarkson
p56
sg11
VBehind These Hazel Eyes
p57
sbag2
(g3
g4
NtRp58
(dp59
g7
VDisco Inferno 50 Cent
p60
sg9
V50 Cent
p61
sg11
VDisco Inferno
p62
sbag2
(g3
g4
NtRp63
(dp64
g7
VYou and Me Lifehouse
p65
sg9
VLifehouse
p66
sg11
VYou and Me
p67
sbag2
(g3
g4
NtRp68
(dp69
g7
VDon't Phunk with My Heart The Black Eyed Peas
p70
sg9
VThe Black Eyed Peas
p71
sg11
VDon't Phunk with My Heart
p72
sbag2
(g3
g4
NtRp73
(dp74
g7
VLose Control Missy Elliott featuring Ciara and Fatman Scoop
p75
sg9
VMissy Elliott featuring Ciara and Fatman Scoop
p76
sg11
VLose Control
p77
sbag2
(g3
g4
NtRp78
(dp79
g7
VShake It Off Mariah Carey
p80
sg9
VMariah Carey
p81
sg11
VShake It Off
p82
sbag2
(g3
g4
NtRp83
(dp84
g7
VMr. Brightside The Killers
p85
sg9
VThe Killers
p86
sg11
VMr. Brightside
p87
sbag2
(g3
g4
NtRp88
(dp89
g7
VJust a Lil Bit 50 Cent
p90
sg9
V50 Cent
p91
sg11
VJust a Lil Bit
p92
sbag2
(g3
g4
NtRp93
(dp94
g7
VPon de Replay Rihanna
p95
sg9
VRihanna
p96
sg11
VPon de Replay
p97
sbag2
(g3
g4
NtRp98
(dp99
g7
VHow We Do The Game featuring 50 Cent
p100
sg9
VThe Game featuring 50 Cent
p101
sg11
VHow We Do
p102
sbag2
(g3
g4
NtRp103
(dp104
g7
VBeverly Hills Weezer
p105
sg9
VWeezer
p106
sg11
VBeverly Hills
p107
sbag2
(g3
g4
NtRp108
(dp109
g7
VOh Ciara featuring Ludacris
p110
sg9
VCiara featuring Ludacris
p111
sg11
VOh
p112
sbag2
(g3
g4
NtRp113
(dp114
g7
VLonely No More Rob Thomas
p115
sg9
VRob Thomas
p116
sg11
VLonely No More
p117
sbag2
(g3
g4
NtRp118
(dp119
g7
VDrop It Like It's Hot Snoop Dogg featuring Pharrell
p120
sg9
VSnoop Dogg featuring Pharrell
p121
sg11
VDrop It Like It's Hot
p122
sbag2
(g3
g4
NtRp123
(dp124
g7
VHate It or Love It The Game featuring 50 Cent
p125
sg9
VThe Game featuring 50 Cent
p126
sg11
VHate It or Love It
p127
sbag2
(g3
g4
NtRp128
(dp129
g7
VLovers & Friends Lil Jon featuring Usher and Ludacris
p130
sg9
VLil Jon featuring Usher and Ludacris
p131
sg11
VLovers & Friends
p132
sbag2
(g3
g4
NtRp133
(dp134
g7
VSoldier Destiny's Child featuring T.I. and Lil Wayne
p135
sg9
VDestiny's Child featuring T.I. and Lil Wayne
p136
sg11
VSoldier
p137
sbag2
(g3
g4
NtRp138
(dp139
g7
VBreakaway Kelly Clarkson
p140
sg9
VKelly Clarkson
p141
sg11
VBreakaway
p142
sbag2
(g3
g4
NtRp143
(dp144
g7
VSwitch Will Smith
p145
sg9
VWill Smith
p146
sg11
VSwitch
p147
sbag2
(g3
g4
NtRp148
(dp149
g7
VLet Me Hold You Bow Wow featuring Omarion
p150
sg9
VBow Wow featuring Omarion
p151
sg11
VLet Me Hold You
p152
sbag2
(g3
g4
NtRp153
(dp154
g7
VLike You Bow Wow featuring Ciara
p155
sg9
VBow Wow featuring Ciara
p156
sg11
VLike You
p157
sbag2
(g3
g4
NtRp158
(dp159
g7
VRich Girl Gwen Stefani featuring Eve
p160
sg9
VGwen Stefani featuring Eve
p161
sg11
VRich Girl
p162
sbag2
(g3
g4
NtRp163
(dp164
g7
VMy Humps The Black Eyed Peas
p165
sg9
VThe Black Eyed Peas
p166
sg11
VMy Humps
p167
sbag2
(g3
g4
NtRp168
(dp169
g7
VObsession (No Es Amor) Frankie J featuring Baby Bash
p170
sg9
VFrankie J featuring Baby Bash
p171
sg11
VObsession (No Es Amor)
p172
sbag2
(g3
g4
NtRp173
(dp174
g7
VCaught Up Usher
p175
sg9
VUsher
p176
sg11
VCaught Up
p177
sbag2
(g3
g4
NtRp178
(dp179
g7
VListen to Your Heart DHT featuring Edmee
p180
sg9
VDHT featuring Edmee
p181
sg11
VListen to Your Heart
p182
sbag2
(g3
g4
NtRp183
(dp184
g7
VScars Papa Roach
p185
sg9
VPapa Roach
p186
sg11
VScars
p187
sbag2
(g3
g4
NtRp188
(dp189
g7
VFeel Good Inc. Gorillaz
p190
sg9
VGorillaz
p191
sg11
VFeel Good Inc.
p192
sbag2
(g3
g4
NtRp193
(dp194
g7
VLet Me Go 3 Doors Down
p195
sg9
V3 Doors Down
p196
sg11
VLet Me Go
p197
sbag2
(g3
g4
NtRp198
(dp199
g7
VHoliday Green Day
p200
sg9
VGreen Day
p201
sg11
VHoliday
p202
sbag2
(g3
g4
NtRp203
(dp204
g7
VSugar, We're Goin Down Fall Out Boy
p205
sg9
VFall Out Boy
p206
sg11
VSugar, We're Goin Down
p207
sbag2
(g3
g4
NtRp208
(dp209
g7
VGrind with Me Pretty Ricky
p210
sg9
VPretty Ricky
p211
sg11
VGrind with Me
p212
sbag2
(g3
g4
NtRp213
(dp214
g7
VRun It! Chris Brown featuring Juelz Santana
p215
sg9
VChris Brown featuring Juelz Santana
p216
sg11
VRun It!
p217
sbag2
(g3
g4
NtRp218
(dp219
g7
VPhotograph Nickelback
p220
sg9
VNickelback
p221
sg11
VPhotograph
p222
sbag2
(g3
g4
NtRp223
(dp224
g7
VLonely Akon
p225
sg9
VAkon
p226
sg11
VLonely
p227
sbag2
(g3
g4
NtRp228
(dp229
g7
VCollide Howie Day
p230
sg9
VHowie Day
p231
sg11
VCollide
p232
sbag2
(g3
g4
NtRp233
(dp234
g7
VWake Me Up When September Ends Green Day
p235
sg9
VGreen Day
p236
sg11
VWake Me Up When September Ends
p237
sbag2
(g3
g4
NtRp238
(dp239
g7
VSlow Down Bobby Valentino
p240
sg9
VBobby Valentino
p241
sg11
VSlow Down
p242
sbag2
(g3
g4
NtRp243
(dp244
g7
VOver and Over Nelly featuring Tim McGraw
p245
sg9
VNelly featuring Tim McGraw
p246
sg11
VOver and Over
p247
sbag2
(g3
g4
NtRp248
(dp249
g7
VSome Cut Trillville featuring Cutty
p250
sg9
VTrillville featuring Cutty
p251
sg11
VSome Cut
p252
sbag2
(g3
g4
NtRp253
(dp254
g7
VGet It Poppin' Fat Joe featuring Nelly
p255
sg9
VFat Joe featuring Nelly
p256
sg11
VGet It Poppin'
p257
sbag2
(g3
g4
NtRp258
(dp259
g7
VPlay David Banner
p260
sg9
VDavid Banner
p261
sg11
VPlay
p262
sbag2
(g3
g4
NtRp263
(dp264
g7
VSoul Survivor Young Jeezy featuring Akon
p265
sg9
VYoung Jeezy featuring Akon
p266
sg11
VSoul Survivor
p267
sbag2
(g3
g4
NtRp268
(dp269
g7
VPimpin' All Over the World Ludacris featuring Bobby Valentino
p270
sg9
VLudacris featuring Bobby Valentino
p271
sg11
VPimpin' All Over the World
p272
sbag2
(g3
g4
NtRp273
(dp274
g7
VMy Boo Usher and Alicia Keys
p275
sg9
VUsher and Alicia Keys
p276
sg11
VMy Boo
p277
sbag2
(g3
g4
NtRp278
(dp279
g7
VSugar (Gimme Some) Trick Daddy featuring Ludacris, Lil' Kim and Cee Lo Green
p280
sg9
VTrick Daddy featuring Ludacris, Lil' Kim and Cee Lo Green
p281
sg11
VSugar (Gimme Some)
p282
sbag2
(g3
g4
NtRp283
(dp284
g7
VKarma Alicia Keys
p285
sg9
VAlicia Keys
p286
sg11
VKarma
p287
sbag2
(g3
g4
NtRp288
(dp289
g7
VSpeed of Sound Coldplay
p290
sg9
VColdplay
p291
sg11
VSpeed of Sound
p292
sbag2
(g3
g4
NtRp293
(dp294
g7
VI Don't Want to Be Gavin DeGraw
p295
sg9
VGavin DeGraw
p296
sg11
VI Don't Want to Be
p297
sbag2
(g3
g4
NtRp298
(dp299
g7
VMockingbird Eminem
p300
sg9
VEminem
p301
sg11
VMockingbird
p302
sbag2
(g3
g4
NtRp303
(dp304
g7
VLa Tortura Shakira featuring Alejandro Sanz
p305
sg9
VShakira featuring Alejandro Sanz
p306
sg11
VLa Tortura
p307
sbag2
(g3
g4
NtRp308
(dp309
g7
VShe Will Be Loved Maroon 5
p310
sg9
VMaroon 5
p311
sg11
VShe Will Be Loved
p312
sbag2
(g3
g4
NtRp313
(dp314
g7
VBaby I'm Back Baby Bash featuring Akon
p315
sg9
VBaby Bash featuring Akon
p316
sg11
VBaby I'm Back
p317
sbag2
(g3
g4
NtRp318
(dp319
g7
VWait (The Whisper Song) Ying Yang Twins
p320
sg9
VYing Yang Twins
p321
sg11
VWait (The Whisper Song)
p322
sbag2
(g3
g4
NtRp323
(dp324
g7
VIncomplete Backstreet Boys
p325
sg9
VBackstreet Boys
p326
sg11
VIncomplete
p327
sbag2
(g3
g4
NtRp328
(dp329
g7
VBring Em Out T.I.
p330
sg9
VT.I.
p331
sg11
VBring Em Out
p332
sbag2
(g3
g4
NtRp333
(dp334
g7
VCater 2 U Destiny's Child
p335
sg9
VDestiny's Child
p336
sg11
VCater 2 U
p337
sbag2
(g3
g4
NtRp338
(dp339
g7
V1 Thing Amerie
p340
sg9
VAmerie
p341
sg11
V1 Thing
p342
sbag2
(g3
g4
NtRp343
(dp344
g7
VBest of You Foo Fighters
p345
sg9
VFoo Fighters
p346
sg11
VBest of You
p347
sbag2
(g3
g4
NtRp348
(dp349
g7
VIt's Like That Mariah Carey
p350
sg9
VMariah Carey
p351
sg11
VIt's Like That
p352
sbag2
(g3
g4
NtRp353
(dp354
g7
VGoin' Crazy Natalie
p355
sg9
VNatalie
p356
sg11
VGoin' Crazy
p357
sbag2
(g3
g4
NtRp358
(dp359
g7
VInside Your Heaven Carrie Underwood
p360
sg9
VCarrie Underwood
p361
sg11
VInside Your Heaven
p362
sbag2
(g3
g4
NtRp363
(dp364
g7
VBecause of You Kelly Clarkson
p365
sg9
VKelly Clarkson
p366
sg11
VBecause of You
p367
sbag2
(g3
g4
NtRp368
(dp369
g7
VTruth Is Fantasia
p370
sg9
VFantasia
p371
sg11
VTruth Is
p372
sbag2
(g3
g4
NtRp373
(dp374
g7
VYour Body Pretty Ricky
p375
sg9
VPretty Ricky
p376
sg11
VYour Body
p377
sbag2
(g3
g4
NtRp378
(dp379
g7
VBeautiful Soul Jesse McCartney
p380
sg9
VJesse McCartney
p381
sg11
VBeautiful Soul
p382
sbag2
(g3
g4
NtRp383
(dp384
g7
VCool Gwen Stefani
p385
sg9
VGwen Stefani
p386
sg11
VCool
p387
sbag2
(g3
g4
NtRp388
(dp389
g7
VGet Back Ludacris
p390
sg9
VLudacris
p391
sg11
VGet Back
p392
sbag2
(g3
g4
NtRp393
(dp394
g7
VOutta Control 50 Cent featuring Mobb Deep
p395
sg9
V50 Cent featuring Mobb Deep
p396
sg11
VOutta Control
p397
sbag2
(g3
g4
NtRp398
(dp399
g7
VU Don't Know Me T.I.
p400
sg9
VT.I.
p401
sg11
VU Don't Know Me
p402
sbag2
(g3
g4
NtRp403
(dp404
g7
VThese Words Natasha Bedingfield
p405
sg9
VNatasha Bedingfield
p406
sg11
VThese Words
p407
sbag2
(g3
g4
NtRp408
(dp409
g7
VDon't Lie The Black Eyed Peas
p410
sg9
VThe Black Eyed Peas
p411
sg11
VDon't Lie
p412
sbag2
(g3
g4
NtRp413
(dp414
g7
VGet Right Jennifer Lopez
p415
sg9
VJennifer Lopez
p416
sg11
VGet Right
p417
sbag2
(g3
g4
NtRp418
(dp419
g7
VDaughters John Mayer
p420
sg9
VJohn Mayer
p421
sg11
VDaughters
p422
sbag2
(g3
g4
NtRp423
(dp424
g7
VAs Good as I Once Was Toby Keith
p425
sg9
VToby Keith
p426
sg11
VAs Good as I Once Was
p427
sbag2
(g3
g4
NtRp428
(dp429
g7
VGirlfight Brooke Valentine featuring Lil Jon and Big Boi
p430
sg9
VBrooke Valentine featuring Lil Jon and Big Boi
p431
sg11
VGirlfight
p432
sbag2
(g3
g4
NtRp433
(dp434
g7
VLose My Breath Destiny's Child
p435
sg9
VDestiny's Child
p436
sg11
VLose My Breath
p437
sbag2
(g3
g4
NtRp438
(dp439
g7
VOrdinary People John Legend
p440
sg9
VJohn Legend
p441
sg11
VOrdinary People
p442
sbag2
(g3
g4
NtRp443
(dp444
g7
VWe Be Burnin' Sean Paul
p445
sg9
VSean Paul
p446
sg11
VWe Be Burnin'
p447
sbag2
(g3
g4
NtRp448
(dp449
g7
VJust the Girl The Click Five
p450
sg9
VThe Click Five
p451
sg11
VJust the Girl
p452
sbag2
(g3
g4
NtRp453
(dp454
g7
VTrue Ryan Cabrera
p455
sg9
VRyan Cabrera
p456
sg11
VTrue
p457
sbag2
(g3
g4
NtRp458
(dp459
g7
VO Omarion
p460
sg9
VOmarion
p461
sg11
VO
sbag2
(g3
g4
NtRp462
(dp463
g7
VBack Then Mike Jones
p464
sg9
VMike Jones
p465
sg11
VBack Then
p466
sbag2
(g3
g4
NtRp467
(dp468
g7
VNumb/Encore Jay-Z and Linkin Park
p469
sg9
VJay-Z and Linkin Park
p470
sg11
VNumb/Encore
p471
sbag2
(g3
g4
NtRp472
(dp473
g7
VWonderful Ja Rule featuring R. Kelly and Ashanti
p474
sg9
VJa Rule featuring R. Kelly and Ashanti
p475
sg11
VWonderful
p476
sbag2
(g3
g4
NtRp477
(dp478
g7
VI'm Sprung T-Pain
p479
sg9
VT-Pain
p480
sg11
VI'm Sprung
p481
sbag2
(g3
g4
NtRp482
(dp483
g7
VChariot Gavin DeGraw
p484
sg9
VGavin DeGraw
p485
sg11
VChariot
p486
sbag2
(g3
g4
NtRp487
(dp488
g7
VU Already Know 112 featuring Foxy Brown
p489
sg9
V112 featuring Foxy Brown
p490
sg11
VU Already Know
p491
sbag2
(g3
g4
NtRp492
(dp493
g7
VMississippi Girl Faith Hill
p494
sg9
VFaith Hill
p495
sg11
VMississippi Girl
p496
sbag2
(g3
g4
NtRp497
(dp498
g7
VNumber One Spot Ludacris
p499
sg9
VLudacris
p500
sg11
VNumber One Spot
p501
sbag2
(g3
g4
NtRp502
(dp503
g7
VGive Me That Webbie featuring Bun B
p504
sg9
VWebbie featuring Bun B
p505
sg11
VGive Me That
p506
sba.