(lp1
ccopy_reg
_reconstructor
p2
(c__main__
Song
p3
c__builtin__
object
p4
NtRp5
(dp6
S'keywords'
p7
VROLLING IN THE DEEP Adele 
p8
sS'singer'
p9
VAdele 
p10
sS'title'
p11
VROLLING IN THE DEEP
p12
sbag2
(g3
g4
NtRp13
(dp14
g7
VPARTY ROCK ANTHEM LMFAO Featuring Lauren Bennett & GoonRock 
p15
sg9
VLMFAO Featuring Lauren Bennett & GoonRock 
p16
sg11
VPARTY ROCK ANTHEM
p17
sbag2
(g3
g4
NtRp18
(dp19
g7
VFIREWORK Katy Perry 
p20
sg9
VKaty Perry 
p21
sg11
VFIREWORK
p22
sbag2
(g3
g4
NtRp23
(dp24
g7
VE.T. Katy Perry Featuring Kanye West
p25
sg9
VKaty Perry Featuring Kanye West
p26
sg11
VE.T.
p27
sbag2
(g3
g4
NtRp28
(dp29
g7
VGIVE ME EVERYTHING "Pitbull Featuring Ne-Yo, Afrojack & Nayer"
p30
sg9
V"Pitbull Featuring Ne-Yo, Afrojack & Nayer"
p31
sg11
VGIVE ME EVERYTHING
p32
sbag2
(g3
g4
NtRp33
(dp34
g7
VGRENADE Bruno Mars 
p35
sg9
VBruno Mars 
p36
sg11
VGRENADE
p37
sbag2
(g3
g4
NtRp38
(dp39
g7
VF**K YOU (FORGET YOU) Cee Lo Green 
p40
sg9
VCee Lo Green 
p41
sg11
VF**K YOU (FORGET YOU)
p42
sbag2
(g3
g4
NtRp43
(dp44
g7
VSUPER BASS Nicki Minaj 
p45
sg9
VNicki Minaj 
p46
sg11
VSUPER BASS
p47
sbag2
(g3
g4
NtRp48
(dp49
g7
VMOVES LIKE JAGGER Maroon 5 Featuring Christina Aguilera 
p50
sg9
VMaroon 5 Featuring Christina Aguilera 
p51
sg11
VMOVES LIKE JAGGER
p52
sbag2
(g3
g4
NtRp53
(dp54
g7
VJUST CAN'T GET ENOUGH The Black Eyed Peas 
p55
sg9
VThe Black Eyed Peas 
p56
sg11
VJUST CAN'T GET ENOUGH
p57
sbag2
(g3
g4
NtRp58
(dp59
g7
VON THE FLOOR Jennifer Lopez Featuring Pitbull 
p60
sg9
VJennifer Lopez Featuring Pitbull 
p61
sg11
VON THE FLOOR
p62
sbag2
(g3
g4
NtRp63
(dp64
g7
VS&M Rihanna 
p65
sg9
VRihanna 
p66
sg11
VS&M
p67
sbag2
(g3
g4
NtRp68
(dp69
g7
VPUMPED UP KICKS Foster The People 
p70
sg9
VFoster The People 
p71
sg11
VPUMPED UP KICKS
p72
sbag2
(g3
g4
NtRp73
(dp74
g7
VLAST FRIDAY NIGHT (T.G.I.F.) Katy Perry 
p75
sg9
VKaty Perry 
p76
sg11
VLAST FRIDAY NIGHT (T.G.I.F.)
p77
sbag2
(g3
g4
NtRp78
(dp79
g7
VJUST THE WAY YOU ARE Bruno Mars 
p80
sg9
VBruno Mars 
p81
sg11
VJUST THE WAY YOU ARE
p82
sbag2
(g3
g4
NtRp83
(dp84
g7
VTONIGHT (I'M LOVIN' YOU) Enrique Iglesias Featuring Ludacris & DJ Frank E 
p85
sg9
VEnrique Iglesias Featuring Ludacris & DJ Frank E 
p86
sg11
VTONIGHT (I'M LOVIN' YOU)
p87
sbag2
(g3
g4
NtRp88
(dp89
g7
VRAISE YOUR GLASS P!nk 
p90
sg9
VP!nk 
p91
sg11
VRAISE YOUR GLASS
p92
sbag2
(g3
g4
NtRp93
(dp94
g7
VBORN THIS WAY Lady Gaga 
p95
sg9
VLady Gaga 
p96
sg11
VBORN THIS WAY
p97
sbag2
(g3
g4
NtRp98
(dp99
g7
VF**KIN' PERFECT P!nk 
p100
sg9
VP!nk 
p101
sg11
VF**KIN' PERFECT
p102
sbag2
(g3
g4
NtRp103
(dp104
g7
VWHAT'S MY NAME? Rihanna Featuring Drake 
p105
sg9
VRihanna Featuring Drake 
p106
sg11
VWHAT'S MY NAME?
p107
sbag2
(g3
g4
NtRp108
(dp109
g7
VLOOK AT ME NOW Chris Brown Featuring Lil Wayne & Busta Rhymes 
p110
sg9
VChris Brown Featuring Lil Wayne & Busta Rhymes 
p111
sg11
VLOOK AT ME NOW
p112
sbag2
(g3
g4
NtRp113
(dp114
g7
VDOWN ON ME Jeremih Featuring 50 Cent 
p115
sg9
VJeremih Featuring 50 Cent 
p116
sg11
VDOWN ON ME
p117
sbag2
(g3
g4
NtRp118
(dp119
g7
VHOW TO LOVE Lil Wayne 
p120
sg9
VLil Wayne 
p121
sg11
VHOW TO LOVE
p122
sbag2
(g3
g4
NtRp123
(dp124
g7
VSOMEONE LIKE YOU Adele 
p125
sg9
VAdele 
p126
sg11
VSOMEONE LIKE YOU
p127
sbag2
(g3
g4
NtRp128
(dp129
g7
VGOOD LIFE OneRepublic 
p130
sg9
VOneRepublic 
p131
sg11
VGOOD LIFE
p132
sbag2
(g3
g4
NtRp133
(dp134
g7
VTHE LAZY SONG Bruno Mars 
p135
sg9
VBruno Mars 
p136
sg11
VTHE LAZY SONG
p137
sbag2
(g3
g4
NtRp138
(dp139
g7
VTILL THE WORLD ENDS Britney Spears 
p140
sg9
VBritney Spears 
p141
sg11
VTILL THE WORLD ENDS
p142
sbag2
(g3
g4
NtRp143
(dp144
g7
VTHE SHOW GOES ON Lupe Fiasco 
p145
sg9
VLupe Fiasco 
p146
sg11
VTHE SHOW GOES ON
p147
sbag2
(g3
g4
NtRp148
(dp149
g7
VTHE EDGE OF GLORY Lady Gaga 
p150
sg9
VLady Gaga 
p151
sg11
VTHE EDGE OF GLORY
p152
sbag2
(g3
g4
NtRp153
(dp154
g7
VWE R WHO WE R Ke$ha 
p155
sg9
VKe$ha 
p156
sg11
VWE R WHO WE R
p157
sbag2
(g3
g4
NtRp158
(dp159
g7
VBLACK AND YELLOW Wiz Khalifa 
p160
sg9
VWiz Khalifa 
p161
sg11
VBLACK AND YELLOW
p162
sbag2
(g3
g4
NtRp163
(dp164
g7
VTONIGHT TONIGHT Hot Chelle Rae 
p165
sg9
VHot Chelle Rae 
p166
sg11
VTONIGHT TONIGHT
p167
sbag2
(g3
g4
NtRp168
(dp169
g7
VBLOW Ke$ha 
p170
sg9
VKe$ha 
p171
sg11
VBLOW
p172
sbag2
(g3
g4
NtRp173
(dp174
g7
VLIGHTERS Bad Meets Evil Featuring Bruno Mars 
p175
sg9
VBad Meets Evil Featuring Bruno Mars 
p176
sg11
VLIGHTERS
p177
sbag2
(g3
g4
NtRp178
(dp179
g7
VIF I DIE YOUNG The Band Perry 
p180
sg9
VThe Band Perry 
p181
sg11
VIF I DIE YOUNG
p182
sbag2
(g3
g4
NtRp183
(dp184
g7
VSTEREO HEARTS Gym Class Heroes Featuring Adam Levine 
p185
sg9
VGym Class Heroes Featuring Adam Levine 
p186
sg11
VSTEREO HEARTS
p187
sbag2
(g3
g4
NtRp188
(dp189
g7
VTHE TIME (DIRTY BIT) The Black Eyed Peas 
p190
sg9
VThe Black Eyed Peas 
p191
sg11
VTHE TIME (DIRTY BIT)
p192
sbag2
(g3
g4
NtRp193
(dp194
g7
VCOMING HOME Diddy - Dirty Money Featuring Skylar Grey 
p195
sg9
VDiddy - Dirty Money Featuring Skylar Grey 
p196
sg11
VCOMING HOME
p197
sbag2
(g3
g4
NtRp198
(dp199
g7
VHEY BABY (DROP IT TO THE FLOOR) Pitbull Featuring T-Pain 
p200
sg9
VPitbull Featuring T-Pain 
p201
sg11
VHEY BABY (DROP IT TO THE FLOOR)
p202
sbag2
(g3
g4
NtRp203
(dp204
g7
VONLY GIRL (IN THE WORLD) Rihanna 
p205
sg9
VRihanna 
p206
sg11
VONLY GIRL (IN THE WORLD)
p207
sbag2
(g3
g4
NtRp208
(dp209
g7
V6 FOOT 7 FOOT Lil Wayne Featuring Cory Gunz 
p210
sg9
VLil Wayne Featuring Cory Gunz 
p211
sg11
V6 FOOT 7 FOOT
p212
sbag2
(g3
g4
NtRp213
(dp214
g7
VJUST A KISS Lady Antebellum 
p215
sg9
VLady Antebellum 
p216
sg11
VJUST A KISS
p217
sbag2
(g3
g4
NtRp218
(dp219
g7
VDIRT ROAD ANTHEM Jason Aldean 
p220
sg9
VJason Aldean 
p221
sg11
VDIRT ROAD ANTHEM
p222
sbag2
(g3
g4
NtRp223
(dp224
g7
VDYNAMITE Taio Cruz 
p225
sg9
VTaio Cruz 
p226
sg11
VDYNAMITE
p227
sbag2
(g3
g4
NtRp228
(dp229
g7
VNO HANDS Waka Flocka Flame Featuring Roscoe Dash & Wale 
p230
sg9
VWaka Flocka Flame Featuring Roscoe Dash & Wale 
p231
sg11
VNO HANDS
p232
sbag2
(g3
g4
NtRp233
(dp234
g7
VI WANNA GO Britney Spears 
p235
sg9
VBritney Spears 
p236
sg11
VI WANNA GO
p237
sbag2
(g3
g4
NtRp238
(dp239
g7
VI'M ON ONE "DJ Khaled Featuring Drake, Rick Ross & Lil Wayne"
p240
sg9
V"DJ Khaled Featuring Drake, Rick Ross & Lil Wayne"
p241
sg11
VI'M ON ONE
p242
sbag2
(g3
g4
NtRp243
(dp244
g7
VYOU MAKE ME FEEL... Cobra Starship Featuring Sabi 
p245
sg9
VCobra Starship Featuring Sabi 
p246
sg11
VYOU MAKE ME FEEL...
p247
sbag2
(g3
g4
NtRp248
(dp249
g7
VYEAH 3X Chris Brown 
p250
sg9
VChris Brown 
p251
sg11
VYEAH 3X
p252
sbag2
(g3
g4
NtRp253
(dp254
g7
VMOMENT 4 LIFE Nicki Minaj Featuring Drake 
p255
sg9
VNicki Minaj Featuring Drake 
p256
sg11
VMOMENT 4 LIFE
p257
sbag2
(g3
g4
NtRp258
(dp259
g7
VI NEED A DOCTOR Dr. Dre Featuring Eminem & Skylar Grey 
p260
sg9
VDr. Dre Featuring Eminem & Skylar Grey 
p261
sg11
VI NEED A DOCTOR
p262
sbag2
(g3
g4
NtRp263
(dp264
g7
VJUST A DREAM Nelly 
p265
sg9
VNelly 
p266
sg11
VJUST A DREAM
p267
sbag2
(g3
g4
NtRp268
(dp269
g7
VMOTIVATION Kelly Rowland Featuring Lil Wayne 
p270
sg9
VKelly Rowland Featuring Lil Wayne 
p271
sg11
VMOTIVATION
p272
sbag2
(g3
g4
NtRp273
(dp274
g7
VSTEREO LOVE Edward Maya & Vika Jigulina
p275
sg9
VEdward Maya & Vika Jigulina
p276
sg11
VSTEREO LOVE
p277
sbag2
(g3
g4
NtRp278
(dp279
g7
VJAR OF HEARTS Christina Perri 
p280
sg9
VChristina Perri 
p281
sg11
VJAR OF HEARTS
p282
sbag2
(g3
g4
NtRp283
(dp284
g7
VROLL UP Wiz Khalifa 
p285
sg9
VWiz Khalifa 
p286
sg11
VROLL UP
p287
sbag2
(g3
g4
NtRp288
(dp289
g7
VSEXY AND I KNOW IT LMFAO 
p290
sg9
VLMFAO 
p291
sg11
VSEXY AND I KNOW IT
p292
sbag2
(g3
g4
NtRp293
(dp294
g7
VROCKETEER Far*East Movement Featuring Ryan Tedder
p295
sg9
VFar*East Movement Featuring Ryan Tedder
p296
sg11
VROCKETEER
p297
sbag2
(g3
g4
NtRp298
(dp299
g7
VALL OF THE LIGHTS Kanye West 
p300
sg9
VKanye West 
p301
sg11
VALL OF THE LIGHTS
p302
sbag2
(g3
g4
NtRp303
(dp304
g7
VHOLD IT AGAINST ME Britney Spears 
p305
sg9
VBritney Spears 
p306
sg11
VHOLD IT AGAINST ME
p307
sbag2
(g3
g4
NtRp308
(dp309
g7
VMORE Usher 
p310
sg9
VUsher 
p311
sg11
VMORE
p312
sbag2
(g3
g4
NtRp313
(dp314
g7
VWHAT THE HELL Avril Lavigne 
p315
sg9
VAvril Lavigne 
p316
sg11
VWHAT THE HELL
p317
sbag2
(g3
g4
NtRp318
(dp319
g7
VWRITTEN IN THE STARS Tinie Tempah Featuring Eric Turner 
p320
sg9
VTinie Tempah Featuring Eric Turner 
p321
sg11
VWRITTEN IN THE STARS
p322
sbag2
(g3
g4
NtRp323
(dp324
g7
VBOTTOMS UP Trey Songz Featuring Nicki Minaj 
p325
sg9
VTrey Songz Featuring Nicki Minaj 
p326
sg11
VBOTTOMS UP
p327
sbag2
(g3
g4
NtRp328
(dp329
g7
VDJ GOT US FALLIN' IN LOVE Usher Featuring Pitbull 
p330
sg9
VUsher Featuring Pitbull 
p331
sg11
VDJ GOT US FALLIN' IN LOVE
p332
sbag2
(g3
g4
NtRp333
(dp334
g7
VFOR THE FIRST TIME The Script 
p335
sg9
VThe Script 
p336
sg11
VFOR THE FIRST TIME
p337
sbag2
(g3
g4
NtRp338
(dp339
g7
VHONEY BEE Blake Shelton 
p340
sg9
VBlake Shelton 
p341
sg11
VHONEY BEE
p342
sbag2
(g3
g4
NtRp343
(dp344
g7
VDON'T YOU WANNA STAY Jason Aldean With Kelly Clarkson
p345
sg9
VJason Aldean With Kelly Clarkson
p346
sg11
VDON'T YOU WANNA STAY
p347
sbag2
(g3
g4
NtRp348
(dp349
g7
VWE FOUND LOVE Rihanna Featuring Calvin Harris 
p350
sg9
VRihanna Featuring Calvin Harris 
p351
sg11
VWE FOUND LOVE
p352
sbag2
(g3
g4
NtRp353
(dp354
g7
VPRETTY GIRL ROCK Keri Hilson 
p355
sg9
VKeri Hilson 
p356
sg11
VPRETTY GIRL ROCK
p357
sbag2
(g3
g4
NtRp358
(dp359
g7
VYOU AND I Lady Gaga 
p360
sg9
VLady Gaga 
p361
sg11
VYOU AND I
p362
sbag2
(g3
g4
NtRp363
(dp364
g7
VLIKE A G6 Far*East Movement Featuring Cataracs & Dev
p365
sg9
VFar*East Movement Featuring Cataracs & Dev
p366
sg11
VLIKE A G6
p367
sbag2
(g3
g4
NtRp368
(dp369
g7
VWITHOUT YOU David Guetta Featuring Usher 
p370
sg9
VDavid Guetta Featuring Usher 
p371
sg11
VWITHOUT YOU
p372
sbag2
(g3
g4
NtRp373
(dp374
g7
VBACK TO DECEMBER Taylor Swift 
p375
sg9
VTaylor Swift 
p376
sg11
VBACK TO DECEMBER
p377
sbag2
(g3
g4
NtRp378
(dp379
g7
VTEENAGE DREAM Katy Perry 
p380
sg9
VKaty Perry 
p381
sg11
VTEENAGE DREAM
p382
sbag2
(g3
g4
NtRp383
(dp384
g7
VCRAZY GIRL Eli Young Band 
p385
sg9
VEli Young Band 
p386
sg11
VCRAZY GIRL
p387
sbag2
(g3
g4
NtRp388
(dp389
g7
VCHEERS (DRINK TO THAT) Rihanna 
p390
sg9
VRihanna 
p391
sg11
VCHEERS (DRINK TO THAT)
p392
sbag2
(g3
g4
NtRp393
(dp394
g7
VWHO SAYS Selena Gomez & The Scene 
p395
sg9
VSelena Gomez & The Scene 
p396
sg11
VWHO SAYS
p397
sbag2
(g3
g4
NtRp398
(dp399
g7
VBAREFOOT BLUE JEAN NIGHT Jake Owen 
p400
sg9
VJake Owen 
p401
sg11
VBAREFOOT BLUE JEAN NIGHT
p402
sbag2
(g3
g4
NtRp403
(dp404
g7
VKNEE DEEP Zac Brown Band Featuring Jimmy Buffett 
p405
sg9
VZac Brown Band Featuring Jimmy Buffett 
p406
sg11
VKNEE DEEP
p407
sbag2
(g3
g4
NtRp408
(dp409
g7
VCOUNTRY GIRL (SHAKE IT FOR ME) Luke Bryan 
p410
sg9
VLuke Bryan 
p411
sg11
VCOUNTRY GIRL (SHAKE IT FOR ME)
p412
sbag2
(g3
g4
NtRp413
(dp414
g7
VREMIND ME Brad Paisley Duet With Carrie Underwood
p415
sg9
VBrad Paisley Duet With Carrie Underwood
p416
sg11
VREMIND ME
p417
sbag2
(g3
g4
NtRp418
(dp419
g7
VIN THE DARK Dev 
p420
sg9
VDev 
p421
sg11
VIN THE DARK
p422
sbag2
(g3
g4
NtRp423
(dp424
g7
VBACKSEAT New Boyz Featuring The Cataracs & Dev 
p425
sg9
VNew Boyz Featuring The Cataracs & Dev 
p426
sg11
VBACKSEAT
p427
sbag2
(g3
g4
NtRp428
(dp429
g7
VHEADLINES Drake 
p430
sg9
VDrake 
p431
sg11
VHEADLINES
p432
sbag2
(g3
g4
NtRp433
(dp434
g7
VBEST THING I NEVER HAD Beyonce 
p435
sg9
VBeyonce 
p436
sg11
VBEST THING I NEVER HAD
p437
sbag2
(g3
g4
NtRp438
(dp439
g7
VDON'T WANNA GO HOME Jason Derulo 
p440
sg9
VJason Derulo 
p441
sg11
VDON'T WANNA GO HOME
p442
sbag2
(g3
g4
NtRp443
(dp444
g7
VWHERE THEM GIRLS AT David Guetta Featuring Flo Rida & Nicki Minaj 
p445
sg9
VDavid Guetta Featuring Flo Rida & Nicki Minaj 
p446
sg11
VWHERE THEM GIRLS AT
p447
sbag2
(g3
g4
NtRp448
(dp449
g7
VSHE AIN'T YOU Chris Brown 
p450
sg9
VChris Brown 
p451
sg11
VSHE AIN'T YOU
p452
sbag2
(g3
g4
NtRp453
(dp454
g7
VTAKE A BACK ROAD Rodney Atkins 
p455
sg9
VRodney Atkins 
p456
sg11
VTAKE A BACK ROAD
p457
sbag2
(g3
g4
NtRp458
(dp459
g7
VPLEASE DON'T GO Mike Posner 
p460
sg9
VMike Posner 
p461
sg11
VPLEASE DON'T GO
p462
sbag2
(g3
g4
NtRp463
(dp464
g7
VSURE THING Miguel 
p465
sg9
VMiguel 
p466
sg11
VSURE THING
p467
sbag2
(g3
g4
NtRp468
(dp469
g7
VPRICE TAG Jessie J Featuring B.o.B 
p470
sg9
VJessie J Featuring B.o.B 
p471
sg11
VPRICE TAG
p472
sbag2
(g3
g4
NtRp473
(dp474
g7
VGOD GAVE ME YOU Blake Shelton 
p475
sg9
VBlake Shelton 
p476
sg11
VGOD GAVE ME YOU
p477
sbag2
(g3
g4
NtRp478
(dp479
g7
VSHE WILL Lil Wayne Featuring Drake 
p480
sg9
VLil Wayne Featuring Drake 
p481
sg11
VSHE WILL
p482
sbag2
(g3
g4
NtRp483
(dp484
g7
VARE YOU GONNA KISS ME OR NOT Thompson Square 
p485
sg9
VThompson Square 
p486
sg11
VARE YOU GONNA KISS ME OR NOT
p487
sbag2
(g3
g4
NtRp488
(dp489
g7
VANIMAL Neon Trees 
p490
sg9
VNeon Trees 
p491
sg11
VANIMAL
p492
sbag2
(g3
g4
NtRp493
(dp494
g7
VYOU AND TEQUILA Kenny Chesney Featuring Grace Potter 
p495
sg9
VKenny Chesney Featuring Grace Potter 
p496
sg11
VYOU AND TEQUILA
p497
sbag2
(g3
g4
NtRp498
(dp499
g7
VCOLDER WEATHER Zac Brown Band 
p500
sg9
VZac Brown Band 
p501
sg11
VCOLDER WEATHER
p502
sbag2
(g3
g4
NtRp503
(dp504
g7
VMY LAST Big Sean Featuring Chris Brown 
p505
sg9
VBig Sean Featuring Chris Brown 
p506
sg11
VMY LAST
p507
sba.