(lp1
ccopy_reg
_reconstructor
p2
(c__main__
Song
p3
c__builtin__
object
p4
NtRp5
(dp6
S'keywords'
p7
VSOMEBODY THAT I USED TO KNOW Gotye Featuring Kimbra 
p8
sS'singer'
p9
VGotye Featuring Kimbra 
p10
sS'title'
p11
VSOMEBODY THAT I USED TO KNOW
p12
sbag2
(g3
g4
NtRp13
(dp14
g7
VCALL ME MAYBE Carly Rae Jepsen 
p15
sg9
VCarly Rae Jepsen 
p16
sg11
VCALL ME MAYBE
p17
sbag2
(g3
g4
NtRp18
(dp19
g7
VWE ARE YOUNG fun. Featuring Janelle Monae 
p20
sg9
Vfun. Featuring Janelle Monae 
p21
sg11
VWE ARE YOUNG
p22
sbag2
(g3
g4
NtRp23
(dp24
g7
VPAYPHONE Maroon 5 Featuring Wiz Khalifa 
p25
sg9
VMaroon 5 Featuring Wiz Khalifa 
p26
sg11
VPAYPHONE
p27
sbag2
(g3
g4
NtRp28
(dp29
g7
VLIGHTS Ellie Goulding 
p30
sg9
VEllie Goulding 
p31
sg11
VLIGHTS
p32
sbag2
(g3
g4
NtRp33
(dp34
g7
VGLAD YOU CAME The Wanted 
p35
sg9
VThe Wanted 
p36
sg11
VGLAD YOU CAME
p37
sbag2
(g3
g4
NtRp38
(dp39
g7
VSTRONGER (WHAT DOESN'T KILL YOU) Kelly Clarkson 
p40
sg9
VKelly Clarkson 
p41
sg11
VSTRONGER (WHAT DOESN'T KILL YOU)
p42
sbag2
(g3
g4
NtRp43
(dp44
g7
VWE FOUND LOVE Rihanna Featuring Calvin Harris 
p45
sg9
VRihanna Featuring Calvin Harris 
p46
sg11
VWE FOUND LOVE
p47
sbag2
(g3
g4
NtRp48
(dp49
g7
VSTARSHIPS Nicki Minaj 
p50
sg9
VNicki Minaj 
p51
sg11
VSTARSHIPS
p52
sbag2
(g3
g4
NtRp53
(dp54
g7
VWHAT MAKES YOU BEAUTIFUL One Direction 
p55
sg9
VOne Direction 
p56
sg11
VWHAT MAKES YOU BEAUTIFUL
p57
sbag2
(g3
g4
NtRp58
(dp59
g7
VWILD ONES Flo Rida Featuring Sia 
p60
sg9
VFlo Rida Featuring Sia 
p61
sg11
VWILD ONES
p62
sbag2
(g3
g4
NtRp63
(dp64
g7
VSET FIRE TO THE RAIN Adele 
p65
sg9
VAdele 
p66
sg11
VSET FIRE TO THE RAIN
p67
sbag2
(g3
g4
NtRp68
(dp69
g7
VSEXY AND I KNOW IT LMFAO 
p70
sg9
VLMFAO 
p71
sg11
VSEXY AND I KNOW IT
p72
sbag2
(g3
g4
NtRp73
(dp74
g7
VSOME NIGHTS fun. 
p75
sg9
Vfun. 
p76
sg11
VSOME NIGHTS
p77
sbag2
(g3
g4
NtRp78
(dp79
g7
VWIDE AWAKE Katy Perry 
p80
sg9
VKaty Perry 
p81
sg11
VWIDE AWAKE
p82
sbag2
(g3
g4
NtRp83
(dp84
g7
VGOOD FEELING Flo Rida 
p85
sg9
VFlo Rida 
p86
sg11
VGOOD FEELING
p87
sbag2
(g3
g4
NtRp88
(dp89
g7
VWHISTLE Flo Rida 
p90
sg9
VFlo Rida 
p91
sg11
VWHISTLE
p92
sbag2
(g3
g4
NtRp93
(dp94
g7
VONE MORE NIGHT Maroon 5 
p95
sg9
VMaroon 5 
p96
sg11
VONE MORE NIGHT
p97
sbag2
(g3
g4
NtRp98
(dp99
g7
VDRIVE BY Train 
p100
sg9
VTrain 
p101
sg11
VDRIVE BY
p102
sbag2
(g3
g4
NtRp103
(dp104
g7
VTHE MOTTO Drake Featuring Lil Wayne
p105
sg9
VDrake Featuring Lil Wayne
p106
sg11
VTHE MOTTO
p107
sbag2
(g3
g4
NtRp108
(dp109
g7
VWHERE HAVE YOU BEEN Rihanna 
p110
sg9
VRihanna 
p111
sg11
VWHERE HAVE YOU BEEN
p112
sbag2
(g3
g4
NtRp113
(dp114
g7
VEVERYBODY TALKS Neon Trees 
p115
sg9
VNeon Trees 
p116
sg11
VEVERYBODY TALKS
p117
sbag2
(g3
g4
NtRp118
(dp119
g7
VTAKE CARE Drake Featuring Rihanna 
p120
sg9
VDrake Featuring Rihanna 
p121
sg11
VTAKE CARE
p122
sbag2
(g3
g4
NtRp123
(dp124
g7
VTITANIUM David Guetta Featuring Sia 
p125
sg9
VDavid Guetta Featuring Sia 
p126
sg11
VTITANIUM
p127
sbag2
(g3
g4
NtRp128
(dp129
g7
VI WON'T GIVE UP Jason Mraz 
p130
sg9
VJason Mraz 
p131
sg11
VI WON'T GIVE UP
p132
sbag2
(g3
g4
NtRp133
(dp134
g7
VIT WILL RAIN Bruno Mars 
p135
sg9
VBruno Mars 
p136
sg11
VIT WILL RAIN
p137
sbag2
(g3
g4
NtRp138
(dp139
g7
VMERCY Kanye West, Big Sean, Pusha T, 2 Chainz
p140
sg9
VKanye West, Big Sean, Pusha T, 2 Chainz
p141
sg11
VMERCY
p142
sbag2
(g3
g4
NtRp143
(dp144
g7
VBOYFRIEND Justin Bieber 
p145
sg9
VJustin Bieber 
p146
sg11
VBOYFRIEND
p147
sbag2
(g3
g4
NtRp148
(dp149
g7
VPARTY ROCK ANTHEM LMFAO Featuring Lauren Bennett & GoonRock 
p150
sg9
VLMFAO Featuring Lauren Bennett & GoonRock 
p151
sg11
VPARTY ROCK ANTHEM
p152
sbag2
(g3
g4
NtRp153
(dp154
g7
VTOO CLOSE Alex Clare 
p155
sg9
VAlex Clare 
p156
sg11
VTOO CLOSE
p157
sbag2
(g3
g4
NtRp158
(dp159
g7
VPART OF ME Katy Perry 
p160
sg9
VKaty Perry 
p161
sg11
VPART OF ME
p162
sbag2
(g3
g4
NtRp163
(dp164
g7
VYOUNG, WILD & FREE Snoop Dogg & Wiz Khalifa Featuring Bruno Mars
p165
sg9
VSnoop Dogg & Wiz Khalifa Featuring Bruno Mars
p166
sg11
VYOUNG, WILD & FREE
p167
sbag2
(g3
g4
NtRp168
(dp169
g7
VWE ARE NEVER EVER GETTING BACK TOGETHER Taylor Swift 
p170
sg9
VTaylor Swift 
p171
sg11
VWE ARE NEVER EVER GETTING BACK TOGETHER
p172
sbag2
(g3
g4
NtRp173
(dp174
g7
VAS LONG AS YOU LOVE ME Justin Bieber Featuring Big Sean 
p175
sg9
VJustin Bieber Featuring Big Sean 
p176
sg11
VAS LONG AS YOU LOVE ME
p177
sbag2
(g3
g4
NtRp178
(dp179
g7
VTURN ME ON David Guetta Featuring Nicki Minaj 
p180
sg9
VDavid Guetta Featuring Nicki Minaj 
p181
sg11
VTURN ME ON
p182
sbag2
(g3
g4
NtRp183
(dp184
g7
VMOVES LIKE JAGGER Maroon 5 Featuring Christina Aguilera 
p185
sg9
VMaroon 5 Featuring Christina Aguilera 
p186
sg11
VMOVES LIKE JAGGER
p187
sbag2
(g3
g4
NtRp188
(dp189
g7
VBLOW ME (ONE LAST KISS) P!nk 
p190
sg9
VP!nk 
p191
sg11
VBLOW ME (ONE LAST KISS)
p192
sbag2
(g3
g4
NtRp193
(dp194
g7
VGOOD TIME Owl City & Carly Rae Jepsen
p195
sg9
VOwl City & Carly Rae Jepsen
p196
sg11
VGOOD TIME
p197
sbag2
(g3
g4
NtRp198
(dp199
g7
VGIVE YOUR HEART A BREAK Demi Lovato 
p200
sg9
VDemi Lovato 
p201
sg11
VGIVE YOUR HEART A BREAK
p202
sbag2
(g3
g4
NtRp203
(dp204
g7
VNI**AS IN PARIS Jay Z  Kanye West
p205
sg9
VJay Z  Kanye West
p206
sg11
VNI**AS IN PARIS
p207
sbag2
(g3
g4
NtRp208
(dp209
g7
VTHE ONE THAT GOT AWAY Katy Perry 
p210
sg9
VKaty Perry 
p211
sg11
VTHE ONE THAT GOT AWAY
p212
sbag2
(g3
g4
NtRp213
(dp214
g7
VFEEL SO CLOSE Calvin Harris 
p215
sg9
VCalvin Harris 
p216
sg11
VFEEL SO CLOSE
p217
sbag2
(g3
g4
NtRp218
(dp219
g7
VSOMEONE LIKE YOU Adele 
p220
sg9
VAdele 
p221
sg11
VSOMEONE LIKE YOU
p222
sbag2
(g3
g4
NtRp223
(dp224
g7
VSCREAM Usher 
p225
sg9
VUsher 
p226
sg11
VSCREAM
p227
sbag2
(g3
g4
NtRp228
(dp229
g7
VRACK CITY Tyga 
p230
sg9
VTyga 
p231
sg11
VRACK CITY
p232
sbag2
(g3
g4
NtRp233
(dp234
g7
VDOMINO Jessie J 
p235
sg9
VJessie J 
p236
sg11
VDOMINO
p237
sbag2
(g3
g4
NtRp238
(dp239
g7
VGANGNAM STYLE PSY 
p240
sg9
VPSY 
p241
sg11
VGANGNAM STYLE
p242
sbag2
(g3
g4
NtRp243
(dp244
g7
VINTERNATIONAL LOVE Pitbull Featuring Chris Brown 
p245
sg9
VPitbull Featuring Chris Brown 
p246
sg11
VINTERNATIONAL LOVE
p247
sbag2
(g3
g4
NtRp248
(dp249
g7
VHOME Phillip Phillips 
p250
sg9
VPhillip Phillips 
p251
sg11
VHOME
p252
sbag2
(g3
g4
NtRp253
(dp254
g7
VWITHOUT YOU David Guetta Featuring Usher 
p255
sg9
VDavid Guetta Featuring Usher 
p256
sg11
VWITHOUT YOU
p257
sbag2
(g3
g4
NtRp258
(dp259
g7
VASS BACK HOME Gym Class Heroes Featuring Neon Hitch 
p260
sg9
VGym Class Heroes Featuring Neon Hitch 
p261
sg11
VASS BACK HOME
p262
sbag2
(g3
g4
NtRp263
(dp264
g7
VWANTED Hunter Hayes 
p265
sg9
VHunter Hayes 
p266
sg11
VWANTED
p267
sbag2
(g3
g4
NtRp268
(dp269
g7
VDRUNK ON YOU Luke Bryan 
p270
sg9
VLuke Bryan 
p271
sg11
VDRUNK ON YOU
p272
sbag2
(g3
g4
NtRp273
(dp274
g7
VNO LIE 2 Chainz Featuring Drake 
p275
sg9
V2 Chainz Featuring Drake 
p276
sg11
VNO LIE
p277
sbag2
(g3
g4
NtRp278
(dp279
g7
VWANT U BACK Cher Lloyd 
p280
sg9
VCher Lloyd 
p281
sg11
VWANT U BACK
p282
sbag2
(g3
g4
NtRp283
(dp284
g7
VDON'T WAKE ME UP Chris Brown 
p285
sg9
VChris Brown 
p286
sg11
VDON'T WAKE ME UP
p287
sbag2
(g3
g4
NtRp288
(dp289
g7
VDANCE (A$$) Big Sean Featuring Nicki Minaj 
p290
sg9
VBig Sean Featuring Nicki Minaj 
p291
sg11
VDANCE (A$$)
p292
sbag2
(g3
g4
NtRp293
(dp294
g7
VSPRINGSTEEN Eric Church 
p295
sg9
VEric Church 
p296
sg11
VSPRINGSTEEN
p297
sbag2
(g3
g4
NtRp298
(dp299
g7
VBROKENHEARTED Karmin 
p300
sg9
VKarmin 
p301
sg11
VBROKENHEARTED
p302
sbag2
(g3
g4
NtRp303
(dp304
g7
VNOT OVER YOU Gavin DeGraw 
p305
sg9
VGavin DeGraw 
p306
sg11
VNOT OVER YOU
p307
sbag2
(g3
g4
NtRp308
(dp309
g7
VSTEREO HEARTS Gym Class Heroes Featuring Adam Levine 
p310
sg9
VGym Class Heroes Featuring Adam Levine 
p311
sg11
VSTEREO HEARTS
p312
sbag2
(g3
g4
NtRp313
(dp314
g7
VBACK IN TIME Pitbull 
p315
sg9
VPitbull 
p316
sg11
VBACK IN TIME
p317
sbag2
(g3
g4
NtRp318
(dp319
g7
VWORK OUT J. Cole 
p320
sg9
VJ. Cole 
p321
sg11
VWORK OUT
p322
sbag2
(g3
g4
NtRp323
(dp324
g7
VRUMOUR HAS IT Adele 
p325
sg9
VAdele 
p326
sg11
VRUMOUR HAS IT
p327
sbag2
(g3
g4
NtRp328
(dp329
g7
VLET'S GO Calvin Harris Featuring Ne-Yo 
p330
sg9
VCalvin Harris Featuring Ne-Yo 
p331
sg11
VLET'S GO
p332
sbag2
(g3
g4
NtRp333
(dp334
g7
VGOOD GIRL Carrie Underwood 
p335
sg9
VCarrie Underwood 
p336
sg11
VGOOD GIRL
p337
sbag2
(g3
g4
NtRp338
(dp339
g7
VPONTOON Little Big Town 
p340
sg9
VLittle Big Town 
p341
sg11
VPONTOON
p342
sbag2
(g3
g4
NtRp343
(dp344
g7
VHO HEY The Lumineers 
p345
sg9
VThe Lumineers 
p346
sg11
VHO HEY
p347
sbag2
(g3
g4
NtRp348
(dp349
g7
VPARADISE Coldplay 
p350
sg9
VColdplay 
p351
sg11
VPARADISE
p352
sbag2
(g3
g4
NtRp353
(dp354
g7
VBLOWN AWAY Carrie Underwood 
p355
sg9
VCarrie Underwood 
p356
sg11
VBLOWN AWAY
p357
sbag2
(g3
g4
NtRp358
(dp359
g7
VROLLING IN THE DEEP Adele 
p360
sg9
VAdele 
p361
sg11
VROLLING IN THE DEEP
p362
sbag2
(g3
g4
NtRp363
(dp364
g7
VCLIMAX Usher 
p365
sg9
VUsher 
p366
sg11
VCLIMAX
p367
sbag2
(g3
g4
NtRp368
(dp369
g7
VWORK HARD, PLAY HARD Wiz Khalifa 
p370
sg9
VWiz Khalifa 
p371
sg11
VWORK HARD, PLAY HARD
p372
sbag2
(g3
g4
NtRp373
(dp374
g7
VLET ME LOVE YOU (UNTIL YOU LEARN TO LOVE YOURSELF) Ne-Yo 
p375
sg9
VNe-Yo 
p376
sg11
VLET ME LOVE YOU (UNTIL YOU LEARN TO LOVE YOURSELF)
p377
sbag2
(g3
g4
NtRp378
(dp379
g7
VPOUND THE ALARM Nicki Minaj 
p380
sg9
VNicki Minaj 
p381
sg11
VPOUND THE ALARM
p382
sbag2
(g3
g4
NtRp383
(dp384
g7
VCOME OVER Kenny Chesney 
p385
sg9
VKenny Chesney 
p386
sg11
VCOME OVER
p387
sbag2
(g3
g4
NtRp388
(dp389
g7
VHEART ATTACK Trey Songz 
p390
sg9
VTrey Songz 
p391
sg11
VHEART ATTACK
p392
sbag2
(g3
g4
NtRp393
(dp394
g7
VDRANK IN MY CUP Kirko Bangz 
p395
sg9
VKirko Bangz 
p396
sg11
VDRANK IN MY CUP
p397
sbag2
(g3
g4
NtRp398
(dp399
g7
VBIRTHDAY CAKE Rihanna Featuring Chris Brown 
p400
sg9
VRihanna Featuring Chris Brown 
p401
sg11
VBIRTHDAY CAKE
p402
sbag2
(g3
g4
NtRp403
(dp404
g7
VSO GOOD B.o.B 
p405
sg9
VB.o.B 
p406
sg11
VSO GOOD
p407
sbag2
(g3
g4
NtRp408
(dp409
g7
V50 WAYS TO SAY GOODBYE Train 
p410
sg9
VTrain 
p411
sg11
V50 WAYS TO SAY GOODBYE
p412
sbag2
(g3
g4
NtRp413
(dp414
g7
VRED SOLO CUP Toby Keith 
p415
sg9
VToby Keith 
p416
sg11
VRED SOLO CUP
p417
sbag2
(g3
g4
NtRp418
(dp419
g7
VLOVE YOU LIKE A LOVE SONG Selena Gomez & The Scene 
p420
sg9
VSelena Gomez & The Scene 
p421
sg11
VLOVE YOU LIKE A LOVE SONG
p422
sbag2
(g3
g4
NtRp423
(dp424
g7
VTURN UP THE MUSIC Chris Brown 
p425
sg9
VChris Brown 
p426
sg11
VTURN UP THE MUSIC
p427
sbag2
(g3
g4
NtRp428
(dp429
g7
VDIE YOUNG Ke$ha 
p430
sg9
VKe$ha 
p431
sg11
VDIE YOUNG
p432
sbag2
(g3
g4
NtRp433
(dp434
g7
V5 O'CLOCK T-Pain Featuring Wiz Khalifa & Lily Allen 
p435
sg9
VT-Pain Featuring Wiz Khalifa & Lily Allen 
p436
sg11
V5 O'CLOCK
p437
sbag2
(g3
g4
NtRp438
(dp439
g7
VA THOUSAND YEARS Christina Perri 
p440
sg9
VChristina Perri 
p441
sg11
VA THOUSAND YEARS
p442
sbag2
(g3
g4
NtRp443
(dp444
g7
VTAKE A LITTLE RIDE Jason Aldean 
p445
sg9
VJason Aldean 
p446
sg11
VTAKE A LITTLE RIDE
p447
sbag2
(g3
g4
NtRp448
(dp449
g7
VYOU DA ONE Rihanna 
p450
sg9
VRihanna 
p451
sg11
VYOU DA ONE
p452
sbag2
(g3
g4
NtRp453
(dp454
g7
VWE RUN THE NIGHT Havana Brown Featuring Pitbull 
p455
sg9
VHavana Brown Featuring Pitbull 
p456
sg11
VWE RUN THE NIGHT
p457
sbag2
(g3
g4
NtRp458
(dp459
g7
VIT'S TIME Imagine Dragons 
p460
sg9
VImagine Dragons 
p461
sg11
VIT'S TIME
p462
sbag2
(g3
g4
NtRp463
(dp464
g7
VCASHIN' OUT Ca$h Out 
p465
sg9
VCa$h Out 
p466
sg11
VCASHIN' OUT
p467
sbag2
(g3
g4
NtRp468
(dp469
g7
VI DON'T WANT THIS NIGHT TO END Luke Bryan 
p470
sg9
VLuke Bryan 
p471
sg11
VI DON'T WANT THIS NIGHT TO END
p472
sbag2
(g3
g4
NtRp473
(dp474
g7
VDIAMONDS Rihanna 
p475
sg9
VRihanna 
p476
sg11
VDIAMONDS
p477
sbag2
(g3
g4
NtRp478
(dp479
g7
VHARD TO LOVE Lee Brice 
p480
sg9
VLee Brice 
p481
sg11
VHARD TO LOVE
p482
sbag2
(g3
g4
NtRp483
(dp484
g7
VSOMETHIN' 'BOUT A TRUCK Kip Moore 
p485
sg9
VKip Moore 
p486
sg11
VSOMETHIN' 'BOUT A TRUCK
p487
sbag2
(g3
g4
NtRp488
(dp489
g7
VADORN Miguel 
p490
sg9
VMiguel 
p491
sg11
VADORN
p492
sbag2
(g3
g4
NtRp493
(dp494
g7
VFLY OVER STATES Jason Aldean 
p495
sg9
VJason Aldean 
p496
sg11
VFLY OVER STATES
p497
sbag2
(g3
g4
NtRp498
(dp499
g7
VEVEN IF IT BREAKS YOUR HEART Eli Young Band 
p500
sg9
VEli Young Band 
p501
sg11
VEVEN IF IT BREAKS YOUR HEART
p502
sbag2
(g3
g4
NtRp503
(dp504
g7
VBURN IT DOWN Linkin Park 
p505
sg9
VLinkin Park 
p506
sg11
VBURN IT DOWN
p507
sba.