(lp1
(VDespicable Me movie trailer
p2
VMinions Official Trailer #1 (2015) - Despicable Me Prequel HD (eisKxhjBnZ0)
tp3
a(VInception movie trailer
p4
VInception (2010) Official Trailer #1 - Christopher Nolan Movie HD (YoHD9XEInc0)
tp5
a(VKick-Ass movie trailer
p6
VKick Ass [2010] Official Trailer HD (mcKIMqRF5Gc)
tp7
a(VInsidious movie trailer
p8
VInsidious Movie Trailer Official (HD) (E1YbOMDI59k)
tp9
a(VShutter Island movie trailer
p10
V"Shutter Island" - Official Trailer [HD] (5iaYLCiq5RM)
tp11
a(VBurlesque movie trailer
p12
VBurlesque Official Trailer #1 - (2010) HD (vyML3Kd5wXs)
tp13
a(VScott Pilgrim vs. the World movie trailer
p14
VScott Pilgrim Vs. The World - Official Trailer (7wd5KEaOtm4)
tp15
a(VEasy A movie trailer
p16
VEasy A Official Trailer #1 - (2010) HD (QZ4EwBtyfaA)
tp17
a(VBlack Swan movie trailer
p18
VBLACK SWAN - Official HD trailer (5jaI1XOB-bs)
tp19
a(VHow to Train Your Dragon movie trailer
p20
V'How to Train Your Dragon' Trailer HD (oKiYuIsPxYk)
tp21
a(VAlice in Wonderland movie trailer
p22
VAlice in Wonderland - New Official Full Trailer (HQ) (9POCgSRVvf0)
tp23
a(VPercy Jackson & the Olympians: The Lightning Thief movie trailer
p24
VPercy Jackson & the Olympians: The Lightning Thief HD Movie Trailer (xko1Mx5w4tg)
tp25
a(VThe Social Network movie trailer
p26
VThe Social Network Official Trailer #1 - (2010) HD (2RB3edZyeYw)
tp27
a(VHarry Potter and the Deathly Hallows: Part 1 movie trailer
p28
VHarry Potter and the Deathly Hallows: Part 1 Official Trailer #1 - (2010) HD (MxqsmsA8y5k)
tp29
a(VToy Story 3 movie trailer
p30
VToy Story 3: Trailer (JcpWXaA2qeg)
tp31
a(VIron Man 2 movie trailer
p32
VIron Man 2 Trailer 2 (OFFICIAL) (FNQowwwwYa0)
tp33
a(VNever Let Me Go movie trailer
p34
VNever Let Me Go Official Trailer (sXiRZhDEo8A)
tp35
a(VTangled movie trailer
p36
VTangled - Official Trailer [HD] (pyOyBVXDJ9Q)
tp37
a(VThe Town movie trailer
p38
VThe Town Official Trailer #1 - (2010) HD (WcXt9aUMbBk)
tp39
a(VThe Other Guys movie trailer
p40
VWatch the Official THE OTHER GUYS Trailer in HD (D6WOoUG1eNo)
tp41
a(VTRON: Legacy movie trailer
p42
VTRON: LEGACY Official Trailer (L9szn1QQfas)
tp43
a(VLove & Other Drugs movie trailer
p44
VLove and Other Drugs | Trailer HD | 20th Century FOX (h6w7Dh-QxzY)
tp45
a(VMegamind movie trailer
p46
VMegamind - Official Trailer (NPI0eatlo_M)
tp47
a(VDear John movie trailer
p48
VDear John Movie Trailer [HD] (bJ9lRqSGI24)
tp49
a(VHot Tub Time Machine movie trailer
p50
VHot Tub Time Machine 2 Official Trailer #1 (2015) - Rob Corddry, Adam Scott Movie HD (BNJ-UxlKXGY)
tp51
a(VGrown Ups movie trailer
p52
VGrown Ups 2 Official Trailer #1 (2013) - Adam Sandler Movie HD (a_c3hW0Uyvc)
tp53
a(VThe Last Airbender movie trailer
p54
VAvatar - The Last Airbender Movie Trailer 2009 [Official] TRUE HD (Wo85qZm-Zuk)
tp55
a(VThe Expendables movie trailer
p56
VThe Expendables Movie Trailer (glkl6fCpAVc)
tp57
a(VThe Fighter movie trailer
p58
VThe Fighter Movie Trailer Official (HD) (71l-kIhJ5j8)
tp59
a(VThe Twilight Saga: Eclipse movie trailer
p60
VThe Twilight Saga: Eclipse (1/11) Movie CLIP - A Heartfelt Proposal (2010) HD (PwmNvgd5kNI)
tp61
a(VClash of the Titans movie trailer
p62
VOfficial Clash of the Titans Movie Trailer 2010 [HD] (XJNenKqmOMU)
tp63
a(VPredators movie trailer
p64
VPredators - Official Trailer (HD) (N2jJOy8rzog)
tp65
a(VRED movie trailer
p66
VRed (2010) Official Trailer - Bruce Willis, Morgan Freeman Action Movie HD (-JZ_moituIo)
tp67
a(VThe King's Speech movie trailer
p68
VThe King's Speech Movie Trailer Official (HD) (pzI4D6dyp_o)
tp69
a(VA Serbian Film movie trailer
p70
VA Serbian Film Official Red Band U.S. Trailer (ddwrbcMmzlc)
tp71
a(VFlipped movie trailer
p72
VFlipped (2010) Official Trailer - Madeline Carroll, Callan McAuliffe Movie HD (q40GxY5n2Dg)
tp73
a(VTrue Grit movie trailer
p74
VTrue Grit  2010 HD Movie Trailer (vXCmUEaPQPM)
tp75
a(VPrince of Persia: The Sands of Time movie trailer
p76
VPRINCE OF PERSIA: THE SANDS OF TIME MOVIE TRAILER (bZ7Li5w2I-k)
tp77
a(VLet Me In movie trailer
p78
VLET ME IN Movie Trailer (HD) (BA_USu7C2ZQ)
tp79
a(VThe A-Team movie trailer
p80
VThe A-Team 2010 New Extended Movie Trailer [HD] (kM0ypzvuphg)
tp81
a(VStep Up 3D movie trailer
p82
V'Step Up 3D' Trailer HD (89TLbK6o-og)
tp83
a(VRemember Me movie trailer
p84
VRemember Me - Official Trailer [HD] (IMBfTdm9ALk)
tp85
a(V127 Hours movie trailer
p86
V127 HOURS - Full Length Official Trailer HD (OlhLOWTnVoQ)
tp87
a(VSkyline movie trailer
p88
VSkyline Movie Trailer Official (HD) (qdOGJi5Sne4)
tp89
a(VThe Next Three Days movie trailer
p90
VThe Next Three Days Movie Trailer Official (HD) (lti0vfCPZns)
tp91
a(VLegion movie trailer
p92
V'Legion' Trailer HD 2010 Movie (5mJEq85d1R8)
tp93
a(VThe Chronicles of Narnia: The Voyage of the Dawn Treader movie trailer
p94
VThe Chronicles of Narnia: The Voyage of the Dawn Treader Official Trailer [HD] (hrJQDPpIK6I)
tp95
a(VThe Last Song movie trailer
p96
VThe Last Song Trailer [HD] (l6Q07mI1EUc)
tp97
a(VBlue Valentine movie trailer
p98
VBlue Valentine Movie Trailer Official (HLPbja1mc3A)
tp99
a(VThe Book of Eli movie trailer
p100
Vthe book of eli hadmal (oqs_dNtSYpM)
tp101
a.